ARM GAS  C:\Users\Yasi\AppData\Local\Temp\ccPp3WL9.s 			page 1


   1              		.cpu cortex-m0plus
   2              		.arch armv6s-m
   3              		.fpu softvfp
   4              		.eabi_attribute 20, 1
   5              		.eabi_attribute 21, 1
   6              		.eabi_attribute 23, 3
   7              		.eabi_attribute 24, 1
   8              		.eabi_attribute 25, 1
   9              		.eabi_attribute 26, 1
  10              		.eabi_attribute 30, 1
  11              		.eabi_attribute 34, 0
  12              		.eabi_attribute 18, 4
  13              		.file	"stm32c0xx_hal_flash_ex.c"
  14              		.text
  15              	.Ltext0:
  16              		.cfi_sections	.debug_frame
  17              		.file 1 "Drivers/STM32C0xx_HAL_Driver/Src/stm32c0xx_hal_flash_ex.c"
  18              		.section	.text.FLASH_MassErase,"ax",%progbits
  19              		.align	1
  20              		.syntax unified
  21              		.code	16
  22              		.thumb_func
  24              	FLASH_MassErase:
  25              	.LFB223:
   1:Drivers/STM32C0xx_HAL_Driver/Src/stm32c0xx_hal_flash_ex.c **** /**
   2:Drivers/STM32C0xx_HAL_Driver/Src/stm32c0xx_hal_flash_ex.c ****   ******************************************************************************
   3:Drivers/STM32C0xx_HAL_Driver/Src/stm32c0xx_hal_flash_ex.c ****   * @file    stm32c0xx_hal_flash_ex.c
   4:Drivers/STM32C0xx_HAL_Driver/Src/stm32c0xx_hal_flash_ex.c ****   * @author  MCD Application Team
   5:Drivers/STM32C0xx_HAL_Driver/Src/stm32c0xx_hal_flash_ex.c ****   * @brief   Extended FLASH HAL module driver.
   6:Drivers/STM32C0xx_HAL_Driver/Src/stm32c0xx_hal_flash_ex.c ****   *          This file provides firmware functions to manage the following
   7:Drivers/STM32C0xx_HAL_Driver/Src/stm32c0xx_hal_flash_ex.c ****   *          functionalities of the FLASH extended peripheral:
   8:Drivers/STM32C0xx_HAL_Driver/Src/stm32c0xx_hal_flash_ex.c ****   *           + Extended programming operations functions
   9:Drivers/STM32C0xx_HAL_Driver/Src/stm32c0xx_hal_flash_ex.c ****   *
  10:Drivers/STM32C0xx_HAL_Driver/Src/stm32c0xx_hal_flash_ex.c ****   ******************************************************************************
  11:Drivers/STM32C0xx_HAL_Driver/Src/stm32c0xx_hal_flash_ex.c ****   * @attention
  12:Drivers/STM32C0xx_HAL_Driver/Src/stm32c0xx_hal_flash_ex.c ****   *
  13:Drivers/STM32C0xx_HAL_Driver/Src/stm32c0xx_hal_flash_ex.c ****   * Copyright (c) 2022 STMicroelectronics.
  14:Drivers/STM32C0xx_HAL_Driver/Src/stm32c0xx_hal_flash_ex.c ****   * All rights reserved.
  15:Drivers/STM32C0xx_HAL_Driver/Src/stm32c0xx_hal_flash_ex.c ****   *
  16:Drivers/STM32C0xx_HAL_Driver/Src/stm32c0xx_hal_flash_ex.c ****   * This software is licensed under terms that can be found in the LICENSE file
  17:Drivers/STM32C0xx_HAL_Driver/Src/stm32c0xx_hal_flash_ex.c ****   * in the root directory of this software component.
  18:Drivers/STM32C0xx_HAL_Driver/Src/stm32c0xx_hal_flash_ex.c ****   * If no LICENSE file comes with this software, it is provided AS-IS.
  19:Drivers/STM32C0xx_HAL_Driver/Src/stm32c0xx_hal_flash_ex.c ****   *
  20:Drivers/STM32C0xx_HAL_Driver/Src/stm32c0xx_hal_flash_ex.c ****   ******************************************************************************
  21:Drivers/STM32C0xx_HAL_Driver/Src/stm32c0xx_hal_flash_ex.c ****  @verbatim
  22:Drivers/STM32C0xx_HAL_Driver/Src/stm32c0xx_hal_flash_ex.c ****  ==============================================================================
  23:Drivers/STM32C0xx_HAL_Driver/Src/stm32c0xx_hal_flash_ex.c ****                    ##### Flash Extended features #####
  24:Drivers/STM32C0xx_HAL_Driver/Src/stm32c0xx_hal_flash_ex.c ****   ==============================================================================
  25:Drivers/STM32C0xx_HAL_Driver/Src/stm32c0xx_hal_flash_ex.c **** 
  26:Drivers/STM32C0xx_HAL_Driver/Src/stm32c0xx_hal_flash_ex.c ****   [..] Comparing to other previous devices, the FLASH interface for STM32C0xx
  27:Drivers/STM32C0xx_HAL_Driver/Src/stm32c0xx_hal_flash_ex.c ****        devices contains the following additional features
  28:Drivers/STM32C0xx_HAL_Driver/Src/stm32c0xx_hal_flash_ex.c **** 
  29:Drivers/STM32C0xx_HAL_Driver/Src/stm32c0xx_hal_flash_ex.c ****        (+) Capacity up to 128 Kbytes with single bank architecture supporting read-while-write
  30:Drivers/STM32C0xx_HAL_Driver/Src/stm32c0xx_hal_flash_ex.c ****            capability (RWW)
  31:Drivers/STM32C0xx_HAL_Driver/Src/stm32c0xx_hal_flash_ex.c ****        (+) Single bank memory organization
  32:Drivers/STM32C0xx_HAL_Driver/Src/stm32c0xx_hal_flash_ex.c ****        (+) PCROP protection
  33:Drivers/STM32C0xx_HAL_Driver/Src/stm32c0xx_hal_flash_ex.c **** 
ARM GAS  C:\Users\Yasi\AppData\Local\Temp\ccPp3WL9.s 			page 2


  34:Drivers/STM32C0xx_HAL_Driver/Src/stm32c0xx_hal_flash_ex.c ****                         ##### How to use this driver #####
  35:Drivers/STM32C0xx_HAL_Driver/Src/stm32c0xx_hal_flash_ex.c ****  ==============================================================================
  36:Drivers/STM32C0xx_HAL_Driver/Src/stm32c0xx_hal_flash_ex.c ****   [..] This driver provides functions to configure and program the FLASH memory
  37:Drivers/STM32C0xx_HAL_Driver/Src/stm32c0xx_hal_flash_ex.c ****        of all STM32C0xx devices. It includes
  38:Drivers/STM32C0xx_HAL_Driver/Src/stm32c0xx_hal_flash_ex.c ****       (#) Flash Memory Erase functions:
  39:Drivers/STM32C0xx_HAL_Driver/Src/stm32c0xx_hal_flash_ex.c ****            (++) Lock and Unlock the FLASH interface using HAL_FLASH_Unlock() and
  40:Drivers/STM32C0xx_HAL_Driver/Src/stm32c0xx_hal_flash_ex.c ****                 HAL_FLASH_Lock() functions
  41:Drivers/STM32C0xx_HAL_Driver/Src/stm32c0xx_hal_flash_ex.c ****            (++) Erase function: Erase page, erase all sectors
  42:Drivers/STM32C0xx_HAL_Driver/Src/stm32c0xx_hal_flash_ex.c ****            (++) There are two modes of erase :
  43:Drivers/STM32C0xx_HAL_Driver/Src/stm32c0xx_hal_flash_ex.c ****              (+++) Polling Mode using HAL_FLASHEx_Erase()
  44:Drivers/STM32C0xx_HAL_Driver/Src/stm32c0xx_hal_flash_ex.c ****              (+++) Interrupt Mode using HAL_FLASHEx_Erase_IT()
  45:Drivers/STM32C0xx_HAL_Driver/Src/stm32c0xx_hal_flash_ex.c **** 
  46:Drivers/STM32C0xx_HAL_Driver/Src/stm32c0xx_hal_flash_ex.c ****       (#) Option Bytes Programming function: Use HAL_FLASHEx_OBProgram() to :
  47:Drivers/STM32C0xx_HAL_Driver/Src/stm32c0xx_hal_flash_ex.c ****         (++) Set/Reset the write protection
  48:Drivers/STM32C0xx_HAL_Driver/Src/stm32c0xx_hal_flash_ex.c ****         (++) Set the Read protection Level
  49:Drivers/STM32C0xx_HAL_Driver/Src/stm32c0xx_hal_flash_ex.c ****         (++) Program the user Option Bytes
  50:Drivers/STM32C0xx_HAL_Driver/Src/stm32c0xx_hal_flash_ex.c ****         (++) Configure the PCROP protection
  51:Drivers/STM32C0xx_HAL_Driver/Src/stm32c0xx_hal_flash_ex.c ****         (++) Set Securable memory area and boot entry point
  52:Drivers/STM32C0xx_HAL_Driver/Src/stm32c0xx_hal_flash_ex.c **** 
  53:Drivers/STM32C0xx_HAL_Driver/Src/stm32c0xx_hal_flash_ex.c ****       (#) Get Option Bytes Configuration function: Use HAL_FLASHEx_OBGetConfig() to :
  54:Drivers/STM32C0xx_HAL_Driver/Src/stm32c0xx_hal_flash_ex.c ****         (++) Get the value of a write protection area
  55:Drivers/STM32C0xx_HAL_Driver/Src/stm32c0xx_hal_flash_ex.c ****         (++) Know if the read protection is activated
  56:Drivers/STM32C0xx_HAL_Driver/Src/stm32c0xx_hal_flash_ex.c ****         (++) Get the value of the user Option Bytes
  57:Drivers/STM32C0xx_HAL_Driver/Src/stm32c0xx_hal_flash_ex.c ****         (++) Get Securable memory area and boot entry point information
  58:Drivers/STM32C0xx_HAL_Driver/Src/stm32c0xx_hal_flash_ex.c **** 
  59:Drivers/STM32C0xx_HAL_Driver/Src/stm32c0xx_hal_flash_ex.c ****       (#) Enable or disable debugger usage using HAL_FLASHEx_EnableDebugger and
  60:Drivers/STM32C0xx_HAL_Driver/Src/stm32c0xx_hal_flash_ex.c ****           HAL_FLASHEx_DisableDebugger.
  61:Drivers/STM32C0xx_HAL_Driver/Src/stm32c0xx_hal_flash_ex.c **** 
  62:Drivers/STM32C0xx_HAL_Driver/Src/stm32c0xx_hal_flash_ex.c ****       (#) Check is flash content is empty or not using HAL_FLASHEx_FlashEmptyCheck.
  63:Drivers/STM32C0xx_HAL_Driver/Src/stm32c0xx_hal_flash_ex.c ****           and modify this setting (for flash loader purpose e.g.) using
  64:Drivers/STM32C0xx_HAL_Driver/Src/stm32c0xx_hal_flash_ex.c ****           HAL_FLASHEx_ForceFlashEmpty.
  65:Drivers/STM32C0xx_HAL_Driver/Src/stm32c0xx_hal_flash_ex.c **** 
  66:Drivers/STM32C0xx_HAL_Driver/Src/stm32c0xx_hal_flash_ex.c ****       (#) Enable securable memory area protectionusing HAL_FLASHEx_EnableSecMemProtection
  67:Drivers/STM32C0xx_HAL_Driver/Src/stm32c0xx_hal_flash_ex.c **** 
  68:Drivers/STM32C0xx_HAL_Driver/Src/stm32c0xx_hal_flash_ex.c ****  @endverbatim
  69:Drivers/STM32C0xx_HAL_Driver/Src/stm32c0xx_hal_flash_ex.c ****   ******************************************************************************
  70:Drivers/STM32C0xx_HAL_Driver/Src/stm32c0xx_hal_flash_ex.c ****   */
  71:Drivers/STM32C0xx_HAL_Driver/Src/stm32c0xx_hal_flash_ex.c **** 
  72:Drivers/STM32C0xx_HAL_Driver/Src/stm32c0xx_hal_flash_ex.c **** /* Includes ------------------------------------------------------------------*/
  73:Drivers/STM32C0xx_HAL_Driver/Src/stm32c0xx_hal_flash_ex.c **** #include "stm32c0xx_hal.h"
  74:Drivers/STM32C0xx_HAL_Driver/Src/stm32c0xx_hal_flash_ex.c **** 
  75:Drivers/STM32C0xx_HAL_Driver/Src/stm32c0xx_hal_flash_ex.c **** /** @addtogroup STM32C0xx_HAL_Driver
  76:Drivers/STM32C0xx_HAL_Driver/Src/stm32c0xx_hal_flash_ex.c ****   * @{
  77:Drivers/STM32C0xx_HAL_Driver/Src/stm32c0xx_hal_flash_ex.c ****   */
  78:Drivers/STM32C0xx_HAL_Driver/Src/stm32c0xx_hal_flash_ex.c **** 
  79:Drivers/STM32C0xx_HAL_Driver/Src/stm32c0xx_hal_flash_ex.c **** /** @defgroup FLASHEx FLASHEx
  80:Drivers/STM32C0xx_HAL_Driver/Src/stm32c0xx_hal_flash_ex.c ****   * @brief FLASH Extended HAL module driver
  81:Drivers/STM32C0xx_HAL_Driver/Src/stm32c0xx_hal_flash_ex.c ****   * @{
  82:Drivers/STM32C0xx_HAL_Driver/Src/stm32c0xx_hal_flash_ex.c ****   */
  83:Drivers/STM32C0xx_HAL_Driver/Src/stm32c0xx_hal_flash_ex.c **** 
  84:Drivers/STM32C0xx_HAL_Driver/Src/stm32c0xx_hal_flash_ex.c **** #ifdef HAL_FLASH_MODULE_ENABLED
  85:Drivers/STM32C0xx_HAL_Driver/Src/stm32c0xx_hal_flash_ex.c **** 
  86:Drivers/STM32C0xx_HAL_Driver/Src/stm32c0xx_hal_flash_ex.c **** /* Private typedef -----------------------------------------------------------*/
  87:Drivers/STM32C0xx_HAL_Driver/Src/stm32c0xx_hal_flash_ex.c **** /* Private define ------------------------------------------------------------*/
  88:Drivers/STM32C0xx_HAL_Driver/Src/stm32c0xx_hal_flash_ex.c **** /* Private macro -------------------------------------------------------------*/
  89:Drivers/STM32C0xx_HAL_Driver/Src/stm32c0xx_hal_flash_ex.c **** /* Private variables ---------------------------------------------------------*/
  90:Drivers/STM32C0xx_HAL_Driver/Src/stm32c0xx_hal_flash_ex.c **** /* Private function prototypes -----------------------------------------------*/
ARM GAS  C:\Users\Yasi\AppData\Local\Temp\ccPp3WL9.s 			page 3


  91:Drivers/STM32C0xx_HAL_Driver/Src/stm32c0xx_hal_flash_ex.c **** /** @defgroup FLASHEx_Private_Functions FLASHEx Private Functions
  92:Drivers/STM32C0xx_HAL_Driver/Src/stm32c0xx_hal_flash_ex.c ****   * @{
  93:Drivers/STM32C0xx_HAL_Driver/Src/stm32c0xx_hal_flash_ex.c ****   */
  94:Drivers/STM32C0xx_HAL_Driver/Src/stm32c0xx_hal_flash_ex.c **** static void            FLASH_MassErase(void);
  95:Drivers/STM32C0xx_HAL_Driver/Src/stm32c0xx_hal_flash_ex.c **** void                   FLASH_FlushCaches(void);
  96:Drivers/STM32C0xx_HAL_Driver/Src/stm32c0xx_hal_flash_ex.c **** static void            FLASH_OB_WRPConfig(uint32_t WRPArea, uint32_t WRPStartOffset, uint32_t WRDPE
  97:Drivers/STM32C0xx_HAL_Driver/Src/stm32c0xx_hal_flash_ex.c **** static void            FLASH_OB_OptrConfig(uint32_t UserType, uint32_t UserConfig, uint32_t RDPLeve
  98:Drivers/STM32C0xx_HAL_Driver/Src/stm32c0xx_hal_flash_ex.c **** static void            FLASH_OB_PCROP1AConfig(uint32_t PCROPConfig, uint32_t PCROP1AStartAddr, uint
  99:Drivers/STM32C0xx_HAL_Driver/Src/stm32c0xx_hal_flash_ex.c **** static void            FLASH_OB_PCROP1BConfig(uint32_t PCROP1BStartAddr, uint32_t PCROP1BEndAddr);
 100:Drivers/STM32C0xx_HAL_Driver/Src/stm32c0xx_hal_flash_ex.c **** static void            FLASH_OB_SecMemConfig(uint32_t BootEntry, uint32_t SecSize);
 101:Drivers/STM32C0xx_HAL_Driver/Src/stm32c0xx_hal_flash_ex.c **** static void            FLASH_OB_GetWRP(uint32_t WRPArea, uint32_t *WRPStartOffset, uint32_t *WRDPEn
 102:Drivers/STM32C0xx_HAL_Driver/Src/stm32c0xx_hal_flash_ex.c **** static uint32_t        FLASH_OB_GetRDP(void);
 103:Drivers/STM32C0xx_HAL_Driver/Src/stm32c0xx_hal_flash_ex.c **** static uint32_t        FLASH_OB_GetUser(void);
 104:Drivers/STM32C0xx_HAL_Driver/Src/stm32c0xx_hal_flash_ex.c **** static void            FLASH_OB_GetPCROP1A(uint32_t *PCROPConfig, uint32_t *PCROP1AStartAddr, uint3
 105:Drivers/STM32C0xx_HAL_Driver/Src/stm32c0xx_hal_flash_ex.c **** static void            FLASH_OB_GetPCROP1B(uint32_t *PCROP1BStartAddr, uint32_t *PCROP1BEndAddr);
 106:Drivers/STM32C0xx_HAL_Driver/Src/stm32c0xx_hal_flash_ex.c **** static void            FLASH_OB_GetSecMem(uint32_t *BootEntry, uint32_t *SecSize);
 107:Drivers/STM32C0xx_HAL_Driver/Src/stm32c0xx_hal_flash_ex.c **** /**
 108:Drivers/STM32C0xx_HAL_Driver/Src/stm32c0xx_hal_flash_ex.c ****   * @}
 109:Drivers/STM32C0xx_HAL_Driver/Src/stm32c0xx_hal_flash_ex.c ****   */
 110:Drivers/STM32C0xx_HAL_Driver/Src/stm32c0xx_hal_flash_ex.c **** 
 111:Drivers/STM32C0xx_HAL_Driver/Src/stm32c0xx_hal_flash_ex.c **** /* Exported functions -------------------------------------------------------*/
 112:Drivers/STM32C0xx_HAL_Driver/Src/stm32c0xx_hal_flash_ex.c **** /** @defgroup FLASHEx_Exported_Functions FLASH Extended Exported Functions
 113:Drivers/STM32C0xx_HAL_Driver/Src/stm32c0xx_hal_flash_ex.c ****   * @{
 114:Drivers/STM32C0xx_HAL_Driver/Src/stm32c0xx_hal_flash_ex.c ****   */
 115:Drivers/STM32C0xx_HAL_Driver/Src/stm32c0xx_hal_flash_ex.c **** 
 116:Drivers/STM32C0xx_HAL_Driver/Src/stm32c0xx_hal_flash_ex.c **** /** @defgroup FLASHEx_Exported_Functions_Group1 Extended IO operation functions
 117:Drivers/STM32C0xx_HAL_Driver/Src/stm32c0xx_hal_flash_ex.c ****   *  @brief   Extended IO operation functions
 118:Drivers/STM32C0xx_HAL_Driver/Src/stm32c0xx_hal_flash_ex.c ****   *
 119:Drivers/STM32C0xx_HAL_Driver/Src/stm32c0xx_hal_flash_ex.c **** @verbatim
 120:Drivers/STM32C0xx_HAL_Driver/Src/stm32c0xx_hal_flash_ex.c ****  ===============================================================================
 121:Drivers/STM32C0xx_HAL_Driver/Src/stm32c0xx_hal_flash_ex.c ****                 ##### Extended programming operation functions #####
 122:Drivers/STM32C0xx_HAL_Driver/Src/stm32c0xx_hal_flash_ex.c ****  ===============================================================================
 123:Drivers/STM32C0xx_HAL_Driver/Src/stm32c0xx_hal_flash_ex.c ****     [..]
 124:Drivers/STM32C0xx_HAL_Driver/Src/stm32c0xx_hal_flash_ex.c ****     This subsection provides a set of functions allowing to manage the Extended FLASH
 125:Drivers/STM32C0xx_HAL_Driver/Src/stm32c0xx_hal_flash_ex.c ****     programming operations Operations.
 126:Drivers/STM32C0xx_HAL_Driver/Src/stm32c0xx_hal_flash_ex.c **** 
 127:Drivers/STM32C0xx_HAL_Driver/Src/stm32c0xx_hal_flash_ex.c **** @endverbatim
 128:Drivers/STM32C0xx_HAL_Driver/Src/stm32c0xx_hal_flash_ex.c ****   * @{
 129:Drivers/STM32C0xx_HAL_Driver/Src/stm32c0xx_hal_flash_ex.c ****   */
 130:Drivers/STM32C0xx_HAL_Driver/Src/stm32c0xx_hal_flash_ex.c **** /**
 131:Drivers/STM32C0xx_HAL_Driver/Src/stm32c0xx_hal_flash_ex.c ****   * @brief  Perform a mass erase or erase the specified FLASH memory pages.
 132:Drivers/STM32C0xx_HAL_Driver/Src/stm32c0xx_hal_flash_ex.c ****   * @param[in]  pEraseInit Pointer to an @ref FLASH_EraseInitTypeDef structure that
 133:Drivers/STM32C0xx_HAL_Driver/Src/stm32c0xx_hal_flash_ex.c ****   *         contains the configuration information for the erasing.
 134:Drivers/STM32C0xx_HAL_Driver/Src/stm32c0xx_hal_flash_ex.c ****   * @param[out]  PageError Pointer to variable that contains the configuration
 135:Drivers/STM32C0xx_HAL_Driver/Src/stm32c0xx_hal_flash_ex.c ****   *         information on faulty page in case of error (0xFFFFFFFF means that all
 136:Drivers/STM32C0xx_HAL_Driver/Src/stm32c0xx_hal_flash_ex.c ****   *         the pages have been correctly erased)
 137:Drivers/STM32C0xx_HAL_Driver/Src/stm32c0xx_hal_flash_ex.c ****   * @retval HAL Status
 138:Drivers/STM32C0xx_HAL_Driver/Src/stm32c0xx_hal_flash_ex.c ****   */
 139:Drivers/STM32C0xx_HAL_Driver/Src/stm32c0xx_hal_flash_ex.c **** HAL_StatusTypeDef HAL_FLASHEx_Erase(FLASH_EraseInitTypeDef *pEraseInit, uint32_t *PageError)
 140:Drivers/STM32C0xx_HAL_Driver/Src/stm32c0xx_hal_flash_ex.c **** {
 141:Drivers/STM32C0xx_HAL_Driver/Src/stm32c0xx_hal_flash_ex.c ****   HAL_StatusTypeDef status;
 142:Drivers/STM32C0xx_HAL_Driver/Src/stm32c0xx_hal_flash_ex.c ****   uint32_t index;
 143:Drivers/STM32C0xx_HAL_Driver/Src/stm32c0xx_hal_flash_ex.c **** 
 144:Drivers/STM32C0xx_HAL_Driver/Src/stm32c0xx_hal_flash_ex.c ****   /* Check the parameters */
 145:Drivers/STM32C0xx_HAL_Driver/Src/stm32c0xx_hal_flash_ex.c ****   assert_param(IS_FLASH_TYPEERASE(pEraseInit->TypeErase));
 146:Drivers/STM32C0xx_HAL_Driver/Src/stm32c0xx_hal_flash_ex.c **** 
 147:Drivers/STM32C0xx_HAL_Driver/Src/stm32c0xx_hal_flash_ex.c ****   /* Process Locked */
ARM GAS  C:\Users\Yasi\AppData\Local\Temp\ccPp3WL9.s 			page 4


 148:Drivers/STM32C0xx_HAL_Driver/Src/stm32c0xx_hal_flash_ex.c ****   __HAL_LOCK(&pFlash);
 149:Drivers/STM32C0xx_HAL_Driver/Src/stm32c0xx_hal_flash_ex.c **** 
 150:Drivers/STM32C0xx_HAL_Driver/Src/stm32c0xx_hal_flash_ex.c ****   /* Reset error code */
 151:Drivers/STM32C0xx_HAL_Driver/Src/stm32c0xx_hal_flash_ex.c ****   pFlash.ErrorCode = HAL_FLASH_ERROR_NONE;
 152:Drivers/STM32C0xx_HAL_Driver/Src/stm32c0xx_hal_flash_ex.c **** 
 153:Drivers/STM32C0xx_HAL_Driver/Src/stm32c0xx_hal_flash_ex.c ****   /* Wait for last operation to be completed */
 154:Drivers/STM32C0xx_HAL_Driver/Src/stm32c0xx_hal_flash_ex.c ****   status = FLASH_WaitForLastOperation(FLASH_TIMEOUT_VALUE);
 155:Drivers/STM32C0xx_HAL_Driver/Src/stm32c0xx_hal_flash_ex.c **** 
 156:Drivers/STM32C0xx_HAL_Driver/Src/stm32c0xx_hal_flash_ex.c ****   if (status == HAL_OK)
 157:Drivers/STM32C0xx_HAL_Driver/Src/stm32c0xx_hal_flash_ex.c ****   {
 158:Drivers/STM32C0xx_HAL_Driver/Src/stm32c0xx_hal_flash_ex.c ****     if (pEraseInit->TypeErase == FLASH_TYPEERASE_MASS)
 159:Drivers/STM32C0xx_HAL_Driver/Src/stm32c0xx_hal_flash_ex.c ****     {
 160:Drivers/STM32C0xx_HAL_Driver/Src/stm32c0xx_hal_flash_ex.c ****       /* Mass erase to be done */
 161:Drivers/STM32C0xx_HAL_Driver/Src/stm32c0xx_hal_flash_ex.c ****       FLASH_MassErase();
 162:Drivers/STM32C0xx_HAL_Driver/Src/stm32c0xx_hal_flash_ex.c **** 
 163:Drivers/STM32C0xx_HAL_Driver/Src/stm32c0xx_hal_flash_ex.c ****       /* Wait for last operation to be completed */
 164:Drivers/STM32C0xx_HAL_Driver/Src/stm32c0xx_hal_flash_ex.c ****       status = FLASH_WaitForLastOperation(FLASH_TIMEOUT_VALUE);
 165:Drivers/STM32C0xx_HAL_Driver/Src/stm32c0xx_hal_flash_ex.c ****     }
 166:Drivers/STM32C0xx_HAL_Driver/Src/stm32c0xx_hal_flash_ex.c ****     else
 167:Drivers/STM32C0xx_HAL_Driver/Src/stm32c0xx_hal_flash_ex.c ****     {
 168:Drivers/STM32C0xx_HAL_Driver/Src/stm32c0xx_hal_flash_ex.c ****       /*Initialization of PageError variable*/
 169:Drivers/STM32C0xx_HAL_Driver/Src/stm32c0xx_hal_flash_ex.c ****       *PageError = 0xFFFFFFFFU;
 170:Drivers/STM32C0xx_HAL_Driver/Src/stm32c0xx_hal_flash_ex.c **** 
 171:Drivers/STM32C0xx_HAL_Driver/Src/stm32c0xx_hal_flash_ex.c ****       for (index = pEraseInit->Page; index < (pEraseInit->Page + pEraseInit->NbPages); index++)
 172:Drivers/STM32C0xx_HAL_Driver/Src/stm32c0xx_hal_flash_ex.c ****       {
 173:Drivers/STM32C0xx_HAL_Driver/Src/stm32c0xx_hal_flash_ex.c ****         /* Start erase page */
 174:Drivers/STM32C0xx_HAL_Driver/Src/stm32c0xx_hal_flash_ex.c ****         FLASH_PageErase(index);
 175:Drivers/STM32C0xx_HAL_Driver/Src/stm32c0xx_hal_flash_ex.c **** 
 176:Drivers/STM32C0xx_HAL_Driver/Src/stm32c0xx_hal_flash_ex.c ****         /* Wait for last operation to be completed */
 177:Drivers/STM32C0xx_HAL_Driver/Src/stm32c0xx_hal_flash_ex.c ****         status = FLASH_WaitForLastOperation(FLASH_TIMEOUT_VALUE);
 178:Drivers/STM32C0xx_HAL_Driver/Src/stm32c0xx_hal_flash_ex.c **** 
 179:Drivers/STM32C0xx_HAL_Driver/Src/stm32c0xx_hal_flash_ex.c ****         if (status != HAL_OK)
 180:Drivers/STM32C0xx_HAL_Driver/Src/stm32c0xx_hal_flash_ex.c ****         {
 181:Drivers/STM32C0xx_HAL_Driver/Src/stm32c0xx_hal_flash_ex.c ****           /* In case of error, stop erase procedure and return the faulty address */
 182:Drivers/STM32C0xx_HAL_Driver/Src/stm32c0xx_hal_flash_ex.c ****           *PageError = index;
 183:Drivers/STM32C0xx_HAL_Driver/Src/stm32c0xx_hal_flash_ex.c ****           break;
 184:Drivers/STM32C0xx_HAL_Driver/Src/stm32c0xx_hal_flash_ex.c ****         }
 185:Drivers/STM32C0xx_HAL_Driver/Src/stm32c0xx_hal_flash_ex.c ****       }
 186:Drivers/STM32C0xx_HAL_Driver/Src/stm32c0xx_hal_flash_ex.c **** 
 187:Drivers/STM32C0xx_HAL_Driver/Src/stm32c0xx_hal_flash_ex.c ****       /* If operation is completed or interrupted, disable the Page Erase Bit */
 188:Drivers/STM32C0xx_HAL_Driver/Src/stm32c0xx_hal_flash_ex.c ****       CLEAR_BIT(FLASH->CR, FLASH_CR_PER);
 189:Drivers/STM32C0xx_HAL_Driver/Src/stm32c0xx_hal_flash_ex.c ****     }
 190:Drivers/STM32C0xx_HAL_Driver/Src/stm32c0xx_hal_flash_ex.c ****   }
 191:Drivers/STM32C0xx_HAL_Driver/Src/stm32c0xx_hal_flash_ex.c **** 
 192:Drivers/STM32C0xx_HAL_Driver/Src/stm32c0xx_hal_flash_ex.c ****   /* Process Unlocked */
 193:Drivers/STM32C0xx_HAL_Driver/Src/stm32c0xx_hal_flash_ex.c ****   __HAL_UNLOCK(&pFlash);
 194:Drivers/STM32C0xx_HAL_Driver/Src/stm32c0xx_hal_flash_ex.c **** 
 195:Drivers/STM32C0xx_HAL_Driver/Src/stm32c0xx_hal_flash_ex.c ****   /* return status */
 196:Drivers/STM32C0xx_HAL_Driver/Src/stm32c0xx_hal_flash_ex.c ****   return status;
 197:Drivers/STM32C0xx_HAL_Driver/Src/stm32c0xx_hal_flash_ex.c **** }
 198:Drivers/STM32C0xx_HAL_Driver/Src/stm32c0xx_hal_flash_ex.c **** 
 199:Drivers/STM32C0xx_HAL_Driver/Src/stm32c0xx_hal_flash_ex.c **** 
 200:Drivers/STM32C0xx_HAL_Driver/Src/stm32c0xx_hal_flash_ex.c **** /**
 201:Drivers/STM32C0xx_HAL_Driver/Src/stm32c0xx_hal_flash_ex.c ****   * @brief  Perform a mass erase or erase the specified FLASH memory pages with interrupt enabled.
 202:Drivers/STM32C0xx_HAL_Driver/Src/stm32c0xx_hal_flash_ex.c ****   * @param  pEraseInit Pointer to an @ref FLASH_EraseInitTypeDef structure that
 203:Drivers/STM32C0xx_HAL_Driver/Src/stm32c0xx_hal_flash_ex.c ****   *         contains the configuration information for the erasing.
 204:Drivers/STM32C0xx_HAL_Driver/Src/stm32c0xx_hal_flash_ex.c ****   * @retval HAL Status
ARM GAS  C:\Users\Yasi\AppData\Local\Temp\ccPp3WL9.s 			page 5


 205:Drivers/STM32C0xx_HAL_Driver/Src/stm32c0xx_hal_flash_ex.c ****   */
 206:Drivers/STM32C0xx_HAL_Driver/Src/stm32c0xx_hal_flash_ex.c **** HAL_StatusTypeDef HAL_FLASHEx_Erase_IT(FLASH_EraseInitTypeDef *pEraseInit)
 207:Drivers/STM32C0xx_HAL_Driver/Src/stm32c0xx_hal_flash_ex.c **** {
 208:Drivers/STM32C0xx_HAL_Driver/Src/stm32c0xx_hal_flash_ex.c ****   HAL_StatusTypeDef status;
 209:Drivers/STM32C0xx_HAL_Driver/Src/stm32c0xx_hal_flash_ex.c **** 
 210:Drivers/STM32C0xx_HAL_Driver/Src/stm32c0xx_hal_flash_ex.c ****   /* Check the parameters */
 211:Drivers/STM32C0xx_HAL_Driver/Src/stm32c0xx_hal_flash_ex.c ****   assert_param(IS_FLASH_TYPEERASE(pEraseInit->TypeErase));
 212:Drivers/STM32C0xx_HAL_Driver/Src/stm32c0xx_hal_flash_ex.c **** 
 213:Drivers/STM32C0xx_HAL_Driver/Src/stm32c0xx_hal_flash_ex.c ****   /* Process Locked */
 214:Drivers/STM32C0xx_HAL_Driver/Src/stm32c0xx_hal_flash_ex.c ****   __HAL_LOCK(&pFlash);
 215:Drivers/STM32C0xx_HAL_Driver/Src/stm32c0xx_hal_flash_ex.c **** 
 216:Drivers/STM32C0xx_HAL_Driver/Src/stm32c0xx_hal_flash_ex.c ****   /* Reset error code */
 217:Drivers/STM32C0xx_HAL_Driver/Src/stm32c0xx_hal_flash_ex.c ****   pFlash.ErrorCode = HAL_FLASH_ERROR_NONE;
 218:Drivers/STM32C0xx_HAL_Driver/Src/stm32c0xx_hal_flash_ex.c **** 
 219:Drivers/STM32C0xx_HAL_Driver/Src/stm32c0xx_hal_flash_ex.c ****   /* save procedure for interrupt treatment */
 220:Drivers/STM32C0xx_HAL_Driver/Src/stm32c0xx_hal_flash_ex.c ****   pFlash.ProcedureOnGoing = pEraseInit->TypeErase;
 221:Drivers/STM32C0xx_HAL_Driver/Src/stm32c0xx_hal_flash_ex.c **** 
 222:Drivers/STM32C0xx_HAL_Driver/Src/stm32c0xx_hal_flash_ex.c ****   /* Wait for last operation to be completed */
 223:Drivers/STM32C0xx_HAL_Driver/Src/stm32c0xx_hal_flash_ex.c ****   status = FLASH_WaitForLastOperation(FLASH_TIMEOUT_VALUE);
 224:Drivers/STM32C0xx_HAL_Driver/Src/stm32c0xx_hal_flash_ex.c **** 
 225:Drivers/STM32C0xx_HAL_Driver/Src/stm32c0xx_hal_flash_ex.c ****   if (status != HAL_OK)
 226:Drivers/STM32C0xx_HAL_Driver/Src/stm32c0xx_hal_flash_ex.c ****   {
 227:Drivers/STM32C0xx_HAL_Driver/Src/stm32c0xx_hal_flash_ex.c ****     /* Process Unlocked */
 228:Drivers/STM32C0xx_HAL_Driver/Src/stm32c0xx_hal_flash_ex.c ****     __HAL_UNLOCK(&pFlash);
 229:Drivers/STM32C0xx_HAL_Driver/Src/stm32c0xx_hal_flash_ex.c ****   }
 230:Drivers/STM32C0xx_HAL_Driver/Src/stm32c0xx_hal_flash_ex.c ****   else
 231:Drivers/STM32C0xx_HAL_Driver/Src/stm32c0xx_hal_flash_ex.c ****   {
 232:Drivers/STM32C0xx_HAL_Driver/Src/stm32c0xx_hal_flash_ex.c ****     /* Enable End of Operation and Error interrupts */
 233:Drivers/STM32C0xx_HAL_Driver/Src/stm32c0xx_hal_flash_ex.c ****     __HAL_FLASH_ENABLE_IT(FLASH_IT_EOP | FLASH_IT_OPERR);
 234:Drivers/STM32C0xx_HAL_Driver/Src/stm32c0xx_hal_flash_ex.c **** 
 235:Drivers/STM32C0xx_HAL_Driver/Src/stm32c0xx_hal_flash_ex.c ****     if (pEraseInit->TypeErase == FLASH_TYPEERASE_MASS)
 236:Drivers/STM32C0xx_HAL_Driver/Src/stm32c0xx_hal_flash_ex.c ****     {
 237:Drivers/STM32C0xx_HAL_Driver/Src/stm32c0xx_hal_flash_ex.c ****       /* Set Page to 0 for Interrupt callback management */
 238:Drivers/STM32C0xx_HAL_Driver/Src/stm32c0xx_hal_flash_ex.c ****       pFlash.Page = 0;
 239:Drivers/STM32C0xx_HAL_Driver/Src/stm32c0xx_hal_flash_ex.c **** 
 240:Drivers/STM32C0xx_HAL_Driver/Src/stm32c0xx_hal_flash_ex.c ****       /* Proceed to Mass Erase */
 241:Drivers/STM32C0xx_HAL_Driver/Src/stm32c0xx_hal_flash_ex.c ****       FLASH_MassErase();
 242:Drivers/STM32C0xx_HAL_Driver/Src/stm32c0xx_hal_flash_ex.c ****     }
 243:Drivers/STM32C0xx_HAL_Driver/Src/stm32c0xx_hal_flash_ex.c ****     else
 244:Drivers/STM32C0xx_HAL_Driver/Src/stm32c0xx_hal_flash_ex.c ****     {
 245:Drivers/STM32C0xx_HAL_Driver/Src/stm32c0xx_hal_flash_ex.c ****       /* Erase by page to be done */
 246:Drivers/STM32C0xx_HAL_Driver/Src/stm32c0xx_hal_flash_ex.c ****       pFlash.NbPagesToErase = pEraseInit->NbPages;
 247:Drivers/STM32C0xx_HAL_Driver/Src/stm32c0xx_hal_flash_ex.c ****       pFlash.Page = pEraseInit->Page;
 248:Drivers/STM32C0xx_HAL_Driver/Src/stm32c0xx_hal_flash_ex.c **** 
 249:Drivers/STM32C0xx_HAL_Driver/Src/stm32c0xx_hal_flash_ex.c ****       /*Erase 1st page and wait for IT */
 250:Drivers/STM32C0xx_HAL_Driver/Src/stm32c0xx_hal_flash_ex.c ****       FLASH_PageErase(pEraseInit->Page);
 251:Drivers/STM32C0xx_HAL_Driver/Src/stm32c0xx_hal_flash_ex.c ****     }
 252:Drivers/STM32C0xx_HAL_Driver/Src/stm32c0xx_hal_flash_ex.c ****   }
 253:Drivers/STM32C0xx_HAL_Driver/Src/stm32c0xx_hal_flash_ex.c **** 
 254:Drivers/STM32C0xx_HAL_Driver/Src/stm32c0xx_hal_flash_ex.c ****   /* return status */
 255:Drivers/STM32C0xx_HAL_Driver/Src/stm32c0xx_hal_flash_ex.c ****   return status;
 256:Drivers/STM32C0xx_HAL_Driver/Src/stm32c0xx_hal_flash_ex.c **** }
 257:Drivers/STM32C0xx_HAL_Driver/Src/stm32c0xx_hal_flash_ex.c **** 
 258:Drivers/STM32C0xx_HAL_Driver/Src/stm32c0xx_hal_flash_ex.c **** /**
 259:Drivers/STM32C0xx_HAL_Driver/Src/stm32c0xx_hal_flash_ex.c ****   * @brief  Program Option bytes.
 260:Drivers/STM32C0xx_HAL_Driver/Src/stm32c0xx_hal_flash_ex.c ****   * @param  pOBInit Pointer to an @ref FLASH_OBProgramInitTypeDef structure that
 261:Drivers/STM32C0xx_HAL_Driver/Src/stm32c0xx_hal_flash_ex.c ****   *         contains the configuration information for the programming.
ARM GAS  C:\Users\Yasi\AppData\Local\Temp\ccPp3WL9.s 			page 6


 262:Drivers/STM32C0xx_HAL_Driver/Src/stm32c0xx_hal_flash_ex.c ****   * @note   To configure any option bytes, the option lock bit OPTLOCK must be
 263:Drivers/STM32C0xx_HAL_Driver/Src/stm32c0xx_hal_flash_ex.c ****   *         cleared with the call of @ref HAL_FLASH_OB_Unlock() function.
 264:Drivers/STM32C0xx_HAL_Driver/Src/stm32c0xx_hal_flash_ex.c ****   * @note   New option bytes configuration will be taken into account only
 265:Drivers/STM32C0xx_HAL_Driver/Src/stm32c0xx_hal_flash_ex.c ****   *         - after an option bytes launch through the call of @ref HAL_FLASH_OB_Launch()
 266:Drivers/STM32C0xx_HAL_Driver/Src/stm32c0xx_hal_flash_ex.c ****   *         - a Power On Reset
 267:Drivers/STM32C0xx_HAL_Driver/Src/stm32c0xx_hal_flash_ex.c ****   *         - an exit from Standby or Shutdown mode.
 268:Drivers/STM32C0xx_HAL_Driver/Src/stm32c0xx_hal_flash_ex.c ****   * @retval HAL Status
 269:Drivers/STM32C0xx_HAL_Driver/Src/stm32c0xx_hal_flash_ex.c ****   */
 270:Drivers/STM32C0xx_HAL_Driver/Src/stm32c0xx_hal_flash_ex.c **** HAL_StatusTypeDef HAL_FLASHEx_OBProgram(FLASH_OBProgramInitTypeDef *pOBInit)
 271:Drivers/STM32C0xx_HAL_Driver/Src/stm32c0xx_hal_flash_ex.c **** {
 272:Drivers/STM32C0xx_HAL_Driver/Src/stm32c0xx_hal_flash_ex.c ****   uint32_t optr;
 273:Drivers/STM32C0xx_HAL_Driver/Src/stm32c0xx_hal_flash_ex.c ****   HAL_StatusTypeDef status;
 274:Drivers/STM32C0xx_HAL_Driver/Src/stm32c0xx_hal_flash_ex.c **** 
 275:Drivers/STM32C0xx_HAL_Driver/Src/stm32c0xx_hal_flash_ex.c ****   /* Check the parameters */
 276:Drivers/STM32C0xx_HAL_Driver/Src/stm32c0xx_hal_flash_ex.c ****   assert_param(IS_OPTIONBYTE(pOBInit->OptionType));
 277:Drivers/STM32C0xx_HAL_Driver/Src/stm32c0xx_hal_flash_ex.c **** 
 278:Drivers/STM32C0xx_HAL_Driver/Src/stm32c0xx_hal_flash_ex.c ****   /* Process Locked */
 279:Drivers/STM32C0xx_HAL_Driver/Src/stm32c0xx_hal_flash_ex.c ****   __HAL_LOCK(&pFlash);
 280:Drivers/STM32C0xx_HAL_Driver/Src/stm32c0xx_hal_flash_ex.c **** 
 281:Drivers/STM32C0xx_HAL_Driver/Src/stm32c0xx_hal_flash_ex.c ****   pFlash.ErrorCode = HAL_FLASH_ERROR_NONE;
 282:Drivers/STM32C0xx_HAL_Driver/Src/stm32c0xx_hal_flash_ex.c **** 
 283:Drivers/STM32C0xx_HAL_Driver/Src/stm32c0xx_hal_flash_ex.c ****   /* Write protection configuration */
 284:Drivers/STM32C0xx_HAL_Driver/Src/stm32c0xx_hal_flash_ex.c ****   if ((pOBInit->OptionType & OPTIONBYTE_WRP) != 0x00U)
 285:Drivers/STM32C0xx_HAL_Driver/Src/stm32c0xx_hal_flash_ex.c ****   {
 286:Drivers/STM32C0xx_HAL_Driver/Src/stm32c0xx_hal_flash_ex.c ****     /* Configure of Write protection on the selected area */
 287:Drivers/STM32C0xx_HAL_Driver/Src/stm32c0xx_hal_flash_ex.c ****     FLASH_OB_WRPConfig(pOBInit->WRPArea, pOBInit->WRPStartOffset, pOBInit->WRPEndOffset);
 288:Drivers/STM32C0xx_HAL_Driver/Src/stm32c0xx_hal_flash_ex.c ****   }
 289:Drivers/STM32C0xx_HAL_Driver/Src/stm32c0xx_hal_flash_ex.c **** 
 290:Drivers/STM32C0xx_HAL_Driver/Src/stm32c0xx_hal_flash_ex.c ****   /* Option register */
 291:Drivers/STM32C0xx_HAL_Driver/Src/stm32c0xx_hal_flash_ex.c ****   if ((pOBInit->OptionType & (OPTIONBYTE_RDP | OPTIONBYTE_USER)) == (OPTIONBYTE_RDP | OPTIONBYTE_US
 292:Drivers/STM32C0xx_HAL_Driver/Src/stm32c0xx_hal_flash_ex.c ****   {
 293:Drivers/STM32C0xx_HAL_Driver/Src/stm32c0xx_hal_flash_ex.c ****     /* Fully modify OPTR register with RDP & user data */
 294:Drivers/STM32C0xx_HAL_Driver/Src/stm32c0xx_hal_flash_ex.c ****     FLASH_OB_OptrConfig(pOBInit->USERType, pOBInit->USERConfig, pOBInit->RDPLevel);
 295:Drivers/STM32C0xx_HAL_Driver/Src/stm32c0xx_hal_flash_ex.c ****   }
 296:Drivers/STM32C0xx_HAL_Driver/Src/stm32c0xx_hal_flash_ex.c ****   else if ((pOBInit->OptionType & OPTIONBYTE_RDP) != 0x00U)
 297:Drivers/STM32C0xx_HAL_Driver/Src/stm32c0xx_hal_flash_ex.c ****   {
 298:Drivers/STM32C0xx_HAL_Driver/Src/stm32c0xx_hal_flash_ex.c ****     /* Only modify RDP so get current user data */
 299:Drivers/STM32C0xx_HAL_Driver/Src/stm32c0xx_hal_flash_ex.c ****     optr = FLASH_OB_GetUser();
 300:Drivers/STM32C0xx_HAL_Driver/Src/stm32c0xx_hal_flash_ex.c ****     FLASH_OB_OptrConfig(optr, optr, pOBInit->RDPLevel);
 301:Drivers/STM32C0xx_HAL_Driver/Src/stm32c0xx_hal_flash_ex.c ****   }
 302:Drivers/STM32C0xx_HAL_Driver/Src/stm32c0xx_hal_flash_ex.c ****   else if ((pOBInit->OptionType & OPTIONBYTE_USER) != 0x00U)
 303:Drivers/STM32C0xx_HAL_Driver/Src/stm32c0xx_hal_flash_ex.c ****   {
 304:Drivers/STM32C0xx_HAL_Driver/Src/stm32c0xx_hal_flash_ex.c ****     /* Only modify user so get current RDP level */
 305:Drivers/STM32C0xx_HAL_Driver/Src/stm32c0xx_hal_flash_ex.c ****     optr = FLASH_OB_GetRDP();
 306:Drivers/STM32C0xx_HAL_Driver/Src/stm32c0xx_hal_flash_ex.c ****     FLASH_OB_OptrConfig(pOBInit->USERType, pOBInit->USERConfig, optr);
 307:Drivers/STM32C0xx_HAL_Driver/Src/stm32c0xx_hal_flash_ex.c ****   }
 308:Drivers/STM32C0xx_HAL_Driver/Src/stm32c0xx_hal_flash_ex.c ****   else
 309:Drivers/STM32C0xx_HAL_Driver/Src/stm32c0xx_hal_flash_ex.c ****   {
 310:Drivers/STM32C0xx_HAL_Driver/Src/stm32c0xx_hal_flash_ex.c ****     /* nothing to do */
 311:Drivers/STM32C0xx_HAL_Driver/Src/stm32c0xx_hal_flash_ex.c ****   }
 312:Drivers/STM32C0xx_HAL_Driver/Src/stm32c0xx_hal_flash_ex.c **** 
 313:Drivers/STM32C0xx_HAL_Driver/Src/stm32c0xx_hal_flash_ex.c ****   /* PCROP Configuration */
 314:Drivers/STM32C0xx_HAL_Driver/Src/stm32c0xx_hal_flash_ex.c ****   if ((pOBInit->OptionType & OPTIONBYTE_PCROP) != 0x00U)
 315:Drivers/STM32C0xx_HAL_Driver/Src/stm32c0xx_hal_flash_ex.c ****   {
 316:Drivers/STM32C0xx_HAL_Driver/Src/stm32c0xx_hal_flash_ex.c ****     /* Check the parameters */
 317:Drivers/STM32C0xx_HAL_Driver/Src/stm32c0xx_hal_flash_ex.c ****     assert_param(IS_OB_PCROP_CONFIG(pOBInit->PCROPConfig));
 318:Drivers/STM32C0xx_HAL_Driver/Src/stm32c0xx_hal_flash_ex.c **** 
ARM GAS  C:\Users\Yasi\AppData\Local\Temp\ccPp3WL9.s 			page 7


 319:Drivers/STM32C0xx_HAL_Driver/Src/stm32c0xx_hal_flash_ex.c ****     if ((pOBInit->PCROPConfig & (OB_PCROP_ZONE_A | OB_PCROP_RDP_ERASE)) != 0x00U)
 320:Drivers/STM32C0xx_HAL_Driver/Src/stm32c0xx_hal_flash_ex.c ****     {
 321:Drivers/STM32C0xx_HAL_Driver/Src/stm32c0xx_hal_flash_ex.c ****       /* Configure the 1A Proprietary code readout protection */
 322:Drivers/STM32C0xx_HAL_Driver/Src/stm32c0xx_hal_flash_ex.c ****       FLASH_OB_PCROP1AConfig(pOBInit->PCROPConfig, pOBInit->PCROP1AStartAddr, pOBInit->PCROP1AEndAd
 323:Drivers/STM32C0xx_HAL_Driver/Src/stm32c0xx_hal_flash_ex.c ****     }
 324:Drivers/STM32C0xx_HAL_Driver/Src/stm32c0xx_hal_flash_ex.c **** 
 325:Drivers/STM32C0xx_HAL_Driver/Src/stm32c0xx_hal_flash_ex.c ****     if ((pOBInit->PCROPConfig & OB_PCROP_ZONE_B) != 0x00U)
 326:Drivers/STM32C0xx_HAL_Driver/Src/stm32c0xx_hal_flash_ex.c ****     {
 327:Drivers/STM32C0xx_HAL_Driver/Src/stm32c0xx_hal_flash_ex.c ****       /* Configure the 1B Proprietary code readout protection */
 328:Drivers/STM32C0xx_HAL_Driver/Src/stm32c0xx_hal_flash_ex.c ****       FLASH_OB_PCROP1BConfig(pOBInit->PCROP1BStartAddr, pOBInit->PCROP1BEndAddr);
 329:Drivers/STM32C0xx_HAL_Driver/Src/stm32c0xx_hal_flash_ex.c ****     }
 330:Drivers/STM32C0xx_HAL_Driver/Src/stm32c0xx_hal_flash_ex.c ****   }
 331:Drivers/STM32C0xx_HAL_Driver/Src/stm32c0xx_hal_flash_ex.c **** 
 332:Drivers/STM32C0xx_HAL_Driver/Src/stm32c0xx_hal_flash_ex.c ****   /* Securable Memory Area Configuration */
 333:Drivers/STM32C0xx_HAL_Driver/Src/stm32c0xx_hal_flash_ex.c ****   if ((pOBInit->OptionType & OPTIONBYTE_SEC) != 0x00U)
 334:Drivers/STM32C0xx_HAL_Driver/Src/stm32c0xx_hal_flash_ex.c ****   {
 335:Drivers/STM32C0xx_HAL_Driver/Src/stm32c0xx_hal_flash_ex.c ****     /* Configure the securable memory area protection */
 336:Drivers/STM32C0xx_HAL_Driver/Src/stm32c0xx_hal_flash_ex.c ****     FLASH_OB_SecMemConfig(pOBInit->BootEntryPoint, pOBInit->SecSize);
 337:Drivers/STM32C0xx_HAL_Driver/Src/stm32c0xx_hal_flash_ex.c ****   }
 338:Drivers/STM32C0xx_HAL_Driver/Src/stm32c0xx_hal_flash_ex.c **** 
 339:Drivers/STM32C0xx_HAL_Driver/Src/stm32c0xx_hal_flash_ex.c **** 
 340:Drivers/STM32C0xx_HAL_Driver/Src/stm32c0xx_hal_flash_ex.c ****   /* Wait for last operation to be completed */
 341:Drivers/STM32C0xx_HAL_Driver/Src/stm32c0xx_hal_flash_ex.c ****   status = FLASH_WaitForLastOperation(FLASH_TIMEOUT_VALUE);
 342:Drivers/STM32C0xx_HAL_Driver/Src/stm32c0xx_hal_flash_ex.c **** 
 343:Drivers/STM32C0xx_HAL_Driver/Src/stm32c0xx_hal_flash_ex.c ****   if (status == HAL_OK)
 344:Drivers/STM32C0xx_HAL_Driver/Src/stm32c0xx_hal_flash_ex.c ****   {
 345:Drivers/STM32C0xx_HAL_Driver/Src/stm32c0xx_hal_flash_ex.c ****     /* Set OPTSTRT Bit */
 346:Drivers/STM32C0xx_HAL_Driver/Src/stm32c0xx_hal_flash_ex.c ****     SET_BIT(FLASH->CR, FLASH_CR_OPTSTRT);
 347:Drivers/STM32C0xx_HAL_Driver/Src/stm32c0xx_hal_flash_ex.c **** 
 348:Drivers/STM32C0xx_HAL_Driver/Src/stm32c0xx_hal_flash_ex.c ****     /* Wait for last operation to be completed */
 349:Drivers/STM32C0xx_HAL_Driver/Src/stm32c0xx_hal_flash_ex.c ****     status = FLASH_WaitForLastOperation(FLASH_TIMEOUT_VALUE);
 350:Drivers/STM32C0xx_HAL_Driver/Src/stm32c0xx_hal_flash_ex.c **** 
 351:Drivers/STM32C0xx_HAL_Driver/Src/stm32c0xx_hal_flash_ex.c ****     /* If the option byte program operation is completed, disable the OPTSTRT Bit */
 352:Drivers/STM32C0xx_HAL_Driver/Src/stm32c0xx_hal_flash_ex.c ****     CLEAR_BIT(FLASH->CR, FLASH_CR_OPTSTRT);
 353:Drivers/STM32C0xx_HAL_Driver/Src/stm32c0xx_hal_flash_ex.c ****   }
 354:Drivers/STM32C0xx_HAL_Driver/Src/stm32c0xx_hal_flash_ex.c **** 
 355:Drivers/STM32C0xx_HAL_Driver/Src/stm32c0xx_hal_flash_ex.c ****   /* Process Unlocked */
 356:Drivers/STM32C0xx_HAL_Driver/Src/stm32c0xx_hal_flash_ex.c ****   __HAL_UNLOCK(&pFlash);
 357:Drivers/STM32C0xx_HAL_Driver/Src/stm32c0xx_hal_flash_ex.c **** 
 358:Drivers/STM32C0xx_HAL_Driver/Src/stm32c0xx_hal_flash_ex.c ****   /* return status */
 359:Drivers/STM32C0xx_HAL_Driver/Src/stm32c0xx_hal_flash_ex.c ****   return status;
 360:Drivers/STM32C0xx_HAL_Driver/Src/stm32c0xx_hal_flash_ex.c **** }
 361:Drivers/STM32C0xx_HAL_Driver/Src/stm32c0xx_hal_flash_ex.c **** 
 362:Drivers/STM32C0xx_HAL_Driver/Src/stm32c0xx_hal_flash_ex.c **** /**
 363:Drivers/STM32C0xx_HAL_Driver/Src/stm32c0xx_hal_flash_ex.c ****   * @brief  Get the Option bytes configuration.
 364:Drivers/STM32C0xx_HAL_Driver/Src/stm32c0xx_hal_flash_ex.c ****   * @note   warning: this API only read flash register, it does not reflect any
 365:Drivers/STM32C0xx_HAL_Driver/Src/stm32c0xx_hal_flash_ex.c ****   *         change that would have been programmed between previous Option byte
 366:Drivers/STM32C0xx_HAL_Driver/Src/stm32c0xx_hal_flash_ex.c ****   *         loading and current call.
 367:Drivers/STM32C0xx_HAL_Driver/Src/stm32c0xx_hal_flash_ex.c ****   * @param  pOBInit Pointer to an @ref FLASH_OBProgramInitTypeDef structure that contains the
 368:Drivers/STM32C0xx_HAL_Driver/Src/stm32c0xx_hal_flash_ex.c ****   *                  configuration information. The fields pOBInit->WRPArea and
 369:Drivers/STM32C0xx_HAL_Driver/Src/stm32c0xx_hal_flash_ex.c ****   *                  pOBInit->PCROPConfig should indicate which area is requested
 370:Drivers/STM32C0xx_HAL_Driver/Src/stm32c0xx_hal_flash_ex.c ****   *                  for the WRP and PCROP.
 371:Drivers/STM32C0xx_HAL_Driver/Src/stm32c0xx_hal_flash_ex.c ****   * @retval None
 372:Drivers/STM32C0xx_HAL_Driver/Src/stm32c0xx_hal_flash_ex.c ****   */
 373:Drivers/STM32C0xx_HAL_Driver/Src/stm32c0xx_hal_flash_ex.c **** void HAL_FLASHEx_OBGetConfig(FLASH_OBProgramInitTypeDef *pOBInit)
 374:Drivers/STM32C0xx_HAL_Driver/Src/stm32c0xx_hal_flash_ex.c **** {
 375:Drivers/STM32C0xx_HAL_Driver/Src/stm32c0xx_hal_flash_ex.c ****   pOBInit->OptionType = OPTIONBYTE_ALL;
ARM GAS  C:\Users\Yasi\AppData\Local\Temp\ccPp3WL9.s 			page 8


 376:Drivers/STM32C0xx_HAL_Driver/Src/stm32c0xx_hal_flash_ex.c **** 
 377:Drivers/STM32C0xx_HAL_Driver/Src/stm32c0xx_hal_flash_ex.c ****   /* Get write protection on the selected area */
 378:Drivers/STM32C0xx_HAL_Driver/Src/stm32c0xx_hal_flash_ex.c ****   FLASH_OB_GetWRP(pOBInit->WRPArea, &(pOBInit->WRPStartOffset), &(pOBInit->WRPEndOffset));
 379:Drivers/STM32C0xx_HAL_Driver/Src/stm32c0xx_hal_flash_ex.c **** 
 380:Drivers/STM32C0xx_HAL_Driver/Src/stm32c0xx_hal_flash_ex.c ****   /* Get Read protection level */
 381:Drivers/STM32C0xx_HAL_Driver/Src/stm32c0xx_hal_flash_ex.c ****   pOBInit->RDPLevel = FLASH_OB_GetRDP();
 382:Drivers/STM32C0xx_HAL_Driver/Src/stm32c0xx_hal_flash_ex.c **** 
 383:Drivers/STM32C0xx_HAL_Driver/Src/stm32c0xx_hal_flash_ex.c ****   /* Get the user option bytes */
 384:Drivers/STM32C0xx_HAL_Driver/Src/stm32c0xx_hal_flash_ex.c ****   pOBInit->USERConfig = FLASH_OB_GetUser();
 385:Drivers/STM32C0xx_HAL_Driver/Src/stm32c0xx_hal_flash_ex.c ****   pOBInit->USERType = OB_USER_ALL;
 386:Drivers/STM32C0xx_HAL_Driver/Src/stm32c0xx_hal_flash_ex.c **** 
 387:Drivers/STM32C0xx_HAL_Driver/Src/stm32c0xx_hal_flash_ex.c ****   /* Get the Proprietary code readout protection */
 388:Drivers/STM32C0xx_HAL_Driver/Src/stm32c0xx_hal_flash_ex.c ****   FLASH_OB_GetPCROP1A(&(pOBInit->PCROPConfig), &(pOBInit->PCROP1AStartAddr), &(pOBInit->PCROP1AEndA
 389:Drivers/STM32C0xx_HAL_Driver/Src/stm32c0xx_hal_flash_ex.c ****   FLASH_OB_GetPCROP1B(&(pOBInit->PCROP1BStartAddr), &(pOBInit->PCROP1BEndAddr));
 390:Drivers/STM32C0xx_HAL_Driver/Src/stm32c0xx_hal_flash_ex.c ****   pOBInit->PCROPConfig |= (OB_PCROP_ZONE_A | OB_PCROP_ZONE_B);
 391:Drivers/STM32C0xx_HAL_Driver/Src/stm32c0xx_hal_flash_ex.c **** 
 392:Drivers/STM32C0xx_HAL_Driver/Src/stm32c0xx_hal_flash_ex.c ****   /* Get the Securable Memory Area protection */
 393:Drivers/STM32C0xx_HAL_Driver/Src/stm32c0xx_hal_flash_ex.c ****   FLASH_OB_GetSecMem(&(pOBInit->BootEntryPoint), &(pOBInit->SecSize));
 394:Drivers/STM32C0xx_HAL_Driver/Src/stm32c0xx_hal_flash_ex.c **** }
 395:Drivers/STM32C0xx_HAL_Driver/Src/stm32c0xx_hal_flash_ex.c **** 
 396:Drivers/STM32C0xx_HAL_Driver/Src/stm32c0xx_hal_flash_ex.c **** /**
 397:Drivers/STM32C0xx_HAL_Driver/Src/stm32c0xx_hal_flash_ex.c ****   * @brief  Enable Debugger.
 398:Drivers/STM32C0xx_HAL_Driver/Src/stm32c0xx_hal_flash_ex.c ****   * @note   After calling this API, flash interface allow debugger intrusion.
 399:Drivers/STM32C0xx_HAL_Driver/Src/stm32c0xx_hal_flash_ex.c ****   * @retval None
 400:Drivers/STM32C0xx_HAL_Driver/Src/stm32c0xx_hal_flash_ex.c ****   */
 401:Drivers/STM32C0xx_HAL_Driver/Src/stm32c0xx_hal_flash_ex.c **** void HAL_FLASHEx_EnableDebugger(void)
 402:Drivers/STM32C0xx_HAL_Driver/Src/stm32c0xx_hal_flash_ex.c **** {
 403:Drivers/STM32C0xx_HAL_Driver/Src/stm32c0xx_hal_flash_ex.c ****   FLASH->ACR |= FLASH_ACR_DBG_SWEN;
 404:Drivers/STM32C0xx_HAL_Driver/Src/stm32c0xx_hal_flash_ex.c **** }
 405:Drivers/STM32C0xx_HAL_Driver/Src/stm32c0xx_hal_flash_ex.c **** 
 406:Drivers/STM32C0xx_HAL_Driver/Src/stm32c0xx_hal_flash_ex.c **** /**
 407:Drivers/STM32C0xx_HAL_Driver/Src/stm32c0xx_hal_flash_ex.c ****   * @brief  Disable Debugger.
 408:Drivers/STM32C0xx_HAL_Driver/Src/stm32c0xx_hal_flash_ex.c ****   * @note   After calling this API, Debugger is disabled: it is no more possible to
 409:Drivers/STM32C0xx_HAL_Driver/Src/stm32c0xx_hal_flash_ex.c ****   *         break, see CPU register, etc...
 410:Drivers/STM32C0xx_HAL_Driver/Src/stm32c0xx_hal_flash_ex.c ****   * @retval None
 411:Drivers/STM32C0xx_HAL_Driver/Src/stm32c0xx_hal_flash_ex.c ****   */
 412:Drivers/STM32C0xx_HAL_Driver/Src/stm32c0xx_hal_flash_ex.c **** void HAL_FLASHEx_DisableDebugger(void)
 413:Drivers/STM32C0xx_HAL_Driver/Src/stm32c0xx_hal_flash_ex.c **** {
 414:Drivers/STM32C0xx_HAL_Driver/Src/stm32c0xx_hal_flash_ex.c ****   FLASH->ACR &= ~FLASH_ACR_DBG_SWEN;
 415:Drivers/STM32C0xx_HAL_Driver/Src/stm32c0xx_hal_flash_ex.c **** }
 416:Drivers/STM32C0xx_HAL_Driver/Src/stm32c0xx_hal_flash_ex.c **** 
 417:Drivers/STM32C0xx_HAL_Driver/Src/stm32c0xx_hal_flash_ex.c **** /**
 418:Drivers/STM32C0xx_HAL_Driver/Src/stm32c0xx_hal_flash_ex.c ****   * @brief  Flash Empty check
 419:Drivers/STM32C0xx_HAL_Driver/Src/stm32c0xx_hal_flash_ex.c ****   * @note   This API checks if first location in Flash is programmed or not.
 420:Drivers/STM32C0xx_HAL_Driver/Src/stm32c0xx_hal_flash_ex.c ****   *         This check is done once by Option Byte Loader.
 421:Drivers/STM32C0xx_HAL_Driver/Src/stm32c0xx_hal_flash_ex.c ****   * @retval 0 if 1st location is not programmed else
 422:Drivers/STM32C0xx_HAL_Driver/Src/stm32c0xx_hal_flash_ex.c ****   */
 423:Drivers/STM32C0xx_HAL_Driver/Src/stm32c0xx_hal_flash_ex.c **** uint32_t HAL_FLASHEx_FlashEmptyCheck(void)
 424:Drivers/STM32C0xx_HAL_Driver/Src/stm32c0xx_hal_flash_ex.c **** {
 425:Drivers/STM32C0xx_HAL_Driver/Src/stm32c0xx_hal_flash_ex.c ****   return ((FLASH->ACR & FLASH_ACR_PROGEMPTY));
 426:Drivers/STM32C0xx_HAL_Driver/Src/stm32c0xx_hal_flash_ex.c **** }
 427:Drivers/STM32C0xx_HAL_Driver/Src/stm32c0xx_hal_flash_ex.c **** 
 428:Drivers/STM32C0xx_HAL_Driver/Src/stm32c0xx_hal_flash_ex.c **** 
 429:Drivers/STM32C0xx_HAL_Driver/Src/stm32c0xx_hal_flash_ex.c **** /**
 430:Drivers/STM32C0xx_HAL_Driver/Src/stm32c0xx_hal_flash_ex.c ****   * @brief  Force Empty check value.
 431:Drivers/STM32C0xx_HAL_Driver/Src/stm32c0xx_hal_flash_ex.c ****   * @note   Allows to modify program empty check value in order to force this
 432:Drivers/STM32C0xx_HAL_Driver/Src/stm32c0xx_hal_flash_ex.c ****   *         infrmation in Flash Interface, for all next reset that do not launch
ARM GAS  C:\Users\Yasi\AppData\Local\Temp\ccPp3WL9.s 			page 9


 433:Drivers/STM32C0xx_HAL_Driver/Src/stm32c0xx_hal_flash_ex.c ****   *         Option Byte Loader.
 434:Drivers/STM32C0xx_HAL_Driver/Src/stm32c0xx_hal_flash_ex.c ****   * @param  FlashEmpty this parameter can be a value of @ref FLASHEx_Empty_Check
 435:Drivers/STM32C0xx_HAL_Driver/Src/stm32c0xx_hal_flash_ex.c ****   * @retval None
 436:Drivers/STM32C0xx_HAL_Driver/Src/stm32c0xx_hal_flash_ex.c ****   */
 437:Drivers/STM32C0xx_HAL_Driver/Src/stm32c0xx_hal_flash_ex.c **** void HAL_FLASHEx_ForceFlashEmpty(uint32_t FlashEmpty)
 438:Drivers/STM32C0xx_HAL_Driver/Src/stm32c0xx_hal_flash_ex.c **** {
 439:Drivers/STM32C0xx_HAL_Driver/Src/stm32c0xx_hal_flash_ex.c ****   uint32_t acr;
 440:Drivers/STM32C0xx_HAL_Driver/Src/stm32c0xx_hal_flash_ex.c ****   assert_param(IS_FLASH_EMPTY_CHECK(FlashEmpty));
 441:Drivers/STM32C0xx_HAL_Driver/Src/stm32c0xx_hal_flash_ex.c **** 
 442:Drivers/STM32C0xx_HAL_Driver/Src/stm32c0xx_hal_flash_ex.c ****   acr = (FLASH->ACR & ~FLASH_ACR_PROGEMPTY);
 443:Drivers/STM32C0xx_HAL_Driver/Src/stm32c0xx_hal_flash_ex.c ****   FLASH->ACR = (acr | FlashEmpty);
 444:Drivers/STM32C0xx_HAL_Driver/Src/stm32c0xx_hal_flash_ex.c **** }
 445:Drivers/STM32C0xx_HAL_Driver/Src/stm32c0xx_hal_flash_ex.c **** 
 446:Drivers/STM32C0xx_HAL_Driver/Src/stm32c0xx_hal_flash_ex.c **** /**
 447:Drivers/STM32C0xx_HAL_Driver/Src/stm32c0xx_hal_flash_ex.c ****   * @brief  Securable memory area protection enable
 448:Drivers/STM32C0xx_HAL_Driver/Src/stm32c0xx_hal_flash_ex.c ****   * @param  Bank Select Bank to be secured. On C0, there is only 1 bank so
 449:Drivers/STM32C0xx_HAL_Driver/Src/stm32c0xx_hal_flash_ex.c ****   *         parameter has to be set to 0.
 450:Drivers/STM32C0xx_HAL_Driver/Src/stm32c0xx_hal_flash_ex.c ****   * @note   This API locks Securable memory area which is defined in SEC_SIZE option byte
 451:Drivers/STM32C0xx_HAL_Driver/Src/stm32c0xx_hal_flash_ex.c ****   *         (that can be retrieved calling HAL_FLASHEx_OBGetConfig API and checking
 452:Drivers/STM32C0xx_HAL_Driver/Src/stm32c0xx_hal_flash_ex.c ****   *         Secsize).
 453:Drivers/STM32C0xx_HAL_Driver/Src/stm32c0xx_hal_flash_ex.c ****   * @note   SEC_PROT bit can only be set, it will be reset by system reset.
 454:Drivers/STM32C0xx_HAL_Driver/Src/stm32c0xx_hal_flash_ex.c ****   * @retval None
 455:Drivers/STM32C0xx_HAL_Driver/Src/stm32c0xx_hal_flash_ex.c ****   */
 456:Drivers/STM32C0xx_HAL_Driver/Src/stm32c0xx_hal_flash_ex.c **** void HAL_FLASHEx_EnableSecMemProtection(uint32_t Bank)
 457:Drivers/STM32C0xx_HAL_Driver/Src/stm32c0xx_hal_flash_ex.c **** {
 458:Drivers/STM32C0xx_HAL_Driver/Src/stm32c0xx_hal_flash_ex.c ****   assert_param(IS_FLASH_BANK(Bank));
 459:Drivers/STM32C0xx_HAL_Driver/Src/stm32c0xx_hal_flash_ex.c ****   FLASH->CR |= FLASH_CR_SEC_PROT;
 460:Drivers/STM32C0xx_HAL_Driver/Src/stm32c0xx_hal_flash_ex.c **** }
 461:Drivers/STM32C0xx_HAL_Driver/Src/stm32c0xx_hal_flash_ex.c **** 
 462:Drivers/STM32C0xx_HAL_Driver/Src/stm32c0xx_hal_flash_ex.c **** /**
 463:Drivers/STM32C0xx_HAL_Driver/Src/stm32c0xx_hal_flash_ex.c ****   * @}
 464:Drivers/STM32C0xx_HAL_Driver/Src/stm32c0xx_hal_flash_ex.c ****   */
 465:Drivers/STM32C0xx_HAL_Driver/Src/stm32c0xx_hal_flash_ex.c **** 
 466:Drivers/STM32C0xx_HAL_Driver/Src/stm32c0xx_hal_flash_ex.c **** /**
 467:Drivers/STM32C0xx_HAL_Driver/Src/stm32c0xx_hal_flash_ex.c ****   * @}
 468:Drivers/STM32C0xx_HAL_Driver/Src/stm32c0xx_hal_flash_ex.c ****   */
 469:Drivers/STM32C0xx_HAL_Driver/Src/stm32c0xx_hal_flash_ex.c **** 
 470:Drivers/STM32C0xx_HAL_Driver/Src/stm32c0xx_hal_flash_ex.c **** /* Private functions ---------------------------------------------------------*/
 471:Drivers/STM32C0xx_HAL_Driver/Src/stm32c0xx_hal_flash_ex.c **** /** @addtogroup FLASHEx_Private_Functions
 472:Drivers/STM32C0xx_HAL_Driver/Src/stm32c0xx_hal_flash_ex.c ****   * @{
 473:Drivers/STM32C0xx_HAL_Driver/Src/stm32c0xx_hal_flash_ex.c ****   */
 474:Drivers/STM32C0xx_HAL_Driver/Src/stm32c0xx_hal_flash_ex.c **** 
 475:Drivers/STM32C0xx_HAL_Driver/Src/stm32c0xx_hal_flash_ex.c **** /**
 476:Drivers/STM32C0xx_HAL_Driver/Src/stm32c0xx_hal_flash_ex.c ****   * @brief  Mass erase of FLASH memory.
 477:Drivers/STM32C0xx_HAL_Driver/Src/stm32c0xx_hal_flash_ex.c ****   * @retval None
 478:Drivers/STM32C0xx_HAL_Driver/Src/stm32c0xx_hal_flash_ex.c ****   */
 479:Drivers/STM32C0xx_HAL_Driver/Src/stm32c0xx_hal_flash_ex.c **** static void FLASH_MassErase(void)
 480:Drivers/STM32C0xx_HAL_Driver/Src/stm32c0xx_hal_flash_ex.c **** {
  26              		.loc 1 480 1 view -0
  27              		.cfi_startproc
  28              		@ args = 0, pretend = 0, frame = 0
  29              		@ frame_needed = 0, uses_anonymous_args = 0
  30              		@ link register save eliminated.
 481:Drivers/STM32C0xx_HAL_Driver/Src/stm32c0xx_hal_flash_ex.c ****   /* Set the Mass Erase Bit and start bit */
 482:Drivers/STM32C0xx_HAL_Driver/Src/stm32c0xx_hal_flash_ex.c ****   FLASH->CR |= (FLASH_CR_STRT | FLASH_CR_MER1);
  31              		.loc 1 482 3 view .LVU1
  32              		.loc 1 482 8 is_stmt 0 view .LVU2
ARM GAS  C:\Users\Yasi\AppData\Local\Temp\ccPp3WL9.s 			page 10


  33 0000 024A     		ldr	r2, .L2
  34 0002 5169     		ldr	r1, [r2, #20]
  35              		.loc 1 482 13 view .LVU3
  36 0004 024B     		ldr	r3, .L2+4
  37 0006 0B43     		orrs	r3, r1
  38 0008 5361     		str	r3, [r2, #20]
 483:Drivers/STM32C0xx_HAL_Driver/Src/stm32c0xx_hal_flash_ex.c **** }
  39              		.loc 1 483 1 view .LVU4
  40              		@ sp needed
  41 000a 7047     		bx	lr
  42              	.L3:
  43              		.align	2
  44              	.L2:
  45 000c 00200240 		.word	1073881088
  46 0010 04000100 		.word	65540
  47              		.cfi_endproc
  48              	.LFE223:
  50              		.section	.text.FLASH_OB_WRPConfig,"ax",%progbits
  51              		.align	1
  52              		.syntax unified
  53              		.code	16
  54              		.thumb_func
  56              	FLASH_OB_WRPConfig:
  57              	.LVL0:
  58              	.LFB226:
 484:Drivers/STM32C0xx_HAL_Driver/Src/stm32c0xx_hal_flash_ex.c **** 
 485:Drivers/STM32C0xx_HAL_Driver/Src/stm32c0xx_hal_flash_ex.c **** /**
 486:Drivers/STM32C0xx_HAL_Driver/Src/stm32c0xx_hal_flash_ex.c ****   * @brief  Erase the specified FLASH memory page.
 487:Drivers/STM32C0xx_HAL_Driver/Src/stm32c0xx_hal_flash_ex.c ****   * @param  Page FLASH page to erase
 488:Drivers/STM32C0xx_HAL_Driver/Src/stm32c0xx_hal_flash_ex.c ****   *         This parameter must be a value between 0 and (max number of pages in Flash - 1)
 489:Drivers/STM32C0xx_HAL_Driver/Src/stm32c0xx_hal_flash_ex.c ****   * @retval None
 490:Drivers/STM32C0xx_HAL_Driver/Src/stm32c0xx_hal_flash_ex.c ****   */
 491:Drivers/STM32C0xx_HAL_Driver/Src/stm32c0xx_hal_flash_ex.c **** void FLASH_PageErase(uint32_t Page)
 492:Drivers/STM32C0xx_HAL_Driver/Src/stm32c0xx_hal_flash_ex.c **** {
 493:Drivers/STM32C0xx_HAL_Driver/Src/stm32c0xx_hal_flash_ex.c ****   uint32_t tmp;
 494:Drivers/STM32C0xx_HAL_Driver/Src/stm32c0xx_hal_flash_ex.c **** 
 495:Drivers/STM32C0xx_HAL_Driver/Src/stm32c0xx_hal_flash_ex.c ****   /* Check the parameters */
 496:Drivers/STM32C0xx_HAL_Driver/Src/stm32c0xx_hal_flash_ex.c ****   assert_param(IS_FLASH_PAGE(Page));
 497:Drivers/STM32C0xx_HAL_Driver/Src/stm32c0xx_hal_flash_ex.c **** 
 498:Drivers/STM32C0xx_HAL_Driver/Src/stm32c0xx_hal_flash_ex.c ****   /* Get configuration register, then clear page number */
 499:Drivers/STM32C0xx_HAL_Driver/Src/stm32c0xx_hal_flash_ex.c ****   tmp = (FLASH->CR & ~FLASH_CR_PNB);
 500:Drivers/STM32C0xx_HAL_Driver/Src/stm32c0xx_hal_flash_ex.c **** 
 501:Drivers/STM32C0xx_HAL_Driver/Src/stm32c0xx_hal_flash_ex.c ****   /* Set page number, Page Erase bit & Start bit */
 502:Drivers/STM32C0xx_HAL_Driver/Src/stm32c0xx_hal_flash_ex.c ****   FLASH->CR = (tmp | (FLASH_CR_STRT | (Page <<  FLASH_CR_PNB_Pos) | FLASH_CR_PER));
 503:Drivers/STM32C0xx_HAL_Driver/Src/stm32c0xx_hal_flash_ex.c **** }
 504:Drivers/STM32C0xx_HAL_Driver/Src/stm32c0xx_hal_flash_ex.c **** 
 505:Drivers/STM32C0xx_HAL_Driver/Src/stm32c0xx_hal_flash_ex.c **** /**
 506:Drivers/STM32C0xx_HAL_Driver/Src/stm32c0xx_hal_flash_ex.c ****   * @brief  Flush the instruction cache.
 507:Drivers/STM32C0xx_HAL_Driver/Src/stm32c0xx_hal_flash_ex.c ****   * @retval None
 508:Drivers/STM32C0xx_HAL_Driver/Src/stm32c0xx_hal_flash_ex.c ****   */
 509:Drivers/STM32C0xx_HAL_Driver/Src/stm32c0xx_hal_flash_ex.c **** void FLASH_FlushCaches(void)
 510:Drivers/STM32C0xx_HAL_Driver/Src/stm32c0xx_hal_flash_ex.c **** {
 511:Drivers/STM32C0xx_HAL_Driver/Src/stm32c0xx_hal_flash_ex.c ****   /* Flush instruction cache  */
 512:Drivers/STM32C0xx_HAL_Driver/Src/stm32c0xx_hal_flash_ex.c ****   if (READ_BIT(FLASH->ACR, FLASH_ACR_ICEN) != 0U)
 513:Drivers/STM32C0xx_HAL_Driver/Src/stm32c0xx_hal_flash_ex.c ****   {
 514:Drivers/STM32C0xx_HAL_Driver/Src/stm32c0xx_hal_flash_ex.c ****     /* Disable instruction cache  */
 515:Drivers/STM32C0xx_HAL_Driver/Src/stm32c0xx_hal_flash_ex.c ****     __HAL_FLASH_INSTRUCTION_CACHE_DISABLE();
ARM GAS  C:\Users\Yasi\AppData\Local\Temp\ccPp3WL9.s 			page 11


 516:Drivers/STM32C0xx_HAL_Driver/Src/stm32c0xx_hal_flash_ex.c ****     /* Reset instruction cache */
 517:Drivers/STM32C0xx_HAL_Driver/Src/stm32c0xx_hal_flash_ex.c ****     __HAL_FLASH_INSTRUCTION_CACHE_RESET();
 518:Drivers/STM32C0xx_HAL_Driver/Src/stm32c0xx_hal_flash_ex.c ****     /* Enable instruction cache */
 519:Drivers/STM32C0xx_HAL_Driver/Src/stm32c0xx_hal_flash_ex.c ****     __HAL_FLASH_INSTRUCTION_CACHE_ENABLE();
 520:Drivers/STM32C0xx_HAL_Driver/Src/stm32c0xx_hal_flash_ex.c ****   }
 521:Drivers/STM32C0xx_HAL_Driver/Src/stm32c0xx_hal_flash_ex.c **** }
 522:Drivers/STM32C0xx_HAL_Driver/Src/stm32c0xx_hal_flash_ex.c **** 
 523:Drivers/STM32C0xx_HAL_Driver/Src/stm32c0xx_hal_flash_ex.c **** 
 524:Drivers/STM32C0xx_HAL_Driver/Src/stm32c0xx_hal_flash_ex.c **** /**
 525:Drivers/STM32C0xx_HAL_Driver/Src/stm32c0xx_hal_flash_ex.c ****   * @brief  Configure the write protection of the desired pages.
 526:Drivers/STM32C0xx_HAL_Driver/Src/stm32c0xx_hal_flash_ex.c ****   * @note   When WRP is active in a zone, it cannot be erased or programmed.
 527:Drivers/STM32C0xx_HAL_Driver/Src/stm32c0xx_hal_flash_ex.c ****   *         Consequently, a software mass erase cannot be performed if one zone
 528:Drivers/STM32C0xx_HAL_Driver/Src/stm32c0xx_hal_flash_ex.c ****   *         is write-protected.
 529:Drivers/STM32C0xx_HAL_Driver/Src/stm32c0xx_hal_flash_ex.c ****   * @note   When the memory read protection level is selected (RDP level = 1),
 530:Drivers/STM32C0xx_HAL_Driver/Src/stm32c0xx_hal_flash_ex.c ****   *         it is not possible to program or erase Flash memory if the CPU debug
 531:Drivers/STM32C0xx_HAL_Driver/Src/stm32c0xx_hal_flash_ex.c ****   *         features are connected (JTAG or single wire) or boot code is being
 532:Drivers/STM32C0xx_HAL_Driver/Src/stm32c0xx_hal_flash_ex.c ****   *         executed from RAM or System flash, even if WRP is not activated.
 533:Drivers/STM32C0xx_HAL_Driver/Src/stm32c0xx_hal_flash_ex.c ****   * @param  WRPArea  Specifies the area to be configured.
 534:Drivers/STM32C0xx_HAL_Driver/Src/stm32c0xx_hal_flash_ex.c ****   *         This parameter can be one of the following values:
 535:Drivers/STM32C0xx_HAL_Driver/Src/stm32c0xx_hal_flash_ex.c ****   *            @arg  @ref OB_WRPAREA_ZONE_A Flash Zone A
 536:Drivers/STM32C0xx_HAL_Driver/Src/stm32c0xx_hal_flash_ex.c ****   *            @arg  @ref OB_WRPAREA_ZONE_B Flash Zone B
 537:Drivers/STM32C0xx_HAL_Driver/Src/stm32c0xx_hal_flash_ex.c ****   * @param  WRPStartOffset  Specifies the start page of the write protected area
 538:Drivers/STM32C0xx_HAL_Driver/Src/stm32c0xx_hal_flash_ex.c ****   *         This parameter can be page number between 0 and (max number of pages in the Flash - 1)
 539:Drivers/STM32C0xx_HAL_Driver/Src/stm32c0xx_hal_flash_ex.c ****   * @param  WRDPEndOffset  Specifies the end page of the write protected area
 540:Drivers/STM32C0xx_HAL_Driver/Src/stm32c0xx_hal_flash_ex.c ****   *         This parameter can be page number between WRPStartOffset and (max number of pages in th
 541:Drivers/STM32C0xx_HAL_Driver/Src/stm32c0xx_hal_flash_ex.c ****   * @retval None
 542:Drivers/STM32C0xx_HAL_Driver/Src/stm32c0xx_hal_flash_ex.c ****   */
 543:Drivers/STM32C0xx_HAL_Driver/Src/stm32c0xx_hal_flash_ex.c **** static void FLASH_OB_WRPConfig(uint32_t WRPArea, uint32_t WRPStartOffset, uint32_t WRDPEndOffset)
 544:Drivers/STM32C0xx_HAL_Driver/Src/stm32c0xx_hal_flash_ex.c **** {
  59              		.loc 1 544 1 is_stmt 1 view -0
  60              		.cfi_startproc
  61              		@ args = 0, pretend = 0, frame = 0
  62              		@ frame_needed = 0, uses_anonymous_args = 0
  63              		@ link register save eliminated.
 545:Drivers/STM32C0xx_HAL_Driver/Src/stm32c0xx_hal_flash_ex.c ****   /* Check the parameters */
 546:Drivers/STM32C0xx_HAL_Driver/Src/stm32c0xx_hal_flash_ex.c ****   assert_param(IS_OB_WRPAREA(WRPArea));
  64              		.loc 1 546 3 view .LVU6
 547:Drivers/STM32C0xx_HAL_Driver/Src/stm32c0xx_hal_flash_ex.c ****   assert_param(IS_FLASH_PAGE(WRPStartOffset));
  65              		.loc 1 547 3 view .LVU7
 548:Drivers/STM32C0xx_HAL_Driver/Src/stm32c0xx_hal_flash_ex.c ****   assert_param(IS_FLASH_PAGE(WRDPEndOffset));
  66              		.loc 1 548 3 view .LVU8
 549:Drivers/STM32C0xx_HAL_Driver/Src/stm32c0xx_hal_flash_ex.c **** 
 550:Drivers/STM32C0xx_HAL_Driver/Src/stm32c0xx_hal_flash_ex.c ****   /* Configure the write protected area */
 551:Drivers/STM32C0xx_HAL_Driver/Src/stm32c0xx_hal_flash_ex.c ****   if (WRPArea != OB_WRPAREA_ZONE_A)
  67              		.loc 1 551 3 view .LVU9
  68              		.loc 1 551 6 is_stmt 0 view .LVU10
  69 0000 0128     		cmp	r0, #1
  70 0002 04D0     		beq	.L5
 552:Drivers/STM32C0xx_HAL_Driver/Src/stm32c0xx_hal_flash_ex.c ****   {
 553:Drivers/STM32C0xx_HAL_Driver/Src/stm32c0xx_hal_flash_ex.c ****     FLASH->WRP1BR = ((WRDPEndOffset << FLASH_WRP1AR_WRP1A_END_Pos) | WRPStartOffset);
  71              		.loc 1 553 5 is_stmt 1 view .LVU11
  72              		.loc 1 553 37 is_stmt 0 view .LVU12
  73 0004 1204     		lsls	r2, r2, #16
  74              	.LVL1:
  75              		.loc 1 553 68 view .LVU13
  76 0006 0A43     		orrs	r2, r1
  77              		.loc 1 553 19 view .LVU14
ARM GAS  C:\Users\Yasi\AppData\Local\Temp\ccPp3WL9.s 			page 12


  78 0008 034B     		ldr	r3, .L7
  79 000a 1A63     		str	r2, [r3, #48]
  80              	.L4:
 554:Drivers/STM32C0xx_HAL_Driver/Src/stm32c0xx_hal_flash_ex.c ****   }
 555:Drivers/STM32C0xx_HAL_Driver/Src/stm32c0xx_hal_flash_ex.c ****   else
 556:Drivers/STM32C0xx_HAL_Driver/Src/stm32c0xx_hal_flash_ex.c ****   {
 557:Drivers/STM32C0xx_HAL_Driver/Src/stm32c0xx_hal_flash_ex.c ****     FLASH->WRP1AR = ((WRDPEndOffset << FLASH_WRP1BR_WRP1B_END_Pos) | WRPStartOffset);
 558:Drivers/STM32C0xx_HAL_Driver/Src/stm32c0xx_hal_flash_ex.c ****   }
 559:Drivers/STM32C0xx_HAL_Driver/Src/stm32c0xx_hal_flash_ex.c **** }
  81              		.loc 1 559 1 view .LVU15
  82              		@ sp needed
  83 000c 7047     		bx	lr
  84              	.LVL2:
  85              	.L5:
 557:Drivers/STM32C0xx_HAL_Driver/Src/stm32c0xx_hal_flash_ex.c ****   }
  86              		.loc 1 557 5 is_stmt 1 view .LVU16
 557:Drivers/STM32C0xx_HAL_Driver/Src/stm32c0xx_hal_flash_ex.c ****   }
  87              		.loc 1 557 37 is_stmt 0 view .LVU17
  88 000e 1204     		lsls	r2, r2, #16
  89              	.LVL3:
 557:Drivers/STM32C0xx_HAL_Driver/Src/stm32c0xx_hal_flash_ex.c ****   }
  90              		.loc 1 557 68 view .LVU18
  91 0010 0A43     		orrs	r2, r1
 557:Drivers/STM32C0xx_HAL_Driver/Src/stm32c0xx_hal_flash_ex.c ****   }
  92              		.loc 1 557 19 view .LVU19
  93 0012 014B     		ldr	r3, .L7
  94 0014 DA62     		str	r2, [r3, #44]
  95              		.loc 1 559 1 view .LVU20
  96 0016 F9E7     		b	.L4
  97              	.L8:
  98              		.align	2
  99              	.L7:
 100 0018 00200240 		.word	1073881088
 101              		.cfi_endproc
 102              	.LFE226:
 104              		.section	.text.FLASH_OB_OptrConfig,"ax",%progbits
 105              		.align	1
 106              		.syntax unified
 107              		.code	16
 108              		.thumb_func
 110              	FLASH_OB_OptrConfig:
 111              	.LVL4:
 112              	.LFB227:
 560:Drivers/STM32C0xx_HAL_Driver/Src/stm32c0xx_hal_flash_ex.c **** 
 561:Drivers/STM32C0xx_HAL_Driver/Src/stm32c0xx_hal_flash_ex.c **** /**
 562:Drivers/STM32C0xx_HAL_Driver/Src/stm32c0xx_hal_flash_ex.c ****   * @brief  Set user & RDP configuration
 563:Drivers/STM32C0xx_HAL_Driver/Src/stm32c0xx_hal_flash_ex.c ****   * @note   !!! Warning : When enabling OB_RDP level 2 it is no more possible
 564:Drivers/STM32C0xx_HAL_Driver/Src/stm32c0xx_hal_flash_ex.c ****   *         to go back to level 1 or 0 !!!
 565:Drivers/STM32C0xx_HAL_Driver/Src/stm32c0xx_hal_flash_ex.c ****   * @param  UserType  The FLASH User Option Bytes to be modified.
 566:Drivers/STM32C0xx_HAL_Driver/Src/stm32c0xx_hal_flash_ex.c ****   *         This parameter can be a combination of @ref FLASH_OB_USER_Type
 567:Drivers/STM32C0xx_HAL_Driver/Src/stm32c0xx_hal_flash_ex.c ****   * @param  UserConfig  The FLASH User Option Bytes values.
 568:Drivers/STM32C0xx_HAL_Driver/Src/stm32c0xx_hal_flash_ex.c ****   *         This parameter can be a combination of:
 569:Drivers/STM32C0xx_HAL_Driver/Src/stm32c0xx_hal_flash_ex.c ****   *         @arg @ref FLASH_OB_USER_BOR_ENABLE,
 570:Drivers/STM32C0xx_HAL_Driver/Src/stm32c0xx_hal_flash_ex.c ****   *         @arg @ref FLASH_OB_USER_BOR_LEVEL,
 571:Drivers/STM32C0xx_HAL_Driver/Src/stm32c0xx_hal_flash_ex.c ****   *         @arg @ref FLASH_OB_USER_nRST_STOP,
 572:Drivers/STM32C0xx_HAL_Driver/Src/stm32c0xx_hal_flash_ex.c ****   *         @arg @ref FLASH_OB_USER_nRST_STANDBY,
 573:Drivers/STM32C0xx_HAL_Driver/Src/stm32c0xx_hal_flash_ex.c ****   *         @arg @ref FLASH_OB_USER_nRST_SHUTDOWN,
ARM GAS  C:\Users\Yasi\AppData\Local\Temp\ccPp3WL9.s 			page 13


 574:Drivers/STM32C0xx_HAL_Driver/Src/stm32c0xx_hal_flash_ex.c ****   *         @arg @ref FLASH_OB_USER_IWDG_SW,
 575:Drivers/STM32C0xx_HAL_Driver/Src/stm32c0xx_hal_flash_ex.c ****   *         @arg @ref FLASH_OB_USER_IWDG_STOP,
 576:Drivers/STM32C0xx_HAL_Driver/Src/stm32c0xx_hal_flash_ex.c ****   *         @arg @ref FLASH_OB_USER_IWDG_STANDBY,
 577:Drivers/STM32C0xx_HAL_Driver/Src/stm32c0xx_hal_flash_ex.c ****   *         @arg @ref FLASH_OB_USER_WWDG_SW,
 578:Drivers/STM32C0xx_HAL_Driver/Src/stm32c0xx_hal_flash_ex.c ****   *         @arg @ref FLASH_OB_USER_SRAM_PARITY,
 579:Drivers/STM32C0xx_HAL_Driver/Src/stm32c0xx_hal_flash_ex.c ****   *         @arg @ref FLASH_OB_USER_nBOOT_SEL,
 580:Drivers/STM32C0xx_HAL_Driver/Src/stm32c0xx_hal_flash_ex.c ****   *         @arg @ref FLASH_OB_USER_nBOOT1,
 581:Drivers/STM32C0xx_HAL_Driver/Src/stm32c0xx_hal_flash_ex.c ****   *         @arg @ref FLASH_OB_USER_nBOOT0,
 582:Drivers/STM32C0xx_HAL_Driver/Src/stm32c0xx_hal_flash_ex.c ****   *         @arg @ref FLASH_OB_USER_INPUT_RESET_HOLDER
 583:Drivers/STM32C0xx_HAL_Driver/Src/stm32c0xx_hal_flash_ex.c ****   * @param  RDPLevel  specifies the read protection level.
 584:Drivers/STM32C0xx_HAL_Driver/Src/stm32c0xx_hal_flash_ex.c ****   *         This parameter can be one of the following values:
 585:Drivers/STM32C0xx_HAL_Driver/Src/stm32c0xx_hal_flash_ex.c ****   *            @arg @ref OB_RDP_LEVEL_0 No protection
 586:Drivers/STM32C0xx_HAL_Driver/Src/stm32c0xx_hal_flash_ex.c ****   *            @arg @ref OB_RDP_LEVEL_1 Memory Read protection
 587:Drivers/STM32C0xx_HAL_Driver/Src/stm32c0xx_hal_flash_ex.c ****   *            @arg @ref OB_RDP_LEVEL_2 Full chip protection
 588:Drivers/STM32C0xx_HAL_Driver/Src/stm32c0xx_hal_flash_ex.c ****   * @retval None
 589:Drivers/STM32C0xx_HAL_Driver/Src/stm32c0xx_hal_flash_ex.c ****   */
 590:Drivers/STM32C0xx_HAL_Driver/Src/stm32c0xx_hal_flash_ex.c **** static void FLASH_OB_OptrConfig(uint32_t UserType, uint32_t UserConfig, uint32_t RDPLevel)
 591:Drivers/STM32C0xx_HAL_Driver/Src/stm32c0xx_hal_flash_ex.c **** {
 113              		.loc 1 591 1 is_stmt 1 view -0
 114              		.cfi_startproc
 115              		@ args = 0, pretend = 0, frame = 0
 116              		@ frame_needed = 0, uses_anonymous_args = 0
 117              		.loc 1 591 1 is_stmt 0 view .LVU22
 118 0000 30B5     		push	{r4, r5, lr}
 119              	.LCFI0:
 120              		.cfi_def_cfa_offset 12
 121              		.cfi_offset 4, -12
 122              		.cfi_offset 5, -8
 123              		.cfi_offset 14, -4
 592:Drivers/STM32C0xx_HAL_Driver/Src/stm32c0xx_hal_flash_ex.c ****   uint32_t optr;
 124              		.loc 1 592 3 is_stmt 1 view .LVU23
 593:Drivers/STM32C0xx_HAL_Driver/Src/stm32c0xx_hal_flash_ex.c **** 
 594:Drivers/STM32C0xx_HAL_Driver/Src/stm32c0xx_hal_flash_ex.c ****   /* Check the parameters */
 595:Drivers/STM32C0xx_HAL_Driver/Src/stm32c0xx_hal_flash_ex.c ****   assert_param(IS_OB_USER_TYPE(UserType));
 125              		.loc 1 595 3 view .LVU24
 596:Drivers/STM32C0xx_HAL_Driver/Src/stm32c0xx_hal_flash_ex.c ****   assert_param(IS_OB_USER_CONFIG(UserType, UserConfig));
 126              		.loc 1 596 3 view .LVU25
 597:Drivers/STM32C0xx_HAL_Driver/Src/stm32c0xx_hal_flash_ex.c ****   assert_param(IS_OB_RDP_LEVEL(RDPLevel));
 127              		.loc 1 597 3 view .LVU26
 598:Drivers/STM32C0xx_HAL_Driver/Src/stm32c0xx_hal_flash_ex.c **** 
 599:Drivers/STM32C0xx_HAL_Driver/Src/stm32c0xx_hal_flash_ex.c ****   /* Configure the RDP level in the option bytes register */
 600:Drivers/STM32C0xx_HAL_Driver/Src/stm32c0xx_hal_flash_ex.c ****   optr = FLASH->OPTR;
 128              		.loc 1 600 3 view .LVU27
 129              		.loc 1 600 8 is_stmt 0 view .LVU28
 130 0002 044C     		ldr	r4, .L10
 131 0004 236A     		ldr	r3, [r4, #32]
 132              	.LVL5:
 601:Drivers/STM32C0xx_HAL_Driver/Src/stm32c0xx_hal_flash_ex.c ****   optr &= ~(UserType | FLASH_OPTR_RDP);
 133              		.loc 1 601 3 is_stmt 1 view .LVU29
 134              		.loc 1 601 22 is_stmt 0 view .LVU30
 135 0006 FF25     		movs	r5, #255
 136 0008 2843     		orrs	r0, r5
 137              	.LVL6:
 138              		.loc 1 601 8 view .LVU31
 139 000a 8343     		bics	r3, r0
 140              	.LVL7:
 602:Drivers/STM32C0xx_HAL_Driver/Src/stm32c0xx_hal_flash_ex.c ****   FLASH->OPTR = (optr | UserConfig | RDPLevel);
ARM GAS  C:\Users\Yasi\AppData\Local\Temp\ccPp3WL9.s 			page 14


 141              		.loc 1 602 3 is_stmt 1 view .LVU32
 142              		.loc 1 602 23 is_stmt 0 view .LVU33
 143 000c 0B43     		orrs	r3, r1
 144              	.LVL8:
 145              		.loc 1 602 36 view .LVU34
 146 000e 1343     		orrs	r3, r2
 147              		.loc 1 602 15 view .LVU35
 148 0010 2362     		str	r3, [r4, #32]
 603:Drivers/STM32C0xx_HAL_Driver/Src/stm32c0xx_hal_flash_ex.c **** }
 149              		.loc 1 603 1 view .LVU36
 150              		@ sp needed
 151 0012 30BD     		pop	{r4, r5, pc}
 152              	.L11:
 153              		.align	2
 154              	.L10:
 155 0014 00200240 		.word	1073881088
 156              		.cfi_endproc
 157              	.LFE227:
 159              		.section	.text.FLASH_OB_PCROP1AConfig,"ax",%progbits
 160              		.align	1
 161              		.syntax unified
 162              		.code	16
 163              		.thumb_func
 165              	FLASH_OB_PCROP1AConfig:
 166              	.LVL9:
 167              	.LFB228:
 604:Drivers/STM32C0xx_HAL_Driver/Src/stm32c0xx_hal_flash_ex.c **** 
 605:Drivers/STM32C0xx_HAL_Driver/Src/stm32c0xx_hal_flash_ex.c **** /**
 606:Drivers/STM32C0xx_HAL_Driver/Src/stm32c0xx_hal_flash_ex.c ****   * @brief  Configure the 1A Proprietary code readout protection & erase configuration on RDP regre
 607:Drivers/STM32C0xx_HAL_Driver/Src/stm32c0xx_hal_flash_ex.c ****   * @note   It is recommended to align PCROP zone with page granularity when using PCROP_RDP or avo
 608:Drivers/STM32C0xx_HAL_Driver/Src/stm32c0xx_hal_flash_ex.c ****   *         having some executable code in a page where PCROP zone starts or ends.
 609:Drivers/STM32C0xx_HAL_Driver/Src/stm32c0xx_hal_flash_ex.c ****   * @note   Minimum PCROP area size is 2 times the chosen granularity: PCROPA_STRT and PCROPA_END.
 610:Drivers/STM32C0xx_HAL_Driver/Src/stm32c0xx_hal_flash_ex.c ****   *         So if the requirement is to be able to read-protect 1KB areas, the ROP granularity
 611:Drivers/STM32C0xx_HAL_Driver/Src/stm32c0xx_hal_flash_ex.c ****   *         has to be set to 512 Bytes
 612:Drivers/STM32C0xx_HAL_Driver/Src/stm32c0xx_hal_flash_ex.c ****   * @param  PCROPConfig  specifies the erase configuration (OB_PCROP_RDP_NOT_ERASE or OB_PCROP_RDP_
 613:Drivers/STM32C0xx_HAL_Driver/Src/stm32c0xx_hal_flash_ex.c ****   *         on RDP level 1 regression.
 614:Drivers/STM32C0xx_HAL_Driver/Src/stm32c0xx_hal_flash_ex.c ****   * @param  PCROP1AStartAddr Specifies the Zone 1A Start address of the Proprietary code readout pr
 615:Drivers/STM32C0xx_HAL_Driver/Src/stm32c0xx_hal_flash_ex.c ****   *          This parameter can be an address between begin and end of the flash
 616:Drivers/STM32C0xx_HAL_Driver/Src/stm32c0xx_hal_flash_ex.c ****   * @param  PCROP1AEndAddr Specifies the Zone 1A end address of the Proprietary code readout protec
 617:Drivers/STM32C0xx_HAL_Driver/Src/stm32c0xx_hal_flash_ex.c ****   *          This parameter can be an address between PCROP1AStartAddr and end of the flash
 618:Drivers/STM32C0xx_HAL_Driver/Src/stm32c0xx_hal_flash_ex.c ****   * @retval None
 619:Drivers/STM32C0xx_HAL_Driver/Src/stm32c0xx_hal_flash_ex.c ****   */
 620:Drivers/STM32C0xx_HAL_Driver/Src/stm32c0xx_hal_flash_ex.c **** static void FLASH_OB_PCROP1AConfig(uint32_t PCROPConfig, uint32_t PCROP1AStartAddr, uint32_t PCROP1
 621:Drivers/STM32C0xx_HAL_Driver/Src/stm32c0xx_hal_flash_ex.c **** {
 168              		.loc 1 621 1 is_stmt 1 view -0
 169              		.cfi_startproc
 170              		@ args = 0, pretend = 0, frame = 0
 171              		@ frame_needed = 0, uses_anonymous_args = 0
 172              		.loc 1 621 1 is_stmt 0 view .LVU38
 173 0000 10B5     		push	{r4, lr}
 174              	.LCFI1:
 175              		.cfi_def_cfa_offset 8
 176              		.cfi_offset 4, -8
 177              		.cfi_offset 14, -4
 622:Drivers/STM32C0xx_HAL_Driver/Src/stm32c0xx_hal_flash_ex.c ****   uint32_t startoffset;
 178              		.loc 1 622 3 is_stmt 1 view .LVU39
 623:Drivers/STM32C0xx_HAL_Driver/Src/stm32c0xx_hal_flash_ex.c ****   uint32_t endoffset;
ARM GAS  C:\Users\Yasi\AppData\Local\Temp\ccPp3WL9.s 			page 15


 179              		.loc 1 623 3 view .LVU40
 624:Drivers/STM32C0xx_HAL_Driver/Src/stm32c0xx_hal_flash_ex.c ****   uint32_t pcrop1aend;
 180              		.loc 1 624 3 view .LVU41
 625:Drivers/STM32C0xx_HAL_Driver/Src/stm32c0xx_hal_flash_ex.c **** 
 626:Drivers/STM32C0xx_HAL_Driver/Src/stm32c0xx_hal_flash_ex.c ****   /* Check the parameters */
 627:Drivers/STM32C0xx_HAL_Driver/Src/stm32c0xx_hal_flash_ex.c ****   assert_param(IS_OB_PCROP_CONFIG(PCROPConfig));
 181              		.loc 1 627 3 view .LVU42
 628:Drivers/STM32C0xx_HAL_Driver/Src/stm32c0xx_hal_flash_ex.c ****   assert_param(IS_FLASH_MAIN_MEM_ADDRESS(PCROP1AStartAddr));
 182              		.loc 1 628 3 view .LVU43
 629:Drivers/STM32C0xx_HAL_Driver/Src/stm32c0xx_hal_flash_ex.c ****   assert_param(IS_FLASH_MAIN_MEM_ADDRESS(PCROP1AEndAddr));
 183              		.loc 1 629 3 view .LVU44
 630:Drivers/STM32C0xx_HAL_Driver/Src/stm32c0xx_hal_flash_ex.c **** 
 631:Drivers/STM32C0xx_HAL_Driver/Src/stm32c0xx_hal_flash_ex.c ****   /* get pcrop 1A end register */
 632:Drivers/STM32C0xx_HAL_Driver/Src/stm32c0xx_hal_flash_ex.c ****   pcrop1aend = FLASH->PCROP1AER;
 184              		.loc 1 632 3 view .LVU45
 185              		.loc 1 632 14 is_stmt 0 view .LVU46
 186 0002 0C4B     		ldr	r3, .L17
 187 0004 9B6A     		ldr	r3, [r3, #40]
 188              	.LVL10:
 633:Drivers/STM32C0xx_HAL_Driver/Src/stm32c0xx_hal_flash_ex.c **** 
 634:Drivers/STM32C0xx_HAL_Driver/Src/stm32c0xx_hal_flash_ex.c ****   /* Configure the Proprietary code readout protection offset */
 635:Drivers/STM32C0xx_HAL_Driver/Src/stm32c0xx_hal_flash_ex.c ****   if ((PCROPConfig & OB_PCROP_ZONE_A) != 0x00U)
 189              		.loc 1 635 3 is_stmt 1 view .LVU47
 190              		.loc 1 635 6 is_stmt 0 view .LVU48
 191 0006 C407     		lsls	r4, r0, #31
 192 0008 0BD5     		bpl	.L13
 636:Drivers/STM32C0xx_HAL_Driver/Src/stm32c0xx_hal_flash_ex.c ****   {
 637:Drivers/STM32C0xx_HAL_Driver/Src/stm32c0xx_hal_flash_ex.c ****     /* Compute offset depending on pcrop granularity */
 638:Drivers/STM32C0xx_HAL_Driver/Src/stm32c0xx_hal_flash_ex.c ****     startoffset = ((PCROP1AStartAddr - FLASH_BASE) >> FLASH_PCROP_GRANULARITY_OFFSET);
 193              		.loc 1 638 5 is_stmt 1 view .LVU49
 194              		.loc 1 638 38 is_stmt 0 view .LVU50
 195 000a F824     		movs	r4, #248
 196 000c 2406     		lsls	r4, r4, #24
 197 000e A446     		mov	ip, r4
 198 0010 6144     		add	r1, r1, ip
 199              	.LVL11:
 200              		.loc 1 638 17 view .LVU51
 201 0012 490A     		lsrs	r1, r1, #9
 202              	.LVL12:
 639:Drivers/STM32C0xx_HAL_Driver/Src/stm32c0xx_hal_flash_ex.c ****     endoffset = ((PCROP1AEndAddr - FLASH_BASE) >> FLASH_PCROP_GRANULARITY_OFFSET);
 203              		.loc 1 639 5 is_stmt 1 view .LVU52
 204              		.loc 1 639 34 is_stmt 0 view .LVU53
 205 0014 6244     		add	r2, r2, ip
 206              	.LVL13:
 207              		.loc 1 639 15 view .LVU54
 208 0016 520A     		lsrs	r2, r2, #9
 209              	.LVL14:
 640:Drivers/STM32C0xx_HAL_Driver/Src/stm32c0xx_hal_flash_ex.c **** 
 641:Drivers/STM32C0xx_HAL_Driver/Src/stm32c0xx_hal_flash_ex.c ****     /* Set Zone A start offset */
 642:Drivers/STM32C0xx_HAL_Driver/Src/stm32c0xx_hal_flash_ex.c ****     FLASH->PCROP1ASR = startoffset;
 210              		.loc 1 642 5 is_stmt 1 view .LVU55
 211              		.loc 1 642 22 is_stmt 0 view .LVU56
 212 0018 064C     		ldr	r4, .L17
 213 001a 6162     		str	r1, [r4, #36]
 643:Drivers/STM32C0xx_HAL_Driver/Src/stm32c0xx_hal_flash_ex.c **** 
 644:Drivers/STM32C0xx_HAL_Driver/Src/stm32c0xx_hal_flash_ex.c ****     /* Set Zone A end offset */
 645:Drivers/STM32C0xx_HAL_Driver/Src/stm32c0xx_hal_flash_ex.c ****     pcrop1aend &= ~FLASH_PCROP1AER_PCROP1A_END;
ARM GAS  C:\Users\Yasi\AppData\Local\Temp\ccPp3WL9.s 			page 16


 214              		.loc 1 645 5 is_stmt 1 view .LVU57
 215              		.loc 1 645 16 is_stmt 0 view .LVU58
 216 001c 7F21     		movs	r1, #127
 217              	.LVL15:
 218              		.loc 1 645 16 view .LVU59
 219 001e 8B43     		bics	r3, r1
 220              	.LVL16:
 646:Drivers/STM32C0xx_HAL_Driver/Src/stm32c0xx_hal_flash_ex.c ****     pcrop1aend |= endoffset;
 221              		.loc 1 646 5 is_stmt 1 view .LVU60
 222              		.loc 1 646 16 is_stmt 0 view .LVU61
 223 0020 1343     		orrs	r3, r2
 224              	.LVL17:
 225              	.L13:
 647:Drivers/STM32C0xx_HAL_Driver/Src/stm32c0xx_hal_flash_ex.c ****   }
 648:Drivers/STM32C0xx_HAL_Driver/Src/stm32c0xx_hal_flash_ex.c **** 
 649:Drivers/STM32C0xx_HAL_Driver/Src/stm32c0xx_hal_flash_ex.c ****   /* Set RDP erase protection if needed. This bit is only set & will be reset by mass erase */
 650:Drivers/STM32C0xx_HAL_Driver/Src/stm32c0xx_hal_flash_ex.c ****   if ((PCROPConfig & OB_PCROP_RDP_ERASE) != 0x00U)
 226              		.loc 1 650 3 is_stmt 1 view .LVU62
 227              		.loc 1 650 6 is_stmt 0 view .LVU63
 228 0022 0028     		cmp	r0, #0
 229 0024 02DB     		blt	.L16
 230              	.L14:
 651:Drivers/STM32C0xx_HAL_Driver/Src/stm32c0xx_hal_flash_ex.c ****   {
 652:Drivers/STM32C0xx_HAL_Driver/Src/stm32c0xx_hal_flash_ex.c ****     pcrop1aend |= FLASH_PCROP1AER_PCROP_RDP;
 653:Drivers/STM32C0xx_HAL_Driver/Src/stm32c0xx_hal_flash_ex.c ****   }
 654:Drivers/STM32C0xx_HAL_Driver/Src/stm32c0xx_hal_flash_ex.c **** 
 655:Drivers/STM32C0xx_HAL_Driver/Src/stm32c0xx_hal_flash_ex.c ****   /* set 1A End register */
 656:Drivers/STM32C0xx_HAL_Driver/Src/stm32c0xx_hal_flash_ex.c ****   FLASH->PCROP1AER = pcrop1aend;
 231              		.loc 1 656 3 is_stmt 1 view .LVU64
 232              		.loc 1 656 20 is_stmt 0 view .LVU65
 233 0026 034A     		ldr	r2, .L17
 234 0028 9362     		str	r3, [r2, #40]
 657:Drivers/STM32C0xx_HAL_Driver/Src/stm32c0xx_hal_flash_ex.c **** }
 235              		.loc 1 657 1 view .LVU66
 236              		@ sp needed
 237 002a 10BD     		pop	{r4, pc}
 238              	.L16:
 652:Drivers/STM32C0xx_HAL_Driver/Src/stm32c0xx_hal_flash_ex.c ****   }
 239              		.loc 1 652 5 is_stmt 1 view .LVU67
 652:Drivers/STM32C0xx_HAL_Driver/Src/stm32c0xx_hal_flash_ex.c ****   }
 240              		.loc 1 652 16 is_stmt 0 view .LVU68
 241 002c 8022     		movs	r2, #128
 242 002e 1206     		lsls	r2, r2, #24
 243 0030 1343     		orrs	r3, r2
 244              	.LVL18:
 652:Drivers/STM32C0xx_HAL_Driver/Src/stm32c0xx_hal_flash_ex.c ****   }
 245              		.loc 1 652 16 view .LVU69
 246 0032 F8E7     		b	.L14
 247              	.L18:
 248              		.align	2
 249              	.L17:
 250 0034 00200240 		.word	1073881088
 251              		.cfi_endproc
 252              	.LFE228:
 254              		.section	.text.FLASH_OB_PCROP1BConfig,"ax",%progbits
 255              		.align	1
 256              		.syntax unified
ARM GAS  C:\Users\Yasi\AppData\Local\Temp\ccPp3WL9.s 			page 17


 257              		.code	16
 258              		.thumb_func
 260              	FLASH_OB_PCROP1BConfig:
 261              	.LVL19:
 262              	.LFB229:
 658:Drivers/STM32C0xx_HAL_Driver/Src/stm32c0xx_hal_flash_ex.c **** 
 659:Drivers/STM32C0xx_HAL_Driver/Src/stm32c0xx_hal_flash_ex.c **** /**
 660:Drivers/STM32C0xx_HAL_Driver/Src/stm32c0xx_hal_flash_ex.c ****   * @brief  Configure the 1B Proprietary code readout protection.
 661:Drivers/STM32C0xx_HAL_Driver/Src/stm32c0xx_hal_flash_ex.c ****   * @note   It is recommended to align PCROP zone with page granularity when using PCROP_RDP or avo
 662:Drivers/STM32C0xx_HAL_Driver/Src/stm32c0xx_hal_flash_ex.c ****   *         having some executable code in a page where PCROP zone starts or ends.
 663:Drivers/STM32C0xx_HAL_Driver/Src/stm32c0xx_hal_flash_ex.c ****   * @note   Minimum PCROP area size is 2 times the chosen granularity: PCROPA_STRT and PCROPA_END.
 664:Drivers/STM32C0xx_HAL_Driver/Src/stm32c0xx_hal_flash_ex.c ****   *         So if the requirement is to be able to read-protect 1KB areas, the ROP granularity
 665:Drivers/STM32C0xx_HAL_Driver/Src/stm32c0xx_hal_flash_ex.c ****   *         has to be set to 512 Bytes
 666:Drivers/STM32C0xx_HAL_Driver/Src/stm32c0xx_hal_flash_ex.c ****   * @param  PCROP1BStartAddr  Specifies the Zone 1B Start address of the Proprietary code readout p
 667:Drivers/STM32C0xx_HAL_Driver/Src/stm32c0xx_hal_flash_ex.c ****   *         This parameter can be an address between begin and end of the flash
 668:Drivers/STM32C0xx_HAL_Driver/Src/stm32c0xx_hal_flash_ex.c ****   * @param  PCROP1BEndAddr  Specifies the Zone 1B end address of the Proprietary code readout prote
 669:Drivers/STM32C0xx_HAL_Driver/Src/stm32c0xx_hal_flash_ex.c ****   *         This parameter can be an address between PCROP1BStartAddr and end of the flash
 670:Drivers/STM32C0xx_HAL_Driver/Src/stm32c0xx_hal_flash_ex.c ****   * @retval None
 671:Drivers/STM32C0xx_HAL_Driver/Src/stm32c0xx_hal_flash_ex.c ****   */
 672:Drivers/STM32C0xx_HAL_Driver/Src/stm32c0xx_hal_flash_ex.c **** static void FLASH_OB_PCROP1BConfig(uint32_t PCROP1BStartAddr, uint32_t PCROP1BEndAddr)
 673:Drivers/STM32C0xx_HAL_Driver/Src/stm32c0xx_hal_flash_ex.c **** {
 263              		.loc 1 673 1 is_stmt 1 view -0
 264              		.cfi_startproc
 265              		@ args = 0, pretend = 0, frame = 0
 266              		@ frame_needed = 0, uses_anonymous_args = 0
 267              		@ link register save eliminated.
 674:Drivers/STM32C0xx_HAL_Driver/Src/stm32c0xx_hal_flash_ex.c ****   uint32_t startoffset;
 268              		.loc 1 674 3 view .LVU71
 675:Drivers/STM32C0xx_HAL_Driver/Src/stm32c0xx_hal_flash_ex.c ****   uint32_t endoffset;
 269              		.loc 1 675 3 view .LVU72
 676:Drivers/STM32C0xx_HAL_Driver/Src/stm32c0xx_hal_flash_ex.c **** 
 677:Drivers/STM32C0xx_HAL_Driver/Src/stm32c0xx_hal_flash_ex.c ****   /* Check the parameters */
 678:Drivers/STM32C0xx_HAL_Driver/Src/stm32c0xx_hal_flash_ex.c ****   assert_param(IS_FLASH_MAIN_MEM_ADDRESS(PCROP1BStartAddr));
 270              		.loc 1 678 3 view .LVU73
 679:Drivers/STM32C0xx_HAL_Driver/Src/stm32c0xx_hal_flash_ex.c ****   assert_param(IS_FLASH_MAIN_MEM_ADDRESS(PCROP1BEndAddr));
 271              		.loc 1 679 3 view .LVU74
 680:Drivers/STM32C0xx_HAL_Driver/Src/stm32c0xx_hal_flash_ex.c **** 
 681:Drivers/STM32C0xx_HAL_Driver/Src/stm32c0xx_hal_flash_ex.c ****   /* Configure the Proprietary code readout protection offset */
 682:Drivers/STM32C0xx_HAL_Driver/Src/stm32c0xx_hal_flash_ex.c ****   startoffset = ((PCROP1BStartAddr - FLASH_BASE) >> FLASH_PCROP_GRANULARITY_OFFSET);
 272              		.loc 1 682 3 view .LVU75
 273              		.loc 1 682 36 is_stmt 0 view .LVU76
 274 0000 F823     		movs	r3, #248
 275 0002 1B06     		lsls	r3, r3, #24
 276 0004 9C46     		mov	ip, r3
 277 0006 6044     		add	r0, r0, ip
 278              	.LVL20:
 279              		.loc 1 682 15 view .LVU77
 280 0008 400A     		lsrs	r0, r0, #9
 281              	.LVL21:
 683:Drivers/STM32C0xx_HAL_Driver/Src/stm32c0xx_hal_flash_ex.c ****   endoffset = ((PCROP1BEndAddr - FLASH_BASE) >> FLASH_PCROP_GRANULARITY_OFFSET);
 282              		.loc 1 683 3 is_stmt 1 view .LVU78
 283              		.loc 1 683 32 is_stmt 0 view .LVU79
 284 000a 6144     		add	r1, r1, ip
 285              	.LVL22:
 286              		.loc 1 683 13 view .LVU80
 287 000c 490A     		lsrs	r1, r1, #9
 288              	.LVL23:
ARM GAS  C:\Users\Yasi\AppData\Local\Temp\ccPp3WL9.s 			page 18


 684:Drivers/STM32C0xx_HAL_Driver/Src/stm32c0xx_hal_flash_ex.c **** 
 685:Drivers/STM32C0xx_HAL_Driver/Src/stm32c0xx_hal_flash_ex.c ****   /* Set Zone B start offset */
 686:Drivers/STM32C0xx_HAL_Driver/Src/stm32c0xx_hal_flash_ex.c ****   FLASH->PCROP1BSR = startoffset;
 289              		.loc 1 686 3 is_stmt 1 view .LVU81
 290              		.loc 1 686 20 is_stmt 0 view .LVU82
 291 000e 024B     		ldr	r3, .L20
 292 0010 5863     		str	r0, [r3, #52]
 687:Drivers/STM32C0xx_HAL_Driver/Src/stm32c0xx_hal_flash_ex.c ****   /* Set Zone B end offset */
 688:Drivers/STM32C0xx_HAL_Driver/Src/stm32c0xx_hal_flash_ex.c ****   FLASH->PCROP1BER = endoffset;
 293              		.loc 1 688 3 is_stmt 1 view .LVU83
 294              		.loc 1 688 20 is_stmt 0 view .LVU84
 295 0012 9963     		str	r1, [r3, #56]
 689:Drivers/STM32C0xx_HAL_Driver/Src/stm32c0xx_hal_flash_ex.c **** }
 296              		.loc 1 689 1 view .LVU85
 297              		@ sp needed
 298 0014 7047     		bx	lr
 299              	.L21:
 300 0016 C046     		.align	2
 301              	.L20:
 302 0018 00200240 		.word	1073881088
 303              		.cfi_endproc
 304              	.LFE229:
 306              		.section	.text.FLASH_OB_SecMemConfig,"ax",%progbits
 307              		.align	1
 308              		.syntax unified
 309              		.code	16
 310              		.thumb_func
 312              	FLASH_OB_SecMemConfig:
 313              	.LVL24:
 314              	.LFB230:
 690:Drivers/STM32C0xx_HAL_Driver/Src/stm32c0xx_hal_flash_ex.c **** 
 691:Drivers/STM32C0xx_HAL_Driver/Src/stm32c0xx_hal_flash_ex.c **** /**
 692:Drivers/STM32C0xx_HAL_Driver/Src/stm32c0xx_hal_flash_ex.c ****   * @brief  Configure Securable Memory area feature.
 693:Drivers/STM32C0xx_HAL_Driver/Src/stm32c0xx_hal_flash_ex.c ****   * @param  BootEntry  specifies if boot scheme is forced to Flash (System or user) or not
 694:Drivers/STM32C0xx_HAL_Driver/Src/stm32c0xx_hal_flash_ex.c ****   *         This parameter can be one of the following values:
 695:Drivers/STM32C0xx_HAL_Driver/Src/stm32c0xx_hal_flash_ex.c ****   *           @arg @ref OB_BOOT_ENTRY_FORCED_NONE No boot entry forced
 696:Drivers/STM32C0xx_HAL_Driver/Src/stm32c0xx_hal_flash_ex.c ****   *           @arg @ref OB_BOOT_ENTRY_FORCED_FLASH FLash selected as unique entry boot
 697:Drivers/STM32C0xx_HAL_Driver/Src/stm32c0xx_hal_flash_ex.c ****   * @param  SecSize specifies number of pages to protect as securable memory area, starting from
 698:Drivers/STM32C0xx_HAL_Driver/Src/stm32c0xx_hal_flash_ex.c ****   *         beginning of the Flash (page 0).
 699:Drivers/STM32C0xx_HAL_Driver/Src/stm32c0xx_hal_flash_ex.c ****   * @retval None
 700:Drivers/STM32C0xx_HAL_Driver/Src/stm32c0xx_hal_flash_ex.c ****   */
 701:Drivers/STM32C0xx_HAL_Driver/Src/stm32c0xx_hal_flash_ex.c **** static void FLASH_OB_SecMemConfig(uint32_t BootEntry, uint32_t SecSize)
 702:Drivers/STM32C0xx_HAL_Driver/Src/stm32c0xx_hal_flash_ex.c **** {
 315              		.loc 1 702 1 is_stmt 1 view -0
 316              		.cfi_startproc
 317              		@ args = 0, pretend = 0, frame = 0
 318              		@ frame_needed = 0, uses_anonymous_args = 0
 319              		.loc 1 702 1 is_stmt 0 view .LVU87
 320 0000 30B5     		push	{r4, r5, lr}
 321              	.LCFI2:
 322              		.cfi_def_cfa_offset 12
 323              		.cfi_offset 4, -12
 324              		.cfi_offset 5, -8
 325              		.cfi_offset 14, -4
 703:Drivers/STM32C0xx_HAL_Driver/Src/stm32c0xx_hal_flash_ex.c ****   uint32_t secmem;
 326              		.loc 1 703 3 is_stmt 1 view .LVU88
 704:Drivers/STM32C0xx_HAL_Driver/Src/stm32c0xx_hal_flash_ex.c **** 
ARM GAS  C:\Users\Yasi\AppData\Local\Temp\ccPp3WL9.s 			page 19


 705:Drivers/STM32C0xx_HAL_Driver/Src/stm32c0xx_hal_flash_ex.c ****   /* Check the parameters */
 706:Drivers/STM32C0xx_HAL_Driver/Src/stm32c0xx_hal_flash_ex.c ****   assert_param(IS_OB_SEC_BOOT_LOCK(BootEntry));
 327              		.loc 1 706 3 view .LVU89
 707:Drivers/STM32C0xx_HAL_Driver/Src/stm32c0xx_hal_flash_ex.c ****   assert_param(IS_OB_SEC_SIZE(SecSize));
 328              		.loc 1 707 3 view .LVU90
 708:Drivers/STM32C0xx_HAL_Driver/Src/stm32c0xx_hal_flash_ex.c **** 
 709:Drivers/STM32C0xx_HAL_Driver/Src/stm32c0xx_hal_flash_ex.c ****   /* Set securable memory area configuration */
 710:Drivers/STM32C0xx_HAL_Driver/Src/stm32c0xx_hal_flash_ex.c ****   secmem = (FLASH->SECR & ~(FLASH_SECR_BOOT_LOCK | FLASH_SECR_SEC_SIZE));
 329              		.loc 1 710 3 view .LVU91
 330              		.loc 1 710 18 is_stmt 0 view .LVU92
 331 0002 044C     		ldr	r4, .L23
 332 0004 8022     		movs	r2, #128
 333 0006 A358     		ldr	r3, [r4, r2]
 334              		.loc 1 710 10 view .LVU93
 335 0008 034D     		ldr	r5, .L23+4
 336 000a 2B40     		ands	r3, r5
 337              	.LVL25:
 711:Drivers/STM32C0xx_HAL_Driver/Src/stm32c0xx_hal_flash_ex.c ****   FLASH->SECR = (secmem | BootEntry | SecSize);
 338              		.loc 1 711 3 is_stmt 1 view .LVU94
 339              		.loc 1 711 25 is_stmt 0 view .LVU95
 340 000c 0343     		orrs	r3, r0
 341              	.LVL26:
 342              		.loc 1 711 37 view .LVU96
 343 000e 0B43     		orrs	r3, r1
 344              		.loc 1 711 15 view .LVU97
 345 0010 A350     		str	r3, [r4, r2]
 712:Drivers/STM32C0xx_HAL_Driver/Src/stm32c0xx_hal_flash_ex.c **** }
 346              		.loc 1 712 1 view .LVU98
 347              		@ sp needed
 348 0012 30BD     		pop	{r4, r5, pc}
 349              	.L24:
 350              		.align	2
 351              	.L23:
 352 0014 00200240 		.word	1073881088
 353 0018 C0FFFEFF 		.word	-65600
 354              		.cfi_endproc
 355              	.LFE230:
 357              		.section	.text.FLASH_OB_GetWRP,"ax",%progbits
 358              		.align	1
 359              		.syntax unified
 360              		.code	16
 361              		.thumb_func
 363              	FLASH_OB_GetWRP:
 364              	.LVL27:
 365              	.LFB231:
 713:Drivers/STM32C0xx_HAL_Driver/Src/stm32c0xx_hal_flash_ex.c **** 
 714:Drivers/STM32C0xx_HAL_Driver/Src/stm32c0xx_hal_flash_ex.c **** /**
 715:Drivers/STM32C0xx_HAL_Driver/Src/stm32c0xx_hal_flash_ex.c ****   * @brief  Return the FLASH Write Protection Option Bytes value.
 716:Drivers/STM32C0xx_HAL_Driver/Src/stm32c0xx_hal_flash_ex.c ****   * @param[in]  WRPArea Specifies the area to be returned.
 717:Drivers/STM32C0xx_HAL_Driver/Src/stm32c0xx_hal_flash_ex.c ****   *             This parameter can be one of the following values:
 718:Drivers/STM32C0xx_HAL_Driver/Src/stm32c0xx_hal_flash_ex.c ****   *               @arg @ref OB_WRPAREA_ZONE_A Flash Zone A
 719:Drivers/STM32C0xx_HAL_Driver/Src/stm32c0xx_hal_flash_ex.c ****   *               @arg @ref OB_WRPAREA_ZONE_B Flash Zone B
 720:Drivers/STM32C0xx_HAL_Driver/Src/stm32c0xx_hal_flash_ex.c ****   * @param[out]  WRPStartOffset  Specifies the address where to copied the start page
 721:Drivers/STM32C0xx_HAL_Driver/Src/stm32c0xx_hal_flash_ex.c ****   *                         of the write protected area
 722:Drivers/STM32C0xx_HAL_Driver/Src/stm32c0xx_hal_flash_ex.c ****   * @param[out]  WRDPEndOffset  Dpecifies the address where to copied the end page of
 723:Drivers/STM32C0xx_HAL_Driver/Src/stm32c0xx_hal_flash_ex.c ****   *                        the write protected area
 724:Drivers/STM32C0xx_HAL_Driver/Src/stm32c0xx_hal_flash_ex.c ****   * @retval None
ARM GAS  C:\Users\Yasi\AppData\Local\Temp\ccPp3WL9.s 			page 20


 725:Drivers/STM32C0xx_HAL_Driver/Src/stm32c0xx_hal_flash_ex.c ****   */
 726:Drivers/STM32C0xx_HAL_Driver/Src/stm32c0xx_hal_flash_ex.c **** static void FLASH_OB_GetWRP(uint32_t WRPArea, uint32_t *WRPStartOffset, uint32_t *WRDPEndOffset)
 727:Drivers/STM32C0xx_HAL_Driver/Src/stm32c0xx_hal_flash_ex.c **** {
 366              		.loc 1 727 1 is_stmt 1 view -0
 367              		.cfi_startproc
 368              		@ args = 0, pretend = 0, frame = 0
 369              		@ frame_needed = 0, uses_anonymous_args = 0
 370              		.loc 1 727 1 is_stmt 0 view .LVU100
 371 0000 10B5     		push	{r4, lr}
 372              	.LCFI3:
 373              		.cfi_def_cfa_offset 8
 374              		.cfi_offset 4, -8
 375              		.cfi_offset 14, -4
 728:Drivers/STM32C0xx_HAL_Driver/Src/stm32c0xx_hal_flash_ex.c ****   /* Check the parameters */
 729:Drivers/STM32C0xx_HAL_Driver/Src/stm32c0xx_hal_flash_ex.c ****   assert_param(IS_OB_WRPAREA(WRPArea));
 376              		.loc 1 729 3 is_stmt 1 view .LVU101
 730:Drivers/STM32C0xx_HAL_Driver/Src/stm32c0xx_hal_flash_ex.c **** 
 731:Drivers/STM32C0xx_HAL_Driver/Src/stm32c0xx_hal_flash_ex.c ****   /* Get the configuration of the write protected area */
 732:Drivers/STM32C0xx_HAL_Driver/Src/stm32c0xx_hal_flash_ex.c ****   if (WRPArea == OB_WRPAREA_ZONE_A)
 377              		.loc 1 732 3 view .LVU102
 378              		.loc 1 732 6 is_stmt 0 view .LVU103
 379 0002 0128     		cmp	r0, #1
 380 0004 09D0     		beq	.L28
 733:Drivers/STM32C0xx_HAL_Driver/Src/stm32c0xx_hal_flash_ex.c ****   {
 734:Drivers/STM32C0xx_HAL_Driver/Src/stm32c0xx_hal_flash_ex.c ****     *WRPStartOffset = READ_BIT(FLASH->WRP1AR, FLASH_WRP1AR_WRP1A_STRT);
 735:Drivers/STM32C0xx_HAL_Driver/Src/stm32c0xx_hal_flash_ex.c ****     *WRDPEndOffset = (READ_BIT(FLASH->WRP1AR, FLASH_WRP1AR_WRP1A_END) >> FLASH_WRP1AR_WRP1A_END_Pos
 736:Drivers/STM32C0xx_HAL_Driver/Src/stm32c0xx_hal_flash_ex.c ****   }
 737:Drivers/STM32C0xx_HAL_Driver/Src/stm32c0xx_hal_flash_ex.c ****   else
 738:Drivers/STM32C0xx_HAL_Driver/Src/stm32c0xx_hal_flash_ex.c ****   {
 739:Drivers/STM32C0xx_HAL_Driver/Src/stm32c0xx_hal_flash_ex.c ****     *WRPStartOffset = READ_BIT(FLASH->WRP1BR, FLASH_WRP1BR_WRP1B_STRT);
 381              		.loc 1 739 5 is_stmt 1 view .LVU104
 382              		.loc 1 739 23 is_stmt 0 view .LVU105
 383 0006 0A4C     		ldr	r4, .L29
 384 0008 206B     		ldr	r0, [r4, #48]
 385              	.LVL28:
 386              		.loc 1 739 23 view .LVU106
 387 000a 1F23     		movs	r3, #31
 388 000c 1840     		ands	r0, r3
 389              		.loc 1 739 21 view .LVU107
 390 000e 0860     		str	r0, [r1]
 740:Drivers/STM32C0xx_HAL_Driver/Src/stm32c0xx_hal_flash_ex.c ****     *WRDPEndOffset = (READ_BIT(FLASH->WRP1BR, FLASH_WRP1BR_WRP1B_END) >> FLASH_WRP1BR_WRP1B_END_Pos
 391              		.loc 1 740 5 is_stmt 1 view .LVU108
 392              		.loc 1 740 23 is_stmt 0 view .LVU109
 393 0010 216B     		ldr	r1, [r4, #48]
 394              	.LVL29:
 395              		.loc 1 740 71 view .LVU110
 396 0012 090C     		lsrs	r1, r1, #16
 397 0014 0B40     		ands	r3, r1
 398              		.loc 1 740 20 view .LVU111
 399 0016 1360     		str	r3, [r2]
 400              	.L25:
 741:Drivers/STM32C0xx_HAL_Driver/Src/stm32c0xx_hal_flash_ex.c ****   }
 742:Drivers/STM32C0xx_HAL_Driver/Src/stm32c0xx_hal_flash_ex.c **** }
 401              		.loc 1 742 1 view .LVU112
 402              		@ sp needed
 403 0018 10BD     		pop	{r4, pc}
 404              	.LVL30:
ARM GAS  C:\Users\Yasi\AppData\Local\Temp\ccPp3WL9.s 			page 21


 405              	.L28:
 734:Drivers/STM32C0xx_HAL_Driver/Src/stm32c0xx_hal_flash_ex.c ****     *WRDPEndOffset = (READ_BIT(FLASH->WRP1AR, FLASH_WRP1AR_WRP1A_END) >> FLASH_WRP1AR_WRP1A_END_Pos
 406              		.loc 1 734 5 is_stmt 1 view .LVU113
 734:Drivers/STM32C0xx_HAL_Driver/Src/stm32c0xx_hal_flash_ex.c ****     *WRDPEndOffset = (READ_BIT(FLASH->WRP1AR, FLASH_WRP1AR_WRP1A_END) >> FLASH_WRP1AR_WRP1A_END_Pos
 407              		.loc 1 734 23 is_stmt 0 view .LVU114
 408 001a 054C     		ldr	r4, .L29
 409 001c E06A     		ldr	r0, [r4, #44]
 410              	.LVL31:
 734:Drivers/STM32C0xx_HAL_Driver/Src/stm32c0xx_hal_flash_ex.c ****     *WRDPEndOffset = (READ_BIT(FLASH->WRP1AR, FLASH_WRP1AR_WRP1A_END) >> FLASH_WRP1AR_WRP1A_END_Pos
 411              		.loc 1 734 23 view .LVU115
 412 001e 1F23     		movs	r3, #31
 413 0020 1840     		ands	r0, r3
 734:Drivers/STM32C0xx_HAL_Driver/Src/stm32c0xx_hal_flash_ex.c ****     *WRDPEndOffset = (READ_BIT(FLASH->WRP1AR, FLASH_WRP1AR_WRP1A_END) >> FLASH_WRP1AR_WRP1A_END_Pos
 414              		.loc 1 734 21 view .LVU116
 415 0022 0860     		str	r0, [r1]
 735:Drivers/STM32C0xx_HAL_Driver/Src/stm32c0xx_hal_flash_ex.c ****   }
 416              		.loc 1 735 5 is_stmt 1 view .LVU117
 735:Drivers/STM32C0xx_HAL_Driver/Src/stm32c0xx_hal_flash_ex.c ****   }
 417              		.loc 1 735 23 is_stmt 0 view .LVU118
 418 0024 E16A     		ldr	r1, [r4, #44]
 419              	.LVL32:
 735:Drivers/STM32C0xx_HAL_Driver/Src/stm32c0xx_hal_flash_ex.c ****   }
 420              		.loc 1 735 71 view .LVU119
 421 0026 090C     		lsrs	r1, r1, #16
 422 0028 0B40     		ands	r3, r1
 735:Drivers/STM32C0xx_HAL_Driver/Src/stm32c0xx_hal_flash_ex.c ****   }
 423              		.loc 1 735 20 view .LVU120
 424 002a 1360     		str	r3, [r2]
 425 002c F4E7     		b	.L25
 426              	.L30:
 427 002e C046     		.align	2
 428              	.L29:
 429 0030 00200240 		.word	1073881088
 430              		.cfi_endproc
 431              	.LFE231:
 433              		.section	.text.FLASH_OB_GetRDP,"ax",%progbits
 434              		.align	1
 435              		.syntax unified
 436              		.code	16
 437              		.thumb_func
 439              	FLASH_OB_GetRDP:
 440              	.LFB232:
 743:Drivers/STM32C0xx_HAL_Driver/Src/stm32c0xx_hal_flash_ex.c **** 
 744:Drivers/STM32C0xx_HAL_Driver/Src/stm32c0xx_hal_flash_ex.c **** /**
 745:Drivers/STM32C0xx_HAL_Driver/Src/stm32c0xx_hal_flash_ex.c ****   * @brief  Return the FLASH Read Protection level.
 746:Drivers/STM32C0xx_HAL_Driver/Src/stm32c0xx_hal_flash_ex.c ****   * @retval FLASH ReadOut Protection Status:
 747:Drivers/STM32C0xx_HAL_Driver/Src/stm32c0xx_hal_flash_ex.c ****   *         This return value can be one of the following values:
 748:Drivers/STM32C0xx_HAL_Driver/Src/stm32c0xx_hal_flash_ex.c ****   *            @arg @ref OB_RDP_LEVEL_0 No protection
 749:Drivers/STM32C0xx_HAL_Driver/Src/stm32c0xx_hal_flash_ex.c ****   *            @arg @ref OB_RDP_LEVEL_1 Read protection of the memory
 750:Drivers/STM32C0xx_HAL_Driver/Src/stm32c0xx_hal_flash_ex.c ****   *            @arg @ref OB_RDP_LEVEL_2 Full chip protection
 751:Drivers/STM32C0xx_HAL_Driver/Src/stm32c0xx_hal_flash_ex.c ****   */
 752:Drivers/STM32C0xx_HAL_Driver/Src/stm32c0xx_hal_flash_ex.c **** static uint32_t FLASH_OB_GetRDP(void)
 753:Drivers/STM32C0xx_HAL_Driver/Src/stm32c0xx_hal_flash_ex.c **** {
 441              		.loc 1 753 1 is_stmt 1 view -0
 442              		.cfi_startproc
 443              		@ args = 0, pretend = 0, frame = 0
 444              		@ frame_needed = 0, uses_anonymous_args = 0
ARM GAS  C:\Users\Yasi\AppData\Local\Temp\ccPp3WL9.s 			page 22


 445              		@ link register save eliminated.
 754:Drivers/STM32C0xx_HAL_Driver/Src/stm32c0xx_hal_flash_ex.c ****   uint32_t rdplvl = READ_BIT(FLASH->OPTR, FLASH_OPTR_RDP);
 446              		.loc 1 754 3 view .LVU122
 447              		.loc 1 754 21 is_stmt 0 view .LVU123
 448 0000 044B     		ldr	r3, .L34
 449 0002 1B6A     		ldr	r3, [r3, #32]
 450              		.loc 1 754 12 view .LVU124
 451 0004 FF20     		movs	r0, #255
 452 0006 1840     		ands	r0, r3
 453              	.LVL33:
 755:Drivers/STM32C0xx_HAL_Driver/Src/stm32c0xx_hal_flash_ex.c **** 
 756:Drivers/STM32C0xx_HAL_Driver/Src/stm32c0xx_hal_flash_ex.c ****   if ((rdplvl != OB_RDP_LEVEL_0) && (rdplvl != OB_RDP_LEVEL_2))
 454              		.loc 1 756 3 is_stmt 1 view .LVU125
 455              		.loc 1 756 6 is_stmt 0 view .LVU126
 456 0008 AA28     		cmp	r0, #170
 457 000a 02D0     		beq	.L31
 458              		.loc 1 756 34 discriminator 1 view .LVU127
 459 000c CC28     		cmp	r0, #204
 460 000e 00D0     		beq	.L31
 757:Drivers/STM32C0xx_HAL_Driver/Src/stm32c0xx_hal_flash_ex.c ****   {
 758:Drivers/STM32C0xx_HAL_Driver/Src/stm32c0xx_hal_flash_ex.c ****     return (OB_RDP_LEVEL_1);
 461              		.loc 1 758 12 view .LVU128
 462 0010 BB20     		movs	r0, #187
 463              	.LVL34:
 464              	.L31:
 759:Drivers/STM32C0xx_HAL_Driver/Src/stm32c0xx_hal_flash_ex.c ****   }
 760:Drivers/STM32C0xx_HAL_Driver/Src/stm32c0xx_hal_flash_ex.c ****   else
 761:Drivers/STM32C0xx_HAL_Driver/Src/stm32c0xx_hal_flash_ex.c ****   {
 762:Drivers/STM32C0xx_HAL_Driver/Src/stm32c0xx_hal_flash_ex.c ****     return rdplvl;
 763:Drivers/STM32C0xx_HAL_Driver/Src/stm32c0xx_hal_flash_ex.c ****   }
 764:Drivers/STM32C0xx_HAL_Driver/Src/stm32c0xx_hal_flash_ex.c **** }
 465              		.loc 1 764 1 view .LVU129
 466              		@ sp needed
 467 0012 7047     		bx	lr
 468              	.L35:
 469              		.align	2
 470              	.L34:
 471 0014 00200240 		.word	1073881088
 472              		.cfi_endproc
 473              	.LFE232:
 475              		.section	.text.FLASH_OB_GetUser,"ax",%progbits
 476              		.align	1
 477              		.syntax unified
 478              		.code	16
 479              		.thumb_func
 481              	FLASH_OB_GetUser:
 482              	.LFB233:
 765:Drivers/STM32C0xx_HAL_Driver/Src/stm32c0xx_hal_flash_ex.c **** 
 766:Drivers/STM32C0xx_HAL_Driver/Src/stm32c0xx_hal_flash_ex.c **** /**
 767:Drivers/STM32C0xx_HAL_Driver/Src/stm32c0xx_hal_flash_ex.c ****   * @brief  Return the FLASH User Option Byte value.
 768:Drivers/STM32C0xx_HAL_Driver/Src/stm32c0xx_hal_flash_ex.c ****   * @retval The FLASH User Option Bytes values. It will be a combination of all the following value
 769:Drivers/STM32C0xx_HAL_Driver/Src/stm32c0xx_hal_flash_ex.c ****   *         @arg @ref FLASH_OB_USER_BOR_ENABLE,
 770:Drivers/STM32C0xx_HAL_Driver/Src/stm32c0xx_hal_flash_ex.c ****   *         @ref FLASH_OB_USER_BOR_LEVEL,
 771:Drivers/STM32C0xx_HAL_Driver/Src/stm32c0xx_hal_flash_ex.c ****   *         @ref FLASH_OB_USER_nRST_STOP,
 772:Drivers/STM32C0xx_HAL_Driver/Src/stm32c0xx_hal_flash_ex.c ****   *         @ref FLASH_OB_USER_nRST_STANDBY,
 773:Drivers/STM32C0xx_HAL_Driver/Src/stm32c0xx_hal_flash_ex.c ****   *         @ref FLASH_OB_USER_nRST_SHUTDOWN,
 774:Drivers/STM32C0xx_HAL_Driver/Src/stm32c0xx_hal_flash_ex.c ****   *         @ref FLASH_OB_USER_IWDG_SW,
ARM GAS  C:\Users\Yasi\AppData\Local\Temp\ccPp3WL9.s 			page 23


 775:Drivers/STM32C0xx_HAL_Driver/Src/stm32c0xx_hal_flash_ex.c ****   *         @ref FLASH_OB_USER_IWDG_STOP,
 776:Drivers/STM32C0xx_HAL_Driver/Src/stm32c0xx_hal_flash_ex.c ****   *         @ref FLASH_OB_USER_IWDG_STANDBY,
 777:Drivers/STM32C0xx_HAL_Driver/Src/stm32c0xx_hal_flash_ex.c ****   *         @ref FLASH_OB_USER_WWDG_SW,
 778:Drivers/STM32C0xx_HAL_Driver/Src/stm32c0xx_hal_flash_ex.c ****   *         @ref FLASH_OB_USER_SRAM_PARITY,
 779:Drivers/STM32C0xx_HAL_Driver/Src/stm32c0xx_hal_flash_ex.c ****   *         @ref FLASH_OB_USER_nBOOT_SEL,
 780:Drivers/STM32C0xx_HAL_Driver/Src/stm32c0xx_hal_flash_ex.c ****   *         @ref FLASH_OB_USER_nBOOT1,
 781:Drivers/STM32C0xx_HAL_Driver/Src/stm32c0xx_hal_flash_ex.c ****   *         @ref FLASH_OB_USER_nBOOT0,
 782:Drivers/STM32C0xx_HAL_Driver/Src/stm32c0xx_hal_flash_ex.c ****   *         @ref FLASH_OB_USER_INPUT_RESET_HOLDER
 783:Drivers/STM32C0xx_HAL_Driver/Src/stm32c0xx_hal_flash_ex.c ****   */
 784:Drivers/STM32C0xx_HAL_Driver/Src/stm32c0xx_hal_flash_ex.c **** static uint32_t FLASH_OB_GetUser(void)
 785:Drivers/STM32C0xx_HAL_Driver/Src/stm32c0xx_hal_flash_ex.c **** {
 483              		.loc 1 785 1 is_stmt 1 view -0
 484              		.cfi_startproc
 485              		@ args = 0, pretend = 0, frame = 0
 486              		@ frame_needed = 0, uses_anonymous_args = 0
 487              		@ link register save eliminated.
 786:Drivers/STM32C0xx_HAL_Driver/Src/stm32c0xx_hal_flash_ex.c ****   uint32_t user = ((FLASH->OPTR & ~FLASH_OPTR_RDP) & OB_USER_ALL);
 488              		.loc 1 786 3 view .LVU131
 489              		.loc 1 786 26 is_stmt 0 view .LVU132
 490 0000 024B     		ldr	r3, .L37
 491 0002 186A     		ldr	r0, [r3, #32]
 492              		.loc 1 786 12 view .LVU133
 493 0004 024B     		ldr	r3, .L37+4
 494 0006 1840     		ands	r0, r3
 495              	.LVL35:
 787:Drivers/STM32C0xx_HAL_Driver/Src/stm32c0xx_hal_flash_ex.c ****   return user;
 496              		.loc 1 787 3 is_stmt 1 view .LVU134
 788:Drivers/STM32C0xx_HAL_Driver/Src/stm32c0xx_hal_flash_ex.c **** }
 497              		.loc 1 788 1 is_stmt 0 view .LVU135
 498              		@ sp needed
 499 0008 7047     		bx	lr
 500              	.L38:
 501 000a C046     		.align	2
 502              	.L37:
 503 000c 00200240 		.word	1073881088
 504 0010 00FF4F3F 		.word	1062207232
 505              		.cfi_endproc
 506              	.LFE233:
 508              		.section	.text.FLASH_OB_GetPCROP1A,"ax",%progbits
 509              		.align	1
 510              		.syntax unified
 511              		.code	16
 512              		.thumb_func
 514              	FLASH_OB_GetPCROP1A:
 515              	.LVL36:
 516              	.LFB234:
 789:Drivers/STM32C0xx_HAL_Driver/Src/stm32c0xx_hal_flash_ex.c **** 
 790:Drivers/STM32C0xx_HAL_Driver/Src/stm32c0xx_hal_flash_ex.c **** /**
 791:Drivers/STM32C0xx_HAL_Driver/Src/stm32c0xx_hal_flash_ex.c ****   * @brief  Return the FLASH PCROP Protection Option Bytes value.
 792:Drivers/STM32C0xx_HAL_Driver/Src/stm32c0xx_hal_flash_ex.c ****   * @param  PCROPConfig [out]  specifies the configuration of PCROP_RDP option.
 793:Drivers/STM32C0xx_HAL_Driver/Src/stm32c0xx_hal_flash_ex.c ****   * @param  PCROP1AStartAddr [out]  Specifies the address where to copied the start address
 794:Drivers/STM32C0xx_HAL_Driver/Src/stm32c0xx_hal_flash_ex.c ****   *         of the 1A Proprietary code readout protection
 795:Drivers/STM32C0xx_HAL_Driver/Src/stm32c0xx_hal_flash_ex.c ****   * @param  PCROP1AEndAddr [out]  Specifies the address where to copied the end address of
 796:Drivers/STM32C0xx_HAL_Driver/Src/stm32c0xx_hal_flash_ex.c ****   *         the 1A Proprietary code readout protection
 797:Drivers/STM32C0xx_HAL_Driver/Src/stm32c0xx_hal_flash_ex.c ****   * @retval None
 798:Drivers/STM32C0xx_HAL_Driver/Src/stm32c0xx_hal_flash_ex.c ****   */
 799:Drivers/STM32C0xx_HAL_Driver/Src/stm32c0xx_hal_flash_ex.c **** static void FLASH_OB_GetPCROP1A(uint32_t *PCROPConfig, uint32_t *PCROP1AStartAddr, uint32_t *PCROP1
ARM GAS  C:\Users\Yasi\AppData\Local\Temp\ccPp3WL9.s 			page 24


 800:Drivers/STM32C0xx_HAL_Driver/Src/stm32c0xx_hal_flash_ex.c **** {
 517              		.loc 1 800 1 is_stmt 1 view -0
 518              		.cfi_startproc
 519              		@ args = 0, pretend = 0, frame = 0
 520              		@ frame_needed = 0, uses_anonymous_args = 0
 521              		.loc 1 800 1 is_stmt 0 view .LVU137
 522 0000 30B5     		push	{r4, r5, lr}
 523              	.LCFI4:
 524              		.cfi_def_cfa_offset 12
 525              		.cfi_offset 4, -12
 526              		.cfi_offset 5, -8
 527              		.cfi_offset 14, -4
 801:Drivers/STM32C0xx_HAL_Driver/Src/stm32c0xx_hal_flash_ex.c ****   uint32_t pcrop;
 528              		.loc 1 801 3 is_stmt 1 view .LVU138
 802:Drivers/STM32C0xx_HAL_Driver/Src/stm32c0xx_hal_flash_ex.c **** 
 803:Drivers/STM32C0xx_HAL_Driver/Src/stm32c0xx_hal_flash_ex.c ****   pcrop = (FLASH->PCROP1ASR & FLASH_PCROP1ASR_PCROP1A_STRT);
 529              		.loc 1 803 3 view .LVU139
 530              		.loc 1 803 17 is_stmt 0 view .LVU140
 531 0002 0D4C     		ldr	r4, .L40
 532 0004 636A     		ldr	r3, [r4, #36]
 533              	.LVL37:
 804:Drivers/STM32C0xx_HAL_Driver/Src/stm32c0xx_hal_flash_ex.c ****   *PCROP1AStartAddr = (pcrop << FLASH_PCROP_GRANULARITY_OFFSET);
 534              		.loc 1 804 3 is_stmt 1 view .LVU141
 535              		.loc 1 804 30 is_stmt 0 view .LVU142
 536 0006 5B06     		lsls	r3, r3, #25
 537              	.LVL38:
 538              		.loc 1 804 30 view .LVU143
 539 0008 1B0C     		lsrs	r3, r3, #16
 540              		.loc 1 804 21 view .LVU144
 541 000a 0B60     		str	r3, [r1]
 805:Drivers/STM32C0xx_HAL_Driver/Src/stm32c0xx_hal_flash_ex.c ****   *PCROP1AStartAddr += FLASH_BASE;
 542              		.loc 1 805 3 is_stmt 1 view .LVU145
 543              		.loc 1 805 21 is_stmt 0 view .LVU146
 544 000c 8025     		movs	r5, #128
 545 000e 2D05     		lsls	r5, r5, #20
 546 0010 AC46     		mov	ip, r5
 547 0012 6344     		add	r3, r3, ip
 548 0014 0B60     		str	r3, [r1]
 806:Drivers/STM32C0xx_HAL_Driver/Src/stm32c0xx_hal_flash_ex.c **** 
 807:Drivers/STM32C0xx_HAL_Driver/Src/stm32c0xx_hal_flash_ex.c ****   pcrop = FLASH->PCROP1AER;
 549              		.loc 1 807 3 is_stmt 1 view .LVU147
 550              		.loc 1 807 9 is_stmt 0 view .LVU148
 551 0016 A16A     		ldr	r1, [r4, #40]
 552              	.LVL39:
 808:Drivers/STM32C0xx_HAL_Driver/Src/stm32c0xx_hal_flash_ex.c ****   *PCROP1AEndAddr = ((pcrop & FLASH_PCROP1AER_PCROP1A_END) << FLASH_PCROP_GRANULARITY_OFFSET);
 553              		.loc 1 808 3 is_stmt 1 view .LVU149
 554              		.loc 1 808 60 is_stmt 0 view .LVU150
 555 0018 4B06     		lsls	r3, r1, #25
 556 001a 1B0C     		lsrs	r3, r3, #16
 557              		.loc 1 808 19 view .LVU151
 558 001c 1360     		str	r3, [r2]
 809:Drivers/STM32C0xx_HAL_Driver/Src/stm32c0xx_hal_flash_ex.c ****   *PCROP1AEndAddr += (FLASH_BASE + FLASH_PCROP_GRANULARITY - 1U);
 559              		.loc 1 809 3 is_stmt 1 view .LVU152
 560              		.loc 1 809 19 is_stmt 0 view .LVU153
 561 001e 074C     		ldr	r4, .L40+4
 562 0020 A446     		mov	ip, r4
 563 0022 6344     		add	r3, r3, ip
ARM GAS  C:\Users\Yasi\AppData\Local\Temp\ccPp3WL9.s 			page 25


 564 0024 1360     		str	r3, [r2]
 810:Drivers/STM32C0xx_HAL_Driver/Src/stm32c0xx_hal_flash_ex.c **** 
 811:Drivers/STM32C0xx_HAL_Driver/Src/stm32c0xx_hal_flash_ex.c ****   *PCROPConfig &= ~OB_PCROP_RDP_ERASE;
 565              		.loc 1 811 3 is_stmt 1 view .LVU154
 566 0026 0368     		ldr	r3, [r0]
 567              		.loc 1 811 16 is_stmt 0 view .LVU155
 568 0028 5B00     		lsls	r3, r3, #1
 569 002a 5B08     		lsrs	r3, r3, #1
 570 002c 0360     		str	r3, [r0]
 812:Drivers/STM32C0xx_HAL_Driver/Src/stm32c0xx_hal_flash_ex.c ****   *PCROPConfig |= (pcrop & FLASH_PCROP1AER_PCROP_RDP);
 571              		.loc 1 812 3 is_stmt 1 view .LVU156
 572              		.loc 1 812 26 is_stmt 0 view .LVU157
 573 002e C90F     		lsrs	r1, r1, #31
 574              	.LVL40:
 575              		.loc 1 812 26 view .LVU158
 576 0030 C907     		lsls	r1, r1, #31
 577              		.loc 1 812 16 view .LVU159
 578 0032 0B43     		orrs	r3, r1
 579 0034 0360     		str	r3, [r0]
 813:Drivers/STM32C0xx_HAL_Driver/Src/stm32c0xx_hal_flash_ex.c **** }
 580              		.loc 1 813 1 view .LVU160
 581              		@ sp needed
 582 0036 30BD     		pop	{r4, r5, pc}
 583              	.L41:
 584              		.align	2
 585              	.L40:
 586 0038 00200240 		.word	1073881088
 587 003c FF010008 		.word	134218239
 588              		.cfi_endproc
 589              	.LFE234:
 591              		.section	.text.FLASH_OB_GetPCROP1B,"ax",%progbits
 592              		.align	1
 593              		.syntax unified
 594              		.code	16
 595              		.thumb_func
 597              	FLASH_OB_GetPCROP1B:
 598              	.LVL41:
 599              	.LFB235:
 814:Drivers/STM32C0xx_HAL_Driver/Src/stm32c0xx_hal_flash_ex.c **** 
 815:Drivers/STM32C0xx_HAL_Driver/Src/stm32c0xx_hal_flash_ex.c **** 
 816:Drivers/STM32C0xx_HAL_Driver/Src/stm32c0xx_hal_flash_ex.c **** /**
 817:Drivers/STM32C0xx_HAL_Driver/Src/stm32c0xx_hal_flash_ex.c ****   * @brief  Return the FLASH PCROP Protection Option Bytes value.
 818:Drivers/STM32C0xx_HAL_Driver/Src/stm32c0xx_hal_flash_ex.c ****   * @param  PCROP1BStartAddr [out]  Specifies the address where to copied the start address
 819:Drivers/STM32C0xx_HAL_Driver/Src/stm32c0xx_hal_flash_ex.c ****   *         of the 1B Proprietary code readout protection
 820:Drivers/STM32C0xx_HAL_Driver/Src/stm32c0xx_hal_flash_ex.c ****   * @param  PCROP1BEndAddr [out]  Specifies the address where to copied the end address of
 821:Drivers/STM32C0xx_HAL_Driver/Src/stm32c0xx_hal_flash_ex.c ****   *         the 1B Proprietary code readout protection
 822:Drivers/STM32C0xx_HAL_Driver/Src/stm32c0xx_hal_flash_ex.c ****   * @retval None
 823:Drivers/STM32C0xx_HAL_Driver/Src/stm32c0xx_hal_flash_ex.c ****   */
 824:Drivers/STM32C0xx_HAL_Driver/Src/stm32c0xx_hal_flash_ex.c **** static void FLASH_OB_GetPCROP1B(uint32_t *PCROP1BStartAddr, uint32_t *PCROP1BEndAddr)
 825:Drivers/STM32C0xx_HAL_Driver/Src/stm32c0xx_hal_flash_ex.c **** {
 600              		.loc 1 825 1 is_stmt 1 view -0
 601              		.cfi_startproc
 602              		@ args = 0, pretend = 0, frame = 0
 603              		@ frame_needed = 0, uses_anonymous_args = 0
 604              		.loc 1 825 1 is_stmt 0 view .LVU162
 605 0000 10B5     		push	{r4, lr}
 606              	.LCFI5:
ARM GAS  C:\Users\Yasi\AppData\Local\Temp\ccPp3WL9.s 			page 26


 607              		.cfi_def_cfa_offset 8
 608              		.cfi_offset 4, -8
 609              		.cfi_offset 14, -4
 826:Drivers/STM32C0xx_HAL_Driver/Src/stm32c0xx_hal_flash_ex.c ****   uint32_t pcrop;
 610              		.loc 1 826 3 is_stmt 1 view .LVU163
 827:Drivers/STM32C0xx_HAL_Driver/Src/stm32c0xx_hal_flash_ex.c **** 
 828:Drivers/STM32C0xx_HAL_Driver/Src/stm32c0xx_hal_flash_ex.c ****   pcrop = (FLASH->PCROP1BSR & FLASH_PCROP1BSR_PCROP1B_STRT);
 611              		.loc 1 828 3 view .LVU164
 612              		.loc 1 828 17 is_stmt 0 view .LVU165
 613 0002 094A     		ldr	r2, .L43
 614 0004 536B     		ldr	r3, [r2, #52]
 615              	.LVL42:
 829:Drivers/STM32C0xx_HAL_Driver/Src/stm32c0xx_hal_flash_ex.c ****   *PCROP1BStartAddr = (pcrop << FLASH_PCROP_GRANULARITY_OFFSET);
 616              		.loc 1 829 3 is_stmt 1 view .LVU166
 617              		.loc 1 829 30 is_stmt 0 view .LVU167
 618 0006 5B06     		lsls	r3, r3, #25
 619              	.LVL43:
 620              		.loc 1 829 30 view .LVU168
 621 0008 1B0C     		lsrs	r3, r3, #16
 622              		.loc 1 829 21 view .LVU169
 623 000a 0360     		str	r3, [r0]
 830:Drivers/STM32C0xx_HAL_Driver/Src/stm32c0xx_hal_flash_ex.c ****   *PCROP1BStartAddr += FLASH_BASE;
 624              		.loc 1 830 3 is_stmt 1 view .LVU170
 625              		.loc 1 830 21 is_stmt 0 view .LVU171
 626 000c 8024     		movs	r4, #128
 627 000e 2405     		lsls	r4, r4, #20
 628 0010 A446     		mov	ip, r4
 629 0012 6344     		add	r3, r3, ip
 630 0014 0360     		str	r3, [r0]
 831:Drivers/STM32C0xx_HAL_Driver/Src/stm32c0xx_hal_flash_ex.c **** 
 832:Drivers/STM32C0xx_HAL_Driver/Src/stm32c0xx_hal_flash_ex.c ****   pcrop = (FLASH->PCROP1BER & FLASH_PCROP1BER_PCROP1B_END);
 631              		.loc 1 832 3 is_stmt 1 view .LVU172
 632              		.loc 1 832 17 is_stmt 0 view .LVU173
 633 0016 936B     		ldr	r3, [r2, #56]
 634              	.LVL44:
 833:Drivers/STM32C0xx_HAL_Driver/Src/stm32c0xx_hal_flash_ex.c ****   *PCROP1BEndAddr = (pcrop << FLASH_PCROP_GRANULARITY_OFFSET);
 635              		.loc 1 833 3 is_stmt 1 view .LVU174
 636              		.loc 1 833 28 is_stmt 0 view .LVU175
 637 0018 5B06     		lsls	r3, r3, #25
 638              	.LVL45:
 639              		.loc 1 833 28 view .LVU176
 640 001a 1B0C     		lsrs	r3, r3, #16
 641              		.loc 1 833 19 view .LVU177
 642 001c 0B60     		str	r3, [r1]
 834:Drivers/STM32C0xx_HAL_Driver/Src/stm32c0xx_hal_flash_ex.c ****   *PCROP1BEndAddr += (FLASH_BASE + FLASH_PCROP_GRANULARITY - 1U);
 643              		.loc 1 834 3 is_stmt 1 view .LVU178
 644              		.loc 1 834 19 is_stmt 0 view .LVU179
 645 001e 034A     		ldr	r2, .L43+4
 646 0020 9446     		mov	ip, r2
 647 0022 6344     		add	r3, r3, ip
 648 0024 0B60     		str	r3, [r1]
 835:Drivers/STM32C0xx_HAL_Driver/Src/stm32c0xx_hal_flash_ex.c **** }
 649              		.loc 1 835 1 view .LVU180
 650              		@ sp needed
 651 0026 10BD     		pop	{r4, pc}
 652              	.L44:
 653              		.align	2
ARM GAS  C:\Users\Yasi\AppData\Local\Temp\ccPp3WL9.s 			page 27


 654              	.L43:
 655 0028 00200240 		.word	1073881088
 656 002c FF010008 		.word	134218239
 657              		.cfi_endproc
 658              	.LFE235:
 660              		.section	.text.FLASH_OB_GetSecMem,"ax",%progbits
 661              		.align	1
 662              		.syntax unified
 663              		.code	16
 664              		.thumb_func
 666              	FLASH_OB_GetSecMem:
 667              	.LVL46:
 668              	.LFB236:
 836:Drivers/STM32C0xx_HAL_Driver/Src/stm32c0xx_hal_flash_ex.c **** 
 837:Drivers/STM32C0xx_HAL_Driver/Src/stm32c0xx_hal_flash_ex.c **** /**
 838:Drivers/STM32C0xx_HAL_Driver/Src/stm32c0xx_hal_flash_ex.c ****   * @brief  Return the FLASH Securable memory area protection Option Bytes value.
 839:Drivers/STM32C0xx_HAL_Driver/Src/stm32c0xx_hal_flash_ex.c ****   * @param  BootEntry  specifies boot scheme configuration
 840:Drivers/STM32C0xx_HAL_Driver/Src/stm32c0xx_hal_flash_ex.c ****   * @param  SecSize specifies number of pages to protect as secure memory area, starting from
 841:Drivers/STM32C0xx_HAL_Driver/Src/stm32c0xx_hal_flash_ex.c ****   *         beginning of the Flash (page 0).
 842:Drivers/STM32C0xx_HAL_Driver/Src/stm32c0xx_hal_flash_ex.c ****   * @retval None
 843:Drivers/STM32C0xx_HAL_Driver/Src/stm32c0xx_hal_flash_ex.c ****   */
 844:Drivers/STM32C0xx_HAL_Driver/Src/stm32c0xx_hal_flash_ex.c **** static void FLASH_OB_GetSecMem(uint32_t *BootEntry, uint32_t *SecSize)
 845:Drivers/STM32C0xx_HAL_Driver/Src/stm32c0xx_hal_flash_ex.c **** {
 669              		.loc 1 845 1 is_stmt 1 view -0
 670              		.cfi_startproc
 671              		@ args = 0, pretend = 0, frame = 0
 672              		@ frame_needed = 0, uses_anonymous_args = 0
 673              		@ link register save eliminated.
 846:Drivers/STM32C0xx_HAL_Driver/Src/stm32c0xx_hal_flash_ex.c ****   uint32_t secmem = FLASH->SECR;
 674              		.loc 1 846 3 view .LVU182
 675              		.loc 1 846 12 is_stmt 0 view .LVU183
 676 0000 054A     		ldr	r2, .L46
 677 0002 8023     		movs	r3, #128
 678 0004 D258     		ldr	r2, [r2, r3]
 679              	.LVL47:
 847:Drivers/STM32C0xx_HAL_Driver/Src/stm32c0xx_hal_flash_ex.c **** 
 848:Drivers/STM32C0xx_HAL_Driver/Src/stm32c0xx_hal_flash_ex.c ****   *BootEntry = (secmem & FLASH_SECR_BOOT_LOCK);
 680              		.loc 1 848 3 is_stmt 1 view .LVU184
 681              		.loc 1 848 24 is_stmt 0 view .LVU185
 682 0006 8023     		movs	r3, #128
 683 0008 5B02     		lsls	r3, r3, #9
 684 000a 1340     		ands	r3, r2
 685              		.loc 1 848 14 view .LVU186
 686 000c 0360     		str	r3, [r0]
 849:Drivers/STM32C0xx_HAL_Driver/Src/stm32c0xx_hal_flash_ex.c ****   *SecSize = (secmem & FLASH_SECR_SEC_SIZE);
 687              		.loc 1 849 3 is_stmt 1 view .LVU187
 688              		.loc 1 849 22 is_stmt 0 view .LVU188
 689 000e 3F23     		movs	r3, #63
 690 0010 1340     		ands	r3, r2
 691              		.loc 1 849 12 view .LVU189
 692 0012 0B60     		str	r3, [r1]
 850:Drivers/STM32C0xx_HAL_Driver/Src/stm32c0xx_hal_flash_ex.c **** }
 693              		.loc 1 850 1 view .LVU190
 694              		@ sp needed
 695 0014 7047     		bx	lr
 696              	.L47:
 697 0016 C046     		.align	2
ARM GAS  C:\Users\Yasi\AppData\Local\Temp\ccPp3WL9.s 			page 28


 698              	.L46:
 699 0018 00200240 		.word	1073881088
 700              		.cfi_endproc
 701              	.LFE236:
 703              		.section	.text.HAL_FLASHEx_OBProgram,"ax",%progbits
 704              		.align	1
 705              		.global	HAL_FLASHEx_OBProgram
 706              		.syntax unified
 707              		.code	16
 708              		.thumb_func
 710              	HAL_FLASHEx_OBProgram:
 711              	.LVL48:
 712              	.LFB216:
 271:Drivers/STM32C0xx_HAL_Driver/Src/stm32c0xx_hal_flash_ex.c ****   uint32_t optr;
 713              		.loc 1 271 1 is_stmt 1 view -0
 714              		.cfi_startproc
 715              		@ args = 0, pretend = 0, frame = 0
 716              		@ frame_needed = 0, uses_anonymous_args = 0
 271:Drivers/STM32C0xx_HAL_Driver/Src/stm32c0xx_hal_flash_ex.c ****   uint32_t optr;
 717              		.loc 1 271 1 is_stmt 0 view .LVU192
 718 0000 10B5     		push	{r4, lr}
 719              	.LCFI6:
 720              		.cfi_def_cfa_offset 8
 721              		.cfi_offset 4, -8
 722              		.cfi_offset 14, -4
 723 0002 0400     		movs	r4, r0
 272:Drivers/STM32C0xx_HAL_Driver/Src/stm32c0xx_hal_flash_ex.c ****   HAL_StatusTypeDef status;
 724              		.loc 1 272 3 is_stmt 1 view .LVU193
 273:Drivers/STM32C0xx_HAL_Driver/Src/stm32c0xx_hal_flash_ex.c **** 
 725              		.loc 1 273 3 view .LVU194
 276:Drivers/STM32C0xx_HAL_Driver/Src/stm32c0xx_hal_flash_ex.c **** 
 726              		.loc 1 276 3 view .LVU195
 279:Drivers/STM32C0xx_HAL_Driver/Src/stm32c0xx_hal_flash_ex.c **** 
 727              		.loc 1 279 3 view .LVU196
 279:Drivers/STM32C0xx_HAL_Driver/Src/stm32c0xx_hal_flash_ex.c **** 
 728              		.loc 1 279 3 view .LVU197
 729 0004 334B     		ldr	r3, .L71
 730 0006 1B78     		ldrb	r3, [r3]
 731 0008 012B     		cmp	r3, #1
 732 000a 60D0     		beq	.L58
 279:Drivers/STM32C0xx_HAL_Driver/Src/stm32c0xx_hal_flash_ex.c **** 
 733              		.loc 1 279 3 discriminator 2 view .LVU198
 734 000c 314B     		ldr	r3, .L71
 735 000e 0122     		movs	r2, #1
 736 0010 1A70     		strb	r2, [r3]
 279:Drivers/STM32C0xx_HAL_Driver/Src/stm32c0xx_hal_flash_ex.c **** 
 737              		.loc 1 279 3 discriminator 2 view .LVU199
 281:Drivers/STM32C0xx_HAL_Driver/Src/stm32c0xx_hal_flash_ex.c **** 
 738              		.loc 1 281 3 view .LVU200
 281:Drivers/STM32C0xx_HAL_Driver/Src/stm32c0xx_hal_flash_ex.c **** 
 739              		.loc 1 281 20 is_stmt 0 view .LVU201
 740 0012 0021     		movs	r1, #0
 741 0014 5960     		str	r1, [r3, #4]
 284:Drivers/STM32C0xx_HAL_Driver/Src/stm32c0xx_hal_flash_ex.c ****   {
 742              		.loc 1 284 3 is_stmt 1 view .LVU202
 284:Drivers/STM32C0xx_HAL_Driver/Src/stm32c0xx_hal_flash_ex.c ****   {
 743              		.loc 1 284 15 is_stmt 0 view .LVU203
ARM GAS  C:\Users\Yasi\AppData\Local\Temp\ccPp3WL9.s 			page 29


 744 0016 0368     		ldr	r3, [r0]
 284:Drivers/STM32C0xx_HAL_Driver/Src/stm32c0xx_hal_flash_ex.c ****   {
 745              		.loc 1 284 6 view .LVU204
 746 0018 1A42     		tst	r2, r3
 747 001a 1FD1     		bne	.L63
 748              	.LVL49:
 749              	.L50:
 291:Drivers/STM32C0xx_HAL_Driver/Src/stm32c0xx_hal_flash_ex.c ****   {
 750              		.loc 1 291 3 is_stmt 1 view .LVU205
 291:Drivers/STM32C0xx_HAL_Driver/Src/stm32c0xx_hal_flash_ex.c ****   {
 751              		.loc 1 291 15 is_stmt 0 view .LVU206
 752 001c 2268     		ldr	r2, [r4]
 291:Drivers/STM32C0xx_HAL_Driver/Src/stm32c0xx_hal_flash_ex.c ****   {
 753              		.loc 1 291 28 view .LVU207
 754 001e 0623     		movs	r3, #6
 755 0020 1340     		ands	r3, r2
 291:Drivers/STM32C0xx_HAL_Driver/Src/stm32c0xx_hal_flash_ex.c ****   {
 756              		.loc 1 291 6 view .LVU208
 757 0022 062B     		cmp	r3, #6
 758 0024 20D0     		beq	.L64
 296:Drivers/STM32C0xx_HAL_Driver/Src/stm32c0xx_hal_flash_ex.c ****   {
 759              		.loc 1 296 8 is_stmt 1 view .LVU209
 296:Drivers/STM32C0xx_HAL_Driver/Src/stm32c0xx_hal_flash_ex.c ****   {
 760              		.loc 1 296 11 is_stmt 0 view .LVU210
 761 0026 9307     		lsls	r3, r2, #30
 762 0028 24D4     		bmi	.L65
 302:Drivers/STM32C0xx_HAL_Driver/Src/stm32c0xx_hal_flash_ex.c ****   {
 763              		.loc 1 302 8 is_stmt 1 view .LVU211
 302:Drivers/STM32C0xx_HAL_Driver/Src/stm32c0xx_hal_flash_ex.c ****   {
 764              		.loc 1 302 11 is_stmt 0 view .LVU212
 765 002a 5207     		lsls	r2, r2, #29
 766 002c 29D4     		bmi	.L66
 767              	.L52:
 311:Drivers/STM32C0xx_HAL_Driver/Src/stm32c0xx_hal_flash_ex.c **** 
 768              		.loc 1 311 3 is_stmt 1 view .LVU213
 314:Drivers/STM32C0xx_HAL_Driver/Src/stm32c0xx_hal_flash_ex.c ****   {
 769              		.loc 1 314 3 view .LVU214
 314:Drivers/STM32C0xx_HAL_Driver/Src/stm32c0xx_hal_flash_ex.c ****   {
 770              		.loc 1 314 15 is_stmt 0 view .LVU215
 771 002e 2368     		ldr	r3, [r4]
 314:Drivers/STM32C0xx_HAL_Driver/Src/stm32c0xx_hal_flash_ex.c ****   {
 772              		.loc 1 314 6 view .LVU216
 773 0030 1B07     		lsls	r3, r3, #28
 774 0032 06D5     		bpl	.L54
 317:Drivers/STM32C0xx_HAL_Driver/Src/stm32c0xx_hal_flash_ex.c **** 
 775              		.loc 1 317 5 is_stmt 1 view .LVU217
 319:Drivers/STM32C0xx_HAL_Driver/Src/stm32c0xx_hal_flash_ex.c ****     {
 776              		.loc 1 319 5 view .LVU218
 319:Drivers/STM32C0xx_HAL_Driver/Src/stm32c0xx_hal_flash_ex.c ****     {
 777              		.loc 1 319 17 is_stmt 0 view .LVU219
 778 0034 E069     		ldr	r0, [r4, #28]
 319:Drivers/STM32C0xx_HAL_Driver/Src/stm32c0xx_hal_flash_ex.c ****     {
 779              		.loc 1 319 31 view .LVU220
 780 0036 284B     		ldr	r3, .L71+4
 319:Drivers/STM32C0xx_HAL_Driver/Src/stm32c0xx_hal_flash_ex.c ****     {
 781              		.loc 1 319 8 view .LVU221
 782 0038 1842     		tst	r0, r3
ARM GAS  C:\Users\Yasi\AppData\Local\Temp\ccPp3WL9.s 			page 30


 783 003a 2AD1     		bne	.L67
 784              	.L55:
 325:Drivers/STM32C0xx_HAL_Driver/Src/stm32c0xx_hal_flash_ex.c ****     {
 785              		.loc 1 325 5 is_stmt 1 view .LVU222
 325:Drivers/STM32C0xx_HAL_Driver/Src/stm32c0xx_hal_flash_ex.c ****     {
 786              		.loc 1 325 17 is_stmt 0 view .LVU223
 787 003c E369     		ldr	r3, [r4, #28]
 325:Drivers/STM32C0xx_HAL_Driver/Src/stm32c0xx_hal_flash_ex.c ****     {
 788              		.loc 1 325 8 view .LVU224
 789 003e 9B07     		lsls	r3, r3, #30
 790 0040 2CD4     		bmi	.L68
 791              	.L54:
 333:Drivers/STM32C0xx_HAL_Driver/Src/stm32c0xx_hal_flash_ex.c ****   {
 792              		.loc 1 333 3 is_stmt 1 view .LVU225
 333:Drivers/STM32C0xx_HAL_Driver/Src/stm32c0xx_hal_flash_ex.c ****   {
 793              		.loc 1 333 15 is_stmt 0 view .LVU226
 794 0042 2368     		ldr	r3, [r4]
 333:Drivers/STM32C0xx_HAL_Driver/Src/stm32c0xx_hal_flash_ex.c ****   {
 795              		.loc 1 333 6 view .LVU227
 796 0044 DB06     		lsls	r3, r3, #27
 797 0046 2ED4     		bmi	.L69
 798              	.L56:
 341:Drivers/STM32C0xx_HAL_Driver/Src/stm32c0xx_hal_flash_ex.c **** 
 799              		.loc 1 341 3 is_stmt 1 view .LVU228
 341:Drivers/STM32C0xx_HAL_Driver/Src/stm32c0xx_hal_flash_ex.c **** 
 800              		.loc 1 341 12 is_stmt 0 view .LVU229
 801 0048 FA20     		movs	r0, #250
 802 004a 8000     		lsls	r0, r0, #2
 803 004c FFF7FEFF 		bl	FLASH_WaitForLastOperation
 804              	.LVL50:
 343:Drivers/STM32C0xx_HAL_Driver/Src/stm32c0xx_hal_flash_ex.c ****   {
 805              		.loc 1 343 3 is_stmt 1 view .LVU230
 343:Drivers/STM32C0xx_HAL_Driver/Src/stm32c0xx_hal_flash_ex.c ****   {
 806              		.loc 1 343 6 is_stmt 0 view .LVU231
 807 0050 0028     		cmp	r0, #0
 808 0052 2DD0     		beq	.L70
 809              	.LVL51:
 810              	.L57:
 356:Drivers/STM32C0xx_HAL_Driver/Src/stm32c0xx_hal_flash_ex.c **** 
 811              		.loc 1 356 3 is_stmt 1 view .LVU232
 356:Drivers/STM32C0xx_HAL_Driver/Src/stm32c0xx_hal_flash_ex.c **** 
 812              		.loc 1 356 3 view .LVU233
 813 0054 1F4B     		ldr	r3, .L71
 814 0056 0022     		movs	r2, #0
 815 0058 1A70     		strb	r2, [r3]
 356:Drivers/STM32C0xx_HAL_Driver/Src/stm32c0xx_hal_flash_ex.c **** 
 816              		.loc 1 356 3 view .LVU234
 359:Drivers/STM32C0xx_HAL_Driver/Src/stm32c0xx_hal_flash_ex.c **** }
 817              		.loc 1 359 3 view .LVU235
 818              	.LVL52:
 819              	.L49:
 360:Drivers/STM32C0xx_HAL_Driver/Src/stm32c0xx_hal_flash_ex.c **** 
 820              		.loc 1 360 1 is_stmt 0 view .LVU236
 821              		@ sp needed
 822 005a 10BD     		pop	{r4, pc}
 823              	.LVL53:
 824              	.L63:
ARM GAS  C:\Users\Yasi\AppData\Local\Temp\ccPp3WL9.s 			page 31


 287:Drivers/STM32C0xx_HAL_Driver/Src/stm32c0xx_hal_flash_ex.c ****   }
 825              		.loc 1 287 5 is_stmt 1 view .LVU237
 826 005c C268     		ldr	r2, [r0, #12]
 827 005e 8168     		ldr	r1, [r0, #8]
 828 0060 4068     		ldr	r0, [r0, #4]
 829              	.LVL54:
 287:Drivers/STM32C0xx_HAL_Driver/Src/stm32c0xx_hal_flash_ex.c ****   }
 830              		.loc 1 287 5 is_stmt 0 view .LVU238
 831 0062 FFF7FEFF 		bl	FLASH_OB_WRPConfig
 832              	.LVL55:
 833 0066 D9E7     		b	.L50
 834              	.L64:
 294:Drivers/STM32C0xx_HAL_Driver/Src/stm32c0xx_hal_flash_ex.c ****   }
 835              		.loc 1 294 5 is_stmt 1 view .LVU239
 836 0068 2269     		ldr	r2, [r4, #16]
 837 006a A169     		ldr	r1, [r4, #24]
 838 006c 6069     		ldr	r0, [r4, #20]
 839 006e FFF7FEFF 		bl	FLASH_OB_OptrConfig
 840              	.LVL56:
 841 0072 DCE7     		b	.L52
 842              	.L65:
 299:Drivers/STM32C0xx_HAL_Driver/Src/stm32c0xx_hal_flash_ex.c ****     FLASH_OB_OptrConfig(optr, optr, pOBInit->RDPLevel);
 843              		.loc 1 299 5 view .LVU240
 299:Drivers/STM32C0xx_HAL_Driver/Src/stm32c0xx_hal_flash_ex.c ****     FLASH_OB_OptrConfig(optr, optr, pOBInit->RDPLevel);
 844              		.loc 1 299 12 is_stmt 0 view .LVU241
 845 0074 FFF7FEFF 		bl	FLASH_OB_GetUser
 846              	.LVL57:
 300:Drivers/STM32C0xx_HAL_Driver/Src/stm32c0xx_hal_flash_ex.c ****   }
 847              		.loc 1 300 5 is_stmt 1 view .LVU242
 848 0078 2269     		ldr	r2, [r4, #16]
 849 007a 0100     		movs	r1, r0
 850 007c FFF7FEFF 		bl	FLASH_OB_OptrConfig
 851              	.LVL58:
 300:Drivers/STM32C0xx_HAL_Driver/Src/stm32c0xx_hal_flash_ex.c ****   }
 852              		.loc 1 300 5 is_stmt 0 view .LVU243
 853 0080 D5E7     		b	.L52
 854              	.LVL59:
 855              	.L66:
 305:Drivers/STM32C0xx_HAL_Driver/Src/stm32c0xx_hal_flash_ex.c ****     FLASH_OB_OptrConfig(pOBInit->USERType, pOBInit->USERConfig, optr);
 856              		.loc 1 305 5 is_stmt 1 view .LVU244
 305:Drivers/STM32C0xx_HAL_Driver/Src/stm32c0xx_hal_flash_ex.c ****     FLASH_OB_OptrConfig(pOBInit->USERType, pOBInit->USERConfig, optr);
 857              		.loc 1 305 12 is_stmt 0 view .LVU245
 858 0082 FFF7FEFF 		bl	FLASH_OB_GetRDP
 859              	.LVL60:
 860 0086 0200     		movs	r2, r0
 861              	.LVL61:
 306:Drivers/STM32C0xx_HAL_Driver/Src/stm32c0xx_hal_flash_ex.c ****   }
 862              		.loc 1 306 5 is_stmt 1 view .LVU246
 863 0088 A169     		ldr	r1, [r4, #24]
 864 008a 6069     		ldr	r0, [r4, #20]
 865              	.LVL62:
 306:Drivers/STM32C0xx_HAL_Driver/Src/stm32c0xx_hal_flash_ex.c ****   }
 866              		.loc 1 306 5 is_stmt 0 view .LVU247
 867 008c FFF7FEFF 		bl	FLASH_OB_OptrConfig
 868              	.LVL63:
 306:Drivers/STM32C0xx_HAL_Driver/Src/stm32c0xx_hal_flash_ex.c ****   }
 869              		.loc 1 306 5 view .LVU248
ARM GAS  C:\Users\Yasi\AppData\Local\Temp\ccPp3WL9.s 			page 32


 870 0090 CDE7     		b	.L52
 871              	.LVL64:
 872              	.L67:
 322:Drivers/STM32C0xx_HAL_Driver/Src/stm32c0xx_hal_flash_ex.c ****     }
 873              		.loc 1 322 7 is_stmt 1 view .LVU249
 874 0092 626A     		ldr	r2, [r4, #36]
 875 0094 216A     		ldr	r1, [r4, #32]
 876 0096 FFF7FEFF 		bl	FLASH_OB_PCROP1AConfig
 877              	.LVL65:
 878 009a CFE7     		b	.L55
 879              	.L68:
 328:Drivers/STM32C0xx_HAL_Driver/Src/stm32c0xx_hal_flash_ex.c ****     }
 880              		.loc 1 328 7 view .LVU250
 881 009c E16A     		ldr	r1, [r4, #44]
 882 009e A06A     		ldr	r0, [r4, #40]
 883 00a0 FFF7FEFF 		bl	FLASH_OB_PCROP1BConfig
 884              	.LVL66:
 885 00a4 CDE7     		b	.L54
 886              	.L69:
 336:Drivers/STM32C0xx_HAL_Driver/Src/stm32c0xx_hal_flash_ex.c ****   }
 887              		.loc 1 336 5 view .LVU251
 888 00a6 616B     		ldr	r1, [r4, #52]
 889 00a8 206B     		ldr	r0, [r4, #48]
 890 00aa FFF7FEFF 		bl	FLASH_OB_SecMemConfig
 891              	.LVL67:
 892 00ae CBE7     		b	.L56
 893              	.LVL68:
 894              	.L70:
 346:Drivers/STM32C0xx_HAL_Driver/Src/stm32c0xx_hal_flash_ex.c **** 
 895              		.loc 1 346 5 view .LVU252
 896 00b0 0A4C     		ldr	r4, .L71+8
 897              	.LVL69:
 346:Drivers/STM32C0xx_HAL_Driver/Src/stm32c0xx_hal_flash_ex.c **** 
 898              		.loc 1 346 5 is_stmt 0 view .LVU253
 899 00b2 6269     		ldr	r2, [r4, #20]
 900 00b4 8023     		movs	r3, #128
 901 00b6 9B02     		lsls	r3, r3, #10
 902 00b8 1343     		orrs	r3, r2
 903 00ba 6361     		str	r3, [r4, #20]
 349:Drivers/STM32C0xx_HAL_Driver/Src/stm32c0xx_hal_flash_ex.c **** 
 904              		.loc 1 349 5 is_stmt 1 view .LVU254
 349:Drivers/STM32C0xx_HAL_Driver/Src/stm32c0xx_hal_flash_ex.c **** 
 905              		.loc 1 349 14 is_stmt 0 view .LVU255
 906 00bc FA30     		adds	r0, r0, #250
 907              	.LVL70:
 349:Drivers/STM32C0xx_HAL_Driver/Src/stm32c0xx_hal_flash_ex.c **** 
 908              		.loc 1 349 14 view .LVU256
 909 00be 8000     		lsls	r0, r0, #2
 910              	.LVL71:
 349:Drivers/STM32C0xx_HAL_Driver/Src/stm32c0xx_hal_flash_ex.c **** 
 911              		.loc 1 349 14 view .LVU257
 912 00c0 FFF7FEFF 		bl	FLASH_WaitForLastOperation
 913              	.LVL72:
 352:Drivers/STM32C0xx_HAL_Driver/Src/stm32c0xx_hal_flash_ex.c ****   }
 914              		.loc 1 352 5 is_stmt 1 view .LVU258
 915 00c4 6369     		ldr	r3, [r4, #20]
 916 00c6 064A     		ldr	r2, .L71+12
ARM GAS  C:\Users\Yasi\AppData\Local\Temp\ccPp3WL9.s 			page 33


 917 00c8 1340     		ands	r3, r2
 918 00ca 6361     		str	r3, [r4, #20]
 919 00cc C2E7     		b	.L57
 920              	.LVL73:
 921              	.L58:
 279:Drivers/STM32C0xx_HAL_Driver/Src/stm32c0xx_hal_flash_ex.c **** 
 922              		.loc 1 279 3 is_stmt 0 discriminator 1 view .LVU259
 923 00ce 0220     		movs	r0, #2
 924              	.LVL74:
 279:Drivers/STM32C0xx_HAL_Driver/Src/stm32c0xx_hal_flash_ex.c **** 
 925              		.loc 1 279 3 discriminator 1 view .LVU260
 926 00d0 C3E7     		b	.L49
 927              	.L72:
 928 00d2 C046     		.align	2
 929              	.L71:
 930 00d4 00000000 		.word	pFlash
 931 00d8 01000080 		.word	-2147483647
 932 00dc 00200240 		.word	1073881088
 933 00e0 FFFFFDFF 		.word	-131073
 934              		.cfi_endproc
 935              	.LFE216:
 937              		.section	.text.HAL_FLASHEx_OBGetConfig,"ax",%progbits
 938              		.align	1
 939              		.global	HAL_FLASHEx_OBGetConfig
 940              		.syntax unified
 941              		.code	16
 942              		.thumb_func
 944              	HAL_FLASHEx_OBGetConfig:
 945              	.LVL75:
 946              	.LFB217:
 374:Drivers/STM32C0xx_HAL_Driver/Src/stm32c0xx_hal_flash_ex.c ****   pOBInit->OptionType = OPTIONBYTE_ALL;
 947              		.loc 1 374 1 is_stmt 1 view -0
 948              		.cfi_startproc
 949              		@ args = 0, pretend = 0, frame = 0
 950              		@ frame_needed = 0, uses_anonymous_args = 0
 374:Drivers/STM32C0xx_HAL_Driver/Src/stm32c0xx_hal_flash_ex.c ****   pOBInit->OptionType = OPTIONBYTE_ALL;
 951              		.loc 1 374 1 is_stmt 0 view .LVU262
 952 0000 10B5     		push	{r4, lr}
 953              	.LCFI7:
 954              		.cfi_def_cfa_offset 8
 955              		.cfi_offset 4, -8
 956              		.cfi_offset 14, -4
 957 0002 0400     		movs	r4, r0
 375:Drivers/STM32C0xx_HAL_Driver/Src/stm32c0xx_hal_flash_ex.c **** 
 958              		.loc 1 375 3 is_stmt 1 view .LVU263
 375:Drivers/STM32C0xx_HAL_Driver/Src/stm32c0xx_hal_flash_ex.c **** 
 959              		.loc 1 375 23 is_stmt 0 view .LVU264
 960 0004 0723     		movs	r3, #7
 961 0006 0360     		str	r3, [r0]
 378:Drivers/STM32C0xx_HAL_Driver/Src/stm32c0xx_hal_flash_ex.c **** 
 962              		.loc 1 378 3 is_stmt 1 view .LVU265
 963 0008 0200     		movs	r2, r0
 964 000a 0C32     		adds	r2, r2, #12
 965 000c 0100     		movs	r1, r0
 966 000e 0831     		adds	r1, r1, #8
 967 0010 4068     		ldr	r0, [r0, #4]
 968              	.LVL76:
ARM GAS  C:\Users\Yasi\AppData\Local\Temp\ccPp3WL9.s 			page 34


 378:Drivers/STM32C0xx_HAL_Driver/Src/stm32c0xx_hal_flash_ex.c **** 
 969              		.loc 1 378 3 is_stmt 0 view .LVU266
 970 0012 FFF7FEFF 		bl	FLASH_OB_GetWRP
 971              	.LVL77:
 381:Drivers/STM32C0xx_HAL_Driver/Src/stm32c0xx_hal_flash_ex.c **** 
 972              		.loc 1 381 3 is_stmt 1 view .LVU267
 381:Drivers/STM32C0xx_HAL_Driver/Src/stm32c0xx_hal_flash_ex.c **** 
 973              		.loc 1 381 23 is_stmt 0 view .LVU268
 974 0016 FFF7FEFF 		bl	FLASH_OB_GetRDP
 975              	.LVL78:
 381:Drivers/STM32C0xx_HAL_Driver/Src/stm32c0xx_hal_flash_ex.c **** 
 976              		.loc 1 381 21 discriminator 1 view .LVU269
 977 001a 2061     		str	r0, [r4, #16]
 384:Drivers/STM32C0xx_HAL_Driver/Src/stm32c0xx_hal_flash_ex.c ****   pOBInit->USERType = OB_USER_ALL;
 978              		.loc 1 384 3 is_stmt 1 view .LVU270
 384:Drivers/STM32C0xx_HAL_Driver/Src/stm32c0xx_hal_flash_ex.c ****   pOBInit->USERType = OB_USER_ALL;
 979              		.loc 1 384 25 is_stmt 0 view .LVU271
 980 001c FFF7FEFF 		bl	FLASH_OB_GetUser
 981              	.LVL79:
 384:Drivers/STM32C0xx_HAL_Driver/Src/stm32c0xx_hal_flash_ex.c ****   pOBInit->USERType = OB_USER_ALL;
 982              		.loc 1 384 23 discriminator 1 view .LVU272
 983 0020 A061     		str	r0, [r4, #24]
 385:Drivers/STM32C0xx_HAL_Driver/Src/stm32c0xx_hal_flash_ex.c **** 
 984              		.loc 1 385 3 is_stmt 1 view .LVU273
 385:Drivers/STM32C0xx_HAL_Driver/Src/stm32c0xx_hal_flash_ex.c **** 
 985              		.loc 1 385 21 is_stmt 0 view .LVU274
 986 0022 0D4B     		ldr	r3, .L74
 987 0024 6361     		str	r3, [r4, #20]
 388:Drivers/STM32C0xx_HAL_Driver/Src/stm32c0xx_hal_flash_ex.c ****   FLASH_OB_GetPCROP1B(&(pOBInit->PCROP1BStartAddr), &(pOBInit->PCROP1BEndAddr));
 988              		.loc 1 388 3 is_stmt 1 view .LVU275
 989 0026 2200     		movs	r2, r4
 990 0028 2432     		adds	r2, r2, #36
 991 002a 2100     		movs	r1, r4
 992 002c 2031     		adds	r1, r1, #32
 993 002e 2000     		movs	r0, r4
 994 0030 1C30     		adds	r0, r0, #28
 995 0032 FFF7FEFF 		bl	FLASH_OB_GetPCROP1A
 996              	.LVL80:
 389:Drivers/STM32C0xx_HAL_Driver/Src/stm32c0xx_hal_flash_ex.c ****   pOBInit->PCROPConfig |= (OB_PCROP_ZONE_A | OB_PCROP_ZONE_B);
 997              		.loc 1 389 3 view .LVU276
 998 0036 2100     		movs	r1, r4
 999 0038 2C31     		adds	r1, r1, #44
 1000 003a 2000     		movs	r0, r4
 1001 003c 2830     		adds	r0, r0, #40
 1002 003e FFF7FEFF 		bl	FLASH_OB_GetPCROP1B
 1003              	.LVL81:
 390:Drivers/STM32C0xx_HAL_Driver/Src/stm32c0xx_hal_flash_ex.c **** 
 1004              		.loc 1 390 3 view .LVU277
 390:Drivers/STM32C0xx_HAL_Driver/Src/stm32c0xx_hal_flash_ex.c **** 
 1005              		.loc 1 390 10 is_stmt 0 view .LVU278
 1006 0042 E369     		ldr	r3, [r4, #28]
 390:Drivers/STM32C0xx_HAL_Driver/Src/stm32c0xx_hal_flash_ex.c **** 
 1007              		.loc 1 390 24 view .LVU279
 1008 0044 0322     		movs	r2, #3
 1009 0046 1343     		orrs	r3, r2
 1010 0048 E361     		str	r3, [r4, #28]
 393:Drivers/STM32C0xx_HAL_Driver/Src/stm32c0xx_hal_flash_ex.c **** }
ARM GAS  C:\Users\Yasi\AppData\Local\Temp\ccPp3WL9.s 			page 35


 1011              		.loc 1 393 3 is_stmt 1 view .LVU280
 1012 004a 2100     		movs	r1, r4
 1013 004c 3431     		adds	r1, r1, #52
 1014 004e 2000     		movs	r0, r4
 1015 0050 3030     		adds	r0, r0, #48
 1016 0052 FFF7FEFF 		bl	FLASH_OB_GetSecMem
 1017              	.LVL82:
 394:Drivers/STM32C0xx_HAL_Driver/Src/stm32c0xx_hal_flash_ex.c **** 
 1018              		.loc 1 394 1 is_stmt 0 view .LVU281
 1019              		@ sp needed
 1020              	.LVL83:
 394:Drivers/STM32C0xx_HAL_Driver/Src/stm32c0xx_hal_flash_ex.c **** 
 1021              		.loc 1 394 1 view .LVU282
 1022 0056 10BD     		pop	{r4, pc}
 1023              	.L75:
 1024              		.align	2
 1025              	.L74:
 1026 0058 00FF4F3F 		.word	1062207232
 1027              		.cfi_endproc
 1028              	.LFE217:
 1030              		.section	.text.HAL_FLASHEx_EnableDebugger,"ax",%progbits
 1031              		.align	1
 1032              		.global	HAL_FLASHEx_EnableDebugger
 1033              		.syntax unified
 1034              		.code	16
 1035              		.thumb_func
 1037              	HAL_FLASHEx_EnableDebugger:
 1038              	.LFB218:
 402:Drivers/STM32C0xx_HAL_Driver/Src/stm32c0xx_hal_flash_ex.c ****   FLASH->ACR |= FLASH_ACR_DBG_SWEN;
 1039              		.loc 1 402 1 is_stmt 1 view -0
 1040              		.cfi_startproc
 1041              		@ args = 0, pretend = 0, frame = 0
 1042              		@ frame_needed = 0, uses_anonymous_args = 0
 1043              		@ link register save eliminated.
 403:Drivers/STM32C0xx_HAL_Driver/Src/stm32c0xx_hal_flash_ex.c **** }
 1044              		.loc 1 403 3 view .LVU284
 403:Drivers/STM32C0xx_HAL_Driver/Src/stm32c0xx_hal_flash_ex.c **** }
 1045              		.loc 1 403 8 is_stmt 0 view .LVU285
 1046 0000 034A     		ldr	r2, .L77
 1047 0002 1168     		ldr	r1, [r2]
 403:Drivers/STM32C0xx_HAL_Driver/Src/stm32c0xx_hal_flash_ex.c **** }
 1048              		.loc 1 403 14 view .LVU286
 1049 0004 8023     		movs	r3, #128
 1050 0006 DB02     		lsls	r3, r3, #11
 1051 0008 0B43     		orrs	r3, r1
 1052 000a 1360     		str	r3, [r2]
 404:Drivers/STM32C0xx_HAL_Driver/Src/stm32c0xx_hal_flash_ex.c **** 
 1053              		.loc 1 404 1 view .LVU287
 1054              		@ sp needed
 1055 000c 7047     		bx	lr
 1056              	.L78:
 1057 000e C046     		.align	2
 1058              	.L77:
 1059 0010 00200240 		.word	1073881088
 1060              		.cfi_endproc
 1061              	.LFE218:
 1063              		.section	.text.HAL_FLASHEx_DisableDebugger,"ax",%progbits
ARM GAS  C:\Users\Yasi\AppData\Local\Temp\ccPp3WL9.s 			page 36


 1064              		.align	1
 1065              		.global	HAL_FLASHEx_DisableDebugger
 1066              		.syntax unified
 1067              		.code	16
 1068              		.thumb_func
 1070              	HAL_FLASHEx_DisableDebugger:
 1071              	.LFB219:
 413:Drivers/STM32C0xx_HAL_Driver/Src/stm32c0xx_hal_flash_ex.c ****   FLASH->ACR &= ~FLASH_ACR_DBG_SWEN;
 1072              		.loc 1 413 1 is_stmt 1 view -0
 1073              		.cfi_startproc
 1074              		@ args = 0, pretend = 0, frame = 0
 1075              		@ frame_needed = 0, uses_anonymous_args = 0
 1076              		@ link register save eliminated.
 414:Drivers/STM32C0xx_HAL_Driver/Src/stm32c0xx_hal_flash_ex.c **** }
 1077              		.loc 1 414 3 view .LVU289
 414:Drivers/STM32C0xx_HAL_Driver/Src/stm32c0xx_hal_flash_ex.c **** }
 1078              		.loc 1 414 8 is_stmt 0 view .LVU290
 1079 0000 024A     		ldr	r2, .L80
 1080 0002 1368     		ldr	r3, [r2]
 414:Drivers/STM32C0xx_HAL_Driver/Src/stm32c0xx_hal_flash_ex.c **** }
 1081              		.loc 1 414 14 view .LVU291
 1082 0004 0249     		ldr	r1, .L80+4
 1083 0006 0B40     		ands	r3, r1
 1084 0008 1360     		str	r3, [r2]
 415:Drivers/STM32C0xx_HAL_Driver/Src/stm32c0xx_hal_flash_ex.c **** 
 1085              		.loc 1 415 1 view .LVU292
 1086              		@ sp needed
 1087 000a 7047     		bx	lr
 1088              	.L81:
 1089              		.align	2
 1090              	.L80:
 1091 000c 00200240 		.word	1073881088
 1092 0010 FFFFFBFF 		.word	-262145
 1093              		.cfi_endproc
 1094              	.LFE219:
 1096              		.section	.text.HAL_FLASHEx_FlashEmptyCheck,"ax",%progbits
 1097              		.align	1
 1098              		.global	HAL_FLASHEx_FlashEmptyCheck
 1099              		.syntax unified
 1100              		.code	16
 1101              		.thumb_func
 1103              	HAL_FLASHEx_FlashEmptyCheck:
 1104              	.LFB220:
 424:Drivers/STM32C0xx_HAL_Driver/Src/stm32c0xx_hal_flash_ex.c ****   return ((FLASH->ACR & FLASH_ACR_PROGEMPTY));
 1105              		.loc 1 424 1 is_stmt 1 view -0
 1106              		.cfi_startproc
 1107              		@ args = 0, pretend = 0, frame = 0
 1108              		@ frame_needed = 0, uses_anonymous_args = 0
 1109              		@ link register save eliminated.
 425:Drivers/STM32C0xx_HAL_Driver/Src/stm32c0xx_hal_flash_ex.c **** }
 1110              		.loc 1 425 3 view .LVU294
 425:Drivers/STM32C0xx_HAL_Driver/Src/stm32c0xx_hal_flash_ex.c **** }
 1111              		.loc 1 425 17 is_stmt 0 view .LVU295
 1112 0000 024B     		ldr	r3, .L83
 1113 0002 1868     		ldr	r0, [r3]
 425:Drivers/STM32C0xx_HAL_Driver/Src/stm32c0xx_hal_flash_ex.c **** }
 1114              		.loc 1 425 23 view .LVU296
ARM GAS  C:\Users\Yasi\AppData\Local\Temp\ccPp3WL9.s 			page 37


 1115 0004 8023     		movs	r3, #128
 1116 0006 5B02     		lsls	r3, r3, #9
 1117 0008 1840     		ands	r0, r3
 426:Drivers/STM32C0xx_HAL_Driver/Src/stm32c0xx_hal_flash_ex.c **** 
 1118              		.loc 1 426 1 view .LVU297
 1119              		@ sp needed
 1120 000a 7047     		bx	lr
 1121              	.L84:
 1122              		.align	2
 1123              	.L83:
 1124 000c 00200240 		.word	1073881088
 1125              		.cfi_endproc
 1126              	.LFE220:
 1128              		.section	.text.HAL_FLASHEx_ForceFlashEmpty,"ax",%progbits
 1129              		.align	1
 1130              		.global	HAL_FLASHEx_ForceFlashEmpty
 1131              		.syntax unified
 1132              		.code	16
 1133              		.thumb_func
 1135              	HAL_FLASHEx_ForceFlashEmpty:
 1136              	.LVL84:
 1137              	.LFB221:
 438:Drivers/STM32C0xx_HAL_Driver/Src/stm32c0xx_hal_flash_ex.c ****   uint32_t acr;
 1138              		.loc 1 438 1 is_stmt 1 view -0
 1139              		.cfi_startproc
 1140              		@ args = 0, pretend = 0, frame = 0
 1141              		@ frame_needed = 0, uses_anonymous_args = 0
 1142              		@ link register save eliminated.
 439:Drivers/STM32C0xx_HAL_Driver/Src/stm32c0xx_hal_flash_ex.c ****   assert_param(IS_FLASH_EMPTY_CHECK(FlashEmpty));
 1143              		.loc 1 439 3 view .LVU299
 440:Drivers/STM32C0xx_HAL_Driver/Src/stm32c0xx_hal_flash_ex.c **** 
 1144              		.loc 1 440 3 view .LVU300
 442:Drivers/STM32C0xx_HAL_Driver/Src/stm32c0xx_hal_flash_ex.c ****   FLASH->ACR = (acr | FlashEmpty);
 1145              		.loc 1 442 3 view .LVU301
 442:Drivers/STM32C0xx_HAL_Driver/Src/stm32c0xx_hal_flash_ex.c ****   FLASH->ACR = (acr | FlashEmpty);
 1146              		.loc 1 442 15 is_stmt 0 view .LVU302
 1147 0000 034A     		ldr	r2, .L86
 1148 0002 1368     		ldr	r3, [r2]
 442:Drivers/STM32C0xx_HAL_Driver/Src/stm32c0xx_hal_flash_ex.c ****   FLASH->ACR = (acr | FlashEmpty);
 1149              		.loc 1 442 7 view .LVU303
 1150 0004 0349     		ldr	r1, .L86+4
 1151 0006 0B40     		ands	r3, r1
 1152              	.LVL85:
 443:Drivers/STM32C0xx_HAL_Driver/Src/stm32c0xx_hal_flash_ex.c **** }
 1153              		.loc 1 443 3 is_stmt 1 view .LVU304
 443:Drivers/STM32C0xx_HAL_Driver/Src/stm32c0xx_hal_flash_ex.c **** }
 1154              		.loc 1 443 21 is_stmt 0 view .LVU305
 1155 0008 0343     		orrs	r3, r0
 1156              	.LVL86:
 443:Drivers/STM32C0xx_HAL_Driver/Src/stm32c0xx_hal_flash_ex.c **** }
 1157              		.loc 1 443 14 view .LVU306
 1158 000a 1360     		str	r3, [r2]
 444:Drivers/STM32C0xx_HAL_Driver/Src/stm32c0xx_hal_flash_ex.c **** 
 1159              		.loc 1 444 1 view .LVU307
 1160              		@ sp needed
 1161 000c 7047     		bx	lr
 1162              	.L87:
ARM GAS  C:\Users\Yasi\AppData\Local\Temp\ccPp3WL9.s 			page 38


 1163 000e C046     		.align	2
 1164              	.L86:
 1165 0010 00200240 		.word	1073881088
 1166 0014 FFFFFEFF 		.word	-65537
 1167              		.cfi_endproc
 1168              	.LFE221:
 1170              		.section	.text.HAL_FLASHEx_EnableSecMemProtection,"ax",%progbits
 1171              		.align	1
 1172              		.global	HAL_FLASHEx_EnableSecMemProtection
 1173              		.syntax unified
 1174              		.code	16
 1175              		.thumb_func
 1177              	HAL_FLASHEx_EnableSecMemProtection:
 1178              	.LVL87:
 1179              	.LFB222:
 457:Drivers/STM32C0xx_HAL_Driver/Src/stm32c0xx_hal_flash_ex.c ****   assert_param(IS_FLASH_BANK(Bank));
 1180              		.loc 1 457 1 is_stmt 1 view -0
 1181              		.cfi_startproc
 1182              		@ args = 0, pretend = 0, frame = 0
 1183              		@ frame_needed = 0, uses_anonymous_args = 0
 1184              		@ link register save eliminated.
 458:Drivers/STM32C0xx_HAL_Driver/Src/stm32c0xx_hal_flash_ex.c ****   FLASH->CR |= FLASH_CR_SEC_PROT;
 1185              		.loc 1 458 3 view .LVU309
 459:Drivers/STM32C0xx_HAL_Driver/Src/stm32c0xx_hal_flash_ex.c **** }
 1186              		.loc 1 459 3 view .LVU310
 459:Drivers/STM32C0xx_HAL_Driver/Src/stm32c0xx_hal_flash_ex.c **** }
 1187              		.loc 1 459 8 is_stmt 0 view .LVU311
 1188 0000 034A     		ldr	r2, .L89
 1189 0002 5169     		ldr	r1, [r2, #20]
 459:Drivers/STM32C0xx_HAL_Driver/Src/stm32c0xx_hal_flash_ex.c **** }
 1190              		.loc 1 459 13 view .LVU312
 1191 0004 8023     		movs	r3, #128
 1192 0006 5B05     		lsls	r3, r3, #21
 1193 0008 0B43     		orrs	r3, r1
 1194 000a 5361     		str	r3, [r2, #20]
 460:Drivers/STM32C0xx_HAL_Driver/Src/stm32c0xx_hal_flash_ex.c **** 
 1195              		.loc 1 460 1 view .LVU313
 1196              		@ sp needed
 1197 000c 7047     		bx	lr
 1198              	.L90:
 1199 000e C046     		.align	2
 1200              	.L89:
 1201 0010 00200240 		.word	1073881088
 1202              		.cfi_endproc
 1203              	.LFE222:
 1205              		.section	.text.FLASH_PageErase,"ax",%progbits
 1206              		.align	1
 1207              		.global	FLASH_PageErase
 1208              		.syntax unified
 1209              		.code	16
 1210              		.thumb_func
 1212              	FLASH_PageErase:
 1213              	.LVL88:
 1214              	.LFB224:
 492:Drivers/STM32C0xx_HAL_Driver/Src/stm32c0xx_hal_flash_ex.c ****   uint32_t tmp;
 1215              		.loc 1 492 1 is_stmt 1 view -0
 1216              		.cfi_startproc
ARM GAS  C:\Users\Yasi\AppData\Local\Temp\ccPp3WL9.s 			page 39


 1217              		@ args = 0, pretend = 0, frame = 0
 1218              		@ frame_needed = 0, uses_anonymous_args = 0
 1219              		@ link register save eliminated.
 493:Drivers/STM32C0xx_HAL_Driver/Src/stm32c0xx_hal_flash_ex.c **** 
 1220              		.loc 1 493 3 view .LVU315
 496:Drivers/STM32C0xx_HAL_Driver/Src/stm32c0xx_hal_flash_ex.c **** 
 1221              		.loc 1 496 3 view .LVU316
 499:Drivers/STM32C0xx_HAL_Driver/Src/stm32c0xx_hal_flash_ex.c **** 
 1222              		.loc 1 499 3 view .LVU317
 499:Drivers/STM32C0xx_HAL_Driver/Src/stm32c0xx_hal_flash_ex.c **** 
 1223              		.loc 1 499 15 is_stmt 0 view .LVU318
 1224 0000 044A     		ldr	r2, .L92
 1225 0002 5369     		ldr	r3, [r2, #20]
 499:Drivers/STM32C0xx_HAL_Driver/Src/stm32c0xx_hal_flash_ex.c **** 
 1226              		.loc 1 499 7 view .LVU319
 1227 0004 7821     		movs	r1, #120
 1228 0006 8B43     		bics	r3, r1
 1229              	.LVL89:
 502:Drivers/STM32C0xx_HAL_Driver/Src/stm32c0xx_hal_flash_ex.c **** }
 1230              		.loc 1 502 3 is_stmt 1 view .LVU320
 502:Drivers/STM32C0xx_HAL_Driver/Src/stm32c0xx_hal_flash_ex.c **** }
 1231              		.loc 1 502 45 is_stmt 0 view .LVU321
 1232 0008 C000     		lsls	r0, r0, #3
 1233              	.LVL90:
 502:Drivers/STM32C0xx_HAL_Driver/Src/stm32c0xx_hal_flash_ex.c **** }
 1234              		.loc 1 502 20 view .LVU322
 1235 000a 1843     		orrs	r0, r3
 1236 000c 024B     		ldr	r3, .L92+4
 1237              	.LVL91:
 502:Drivers/STM32C0xx_HAL_Driver/Src/stm32c0xx_hal_flash_ex.c **** }
 1238              		.loc 1 502 20 view .LVU323
 1239 000e 0343     		orrs	r3, r0
 502:Drivers/STM32C0xx_HAL_Driver/Src/stm32c0xx_hal_flash_ex.c **** }
 1240              		.loc 1 502 13 view .LVU324
 1241 0010 5361     		str	r3, [r2, #20]
 503:Drivers/STM32C0xx_HAL_Driver/Src/stm32c0xx_hal_flash_ex.c **** 
 1242              		.loc 1 503 1 view .LVU325
 1243              		@ sp needed
 1244 0012 7047     		bx	lr
 1245              	.L93:
 1246              		.align	2
 1247              	.L92:
 1248 0014 00200240 		.word	1073881088
 1249 0018 02000100 		.word	65538
 1250              		.cfi_endproc
 1251              	.LFE224:
 1253              		.section	.text.HAL_FLASHEx_Erase,"ax",%progbits
 1254              		.align	1
 1255              		.global	HAL_FLASHEx_Erase
 1256              		.syntax unified
 1257              		.code	16
 1258              		.thumb_func
 1260              	HAL_FLASHEx_Erase:
 1261              	.LVL92:
 1262              	.LFB214:
 140:Drivers/STM32C0xx_HAL_Driver/Src/stm32c0xx_hal_flash_ex.c ****   HAL_StatusTypeDef status;
 1263              		.loc 1 140 1 is_stmt 1 view -0
ARM GAS  C:\Users\Yasi\AppData\Local\Temp\ccPp3WL9.s 			page 40


 1264              		.cfi_startproc
 1265              		@ args = 0, pretend = 0, frame = 0
 1266              		@ frame_needed = 0, uses_anonymous_args = 0
 140:Drivers/STM32C0xx_HAL_Driver/Src/stm32c0xx_hal_flash_ex.c ****   HAL_StatusTypeDef status;
 1267              		.loc 1 140 1 is_stmt 0 view .LVU327
 1268 0000 70B5     		push	{r4, r5, r6, lr}
 1269              	.LCFI8:
 1270              		.cfi_def_cfa_offset 16
 1271              		.cfi_offset 4, -16
 1272              		.cfi_offset 5, -12
 1273              		.cfi_offset 6, -8
 1274              		.cfi_offset 14, -4
 1275 0002 0500     		movs	r5, r0
 1276 0004 0E00     		movs	r6, r1
 141:Drivers/STM32C0xx_HAL_Driver/Src/stm32c0xx_hal_flash_ex.c ****   uint32_t index;
 1277              		.loc 1 141 3 is_stmt 1 view .LVU328
 142:Drivers/STM32C0xx_HAL_Driver/Src/stm32c0xx_hal_flash_ex.c **** 
 1278              		.loc 1 142 3 view .LVU329
 145:Drivers/STM32C0xx_HAL_Driver/Src/stm32c0xx_hal_flash_ex.c **** 
 1279              		.loc 1 145 3 view .LVU330
 148:Drivers/STM32C0xx_HAL_Driver/Src/stm32c0xx_hal_flash_ex.c **** 
 1280              		.loc 1 148 3 view .LVU331
 148:Drivers/STM32C0xx_HAL_Driver/Src/stm32c0xx_hal_flash_ex.c **** 
 1281              		.loc 1 148 3 view .LVU332
 1282 0006 1C4B     		ldr	r3, .L105
 1283 0008 1B78     		ldrb	r3, [r3]
 1284 000a 012B     		cmp	r3, #1
 1285 000c 32D0     		beq	.L102
 148:Drivers/STM32C0xx_HAL_Driver/Src/stm32c0xx_hal_flash_ex.c **** 
 1286              		.loc 1 148 3 discriminator 2 view .LVU333
 1287 000e 1A4B     		ldr	r3, .L105
 1288 0010 0122     		movs	r2, #1
 1289 0012 1A70     		strb	r2, [r3]
 148:Drivers/STM32C0xx_HAL_Driver/Src/stm32c0xx_hal_flash_ex.c **** 
 1290              		.loc 1 148 3 discriminator 2 view .LVU334
 151:Drivers/STM32C0xx_HAL_Driver/Src/stm32c0xx_hal_flash_ex.c **** 
 1291              		.loc 1 151 3 view .LVU335
 151:Drivers/STM32C0xx_HAL_Driver/Src/stm32c0xx_hal_flash_ex.c **** 
 1292              		.loc 1 151 20 is_stmt 0 view .LVU336
 1293 0014 0022     		movs	r2, #0
 1294 0016 5A60     		str	r2, [r3, #4]
 154:Drivers/STM32C0xx_HAL_Driver/Src/stm32c0xx_hal_flash_ex.c **** 
 1295              		.loc 1 154 3 is_stmt 1 view .LVU337
 154:Drivers/STM32C0xx_HAL_Driver/Src/stm32c0xx_hal_flash_ex.c **** 
 1296              		.loc 1 154 12 is_stmt 0 view .LVU338
 1297 0018 FA20     		movs	r0, #250
 1298              	.LVL93:
 154:Drivers/STM32C0xx_HAL_Driver/Src/stm32c0xx_hal_flash_ex.c **** 
 1299              		.loc 1 154 12 view .LVU339
 1300 001a 8000     		lsls	r0, r0, #2
 1301 001c FFF7FEFF 		bl	FLASH_WaitForLastOperation
 1302              	.LVL94:
 156:Drivers/STM32C0xx_HAL_Driver/Src/stm32c0xx_hal_flash_ex.c ****   {
 1303              		.loc 1 156 3 is_stmt 1 view .LVU340
 156:Drivers/STM32C0xx_HAL_Driver/Src/stm32c0xx_hal_flash_ex.c ****   {
 1304              		.loc 1 156 6 is_stmt 0 view .LVU341
 1305 0020 0028     		cmp	r0, #0
ARM GAS  C:\Users\Yasi\AppData\Local\Temp\ccPp3WL9.s 			page 41


 1306 0022 23D1     		bne	.L96
 158:Drivers/STM32C0xx_HAL_Driver/Src/stm32c0xx_hal_flash_ex.c ****     {
 1307              		.loc 1 158 5 is_stmt 1 view .LVU342
 158:Drivers/STM32C0xx_HAL_Driver/Src/stm32c0xx_hal_flash_ex.c ****     {
 1308              		.loc 1 158 19 is_stmt 0 view .LVU343
 1309 0024 2B68     		ldr	r3, [r5]
 158:Drivers/STM32C0xx_HAL_Driver/Src/stm32c0xx_hal_flash_ex.c ****     {
 1310              		.loc 1 158 8 view .LVU344
 1311 0026 042B     		cmp	r3, #4
 1312 0028 13D0     		beq	.L103
 169:Drivers/STM32C0xx_HAL_Driver/Src/stm32c0xx_hal_flash_ex.c **** 
 1313              		.loc 1 169 7 is_stmt 1 view .LVU345
 169:Drivers/STM32C0xx_HAL_Driver/Src/stm32c0xx_hal_flash_ex.c **** 
 1314              		.loc 1 169 18 is_stmt 0 view .LVU346
 1315 002a 0123     		movs	r3, #1
 1316 002c 5B42     		rsbs	r3, r3, #0
 1317 002e 3360     		str	r3, [r6]
 171:Drivers/STM32C0xx_HAL_Driver/Src/stm32c0xx_hal_flash_ex.c ****       {
 1318              		.loc 1 171 7 is_stmt 1 view .LVU347
 171:Drivers/STM32C0xx_HAL_Driver/Src/stm32c0xx_hal_flash_ex.c ****       {
 1319              		.loc 1 171 18 is_stmt 0 view .LVU348
 1320 0030 6C68     		ldr	r4, [r5, #4]
 1321              	.LVL95:
 1322              	.L98:
 171:Drivers/STM32C0xx_HAL_Driver/Src/stm32c0xx_hal_flash_ex.c ****       {
 1323              		.loc 1 171 44 is_stmt 1 discriminator 1 view .LVU349
 171:Drivers/STM32C0xx_HAL_Driver/Src/stm32c0xx_hal_flash_ex.c ****       {
 1324              		.loc 1 171 57 is_stmt 0 discriminator 1 view .LVU350
 1325 0032 6B68     		ldr	r3, [r5, #4]
 171:Drivers/STM32C0xx_HAL_Driver/Src/stm32c0xx_hal_flash_ex.c ****       {
 1326              		.loc 1 171 76 discriminator 1 view .LVU351
 1327 0034 AA68     		ldr	r2, [r5, #8]
 171:Drivers/STM32C0xx_HAL_Driver/Src/stm32c0xx_hal_flash_ex.c ****       {
 1328              		.loc 1 171 64 discriminator 1 view .LVU352
 1329 0036 9B18     		adds	r3, r3, r2
 171:Drivers/STM32C0xx_HAL_Driver/Src/stm32c0xx_hal_flash_ex.c ****       {
 1330              		.loc 1 171 44 discriminator 1 view .LVU353
 1331 0038 A342     		cmp	r3, r4
 1332 003a 12D9     		bls	.L100
 174:Drivers/STM32C0xx_HAL_Driver/Src/stm32c0xx_hal_flash_ex.c **** 
 1333              		.loc 1 174 9 is_stmt 1 view .LVU354
 1334 003c 2000     		movs	r0, r4
 1335              	.LVL96:
 174:Drivers/STM32C0xx_HAL_Driver/Src/stm32c0xx_hal_flash_ex.c **** 
 1336              		.loc 1 174 9 is_stmt 0 view .LVU355
 1337 003e FFF7FEFF 		bl	FLASH_PageErase
 1338              	.LVL97:
 177:Drivers/STM32C0xx_HAL_Driver/Src/stm32c0xx_hal_flash_ex.c **** 
 1339              		.loc 1 177 9 is_stmt 1 view .LVU356
 177:Drivers/STM32C0xx_HAL_Driver/Src/stm32c0xx_hal_flash_ex.c **** 
 1340              		.loc 1 177 18 is_stmt 0 view .LVU357
 1341 0042 FA20     		movs	r0, #250
 1342 0044 8000     		lsls	r0, r0, #2
 1343 0046 FFF7FEFF 		bl	FLASH_WaitForLastOperation
 1344              	.LVL98:
 179:Drivers/STM32C0xx_HAL_Driver/Src/stm32c0xx_hal_flash_ex.c ****         {
 1345              		.loc 1 179 9 is_stmt 1 view .LVU358
ARM GAS  C:\Users\Yasi\AppData\Local\Temp\ccPp3WL9.s 			page 42


 179:Drivers/STM32C0xx_HAL_Driver/Src/stm32c0xx_hal_flash_ex.c ****         {
 1346              		.loc 1 179 12 is_stmt 0 view .LVU359
 1347 004a 0028     		cmp	r0, #0
 1348 004c 08D1     		bne	.L104
 171:Drivers/STM32C0xx_HAL_Driver/Src/stm32c0xx_hal_flash_ex.c ****       {
 1349              		.loc 1 171 93 is_stmt 1 discriminator 2 view .LVU360
 1350 004e 0134     		adds	r4, r4, #1
 1351              	.LVL99:
 171:Drivers/STM32C0xx_HAL_Driver/Src/stm32c0xx_hal_flash_ex.c ****       {
 1352              		.loc 1 171 93 is_stmt 0 discriminator 2 view .LVU361
 1353 0050 EFE7     		b	.L98
 1354              	.LVL100:
 1355              	.L103:
 161:Drivers/STM32C0xx_HAL_Driver/Src/stm32c0xx_hal_flash_ex.c **** 
 1356              		.loc 1 161 7 is_stmt 1 view .LVU362
 1357 0052 FFF7FEFF 		bl	FLASH_MassErase
 1358              	.LVL101:
 164:Drivers/STM32C0xx_HAL_Driver/Src/stm32c0xx_hal_flash_ex.c ****     }
 1359              		.loc 1 164 7 view .LVU363
 164:Drivers/STM32C0xx_HAL_Driver/Src/stm32c0xx_hal_flash_ex.c ****     }
 1360              		.loc 1 164 16 is_stmt 0 view .LVU364
 1361 0056 FA20     		movs	r0, #250
 1362 0058 8000     		lsls	r0, r0, #2
 1363 005a FFF7FEFF 		bl	FLASH_WaitForLastOperation
 1364              	.LVL102:
 164:Drivers/STM32C0xx_HAL_Driver/Src/stm32c0xx_hal_flash_ex.c ****     }
 1365              		.loc 1 164 16 view .LVU365
 1366 005e 05E0     		b	.L96
 1367              	.LVL103:
 1368              	.L104:
 182:Drivers/STM32C0xx_HAL_Driver/Src/stm32c0xx_hal_flash_ex.c ****           break;
 1369              		.loc 1 182 11 is_stmt 1 view .LVU366
 182:Drivers/STM32C0xx_HAL_Driver/Src/stm32c0xx_hal_flash_ex.c ****           break;
 1370              		.loc 1 182 22 is_stmt 0 view .LVU367
 1371 0060 3460     		str	r4, [r6]
 183:Drivers/STM32C0xx_HAL_Driver/Src/stm32c0xx_hal_flash_ex.c ****         }
 1372              		.loc 1 183 11 is_stmt 1 view .LVU368
 1373              	.LVL104:
 1374              	.L100:
 188:Drivers/STM32C0xx_HAL_Driver/Src/stm32c0xx_hal_flash_ex.c ****     }
 1375              		.loc 1 188 7 view .LVU369
 1376 0062 064A     		ldr	r2, .L105+4
 1377 0064 5369     		ldr	r3, [r2, #20]
 1378 0066 0221     		movs	r1, #2
 1379 0068 8B43     		bics	r3, r1
 1380 006a 5361     		str	r3, [r2, #20]
 1381              	.LVL105:
 1382              	.L96:
 193:Drivers/STM32C0xx_HAL_Driver/Src/stm32c0xx_hal_flash_ex.c **** 
 1383              		.loc 1 193 3 view .LVU370
 193:Drivers/STM32C0xx_HAL_Driver/Src/stm32c0xx_hal_flash_ex.c **** 
 1384              		.loc 1 193 3 view .LVU371
 1385 006c 024B     		ldr	r3, .L105
 1386 006e 0022     		movs	r2, #0
 1387 0070 1A70     		strb	r2, [r3]
 193:Drivers/STM32C0xx_HAL_Driver/Src/stm32c0xx_hal_flash_ex.c **** 
 1388              		.loc 1 193 3 view .LVU372
ARM GAS  C:\Users\Yasi\AppData\Local\Temp\ccPp3WL9.s 			page 43


 196:Drivers/STM32C0xx_HAL_Driver/Src/stm32c0xx_hal_flash_ex.c **** }
 1389              		.loc 1 196 3 view .LVU373
 1390              	.LVL106:
 1391              	.L95:
 197:Drivers/STM32C0xx_HAL_Driver/Src/stm32c0xx_hal_flash_ex.c **** 
 1392              		.loc 1 197 1 is_stmt 0 view .LVU374
 1393              		@ sp needed
 1394              	.LVL107:
 1395              	.LVL108:
 197:Drivers/STM32C0xx_HAL_Driver/Src/stm32c0xx_hal_flash_ex.c **** 
 1396              		.loc 1 197 1 view .LVU375
 1397 0072 70BD     		pop	{r4, r5, r6, pc}
 1398              	.LVL109:
 1399              	.L102:
 148:Drivers/STM32C0xx_HAL_Driver/Src/stm32c0xx_hal_flash_ex.c **** 
 1400              		.loc 1 148 3 discriminator 1 view .LVU376
 1401 0074 0220     		movs	r0, #2
 1402              	.LVL110:
 148:Drivers/STM32C0xx_HAL_Driver/Src/stm32c0xx_hal_flash_ex.c **** 
 1403              		.loc 1 148 3 discriminator 1 view .LVU377
 1404 0076 FCE7     		b	.L95
 1405              	.L106:
 1406              		.align	2
 1407              	.L105:
 1408 0078 00000000 		.word	pFlash
 1409 007c 00200240 		.word	1073881088
 1410              		.cfi_endproc
 1411              	.LFE214:
 1413              		.section	.text.HAL_FLASHEx_Erase_IT,"ax",%progbits
 1414              		.align	1
 1415              		.global	HAL_FLASHEx_Erase_IT
 1416              		.syntax unified
 1417              		.code	16
 1418              		.thumb_func
 1420              	HAL_FLASHEx_Erase_IT:
 1421              	.LVL111:
 1422              	.LFB215:
 207:Drivers/STM32C0xx_HAL_Driver/Src/stm32c0xx_hal_flash_ex.c ****   HAL_StatusTypeDef status;
 1423              		.loc 1 207 1 is_stmt 1 view -0
 1424              		.cfi_startproc
 1425              		@ args = 0, pretend = 0, frame = 0
 1426              		@ frame_needed = 0, uses_anonymous_args = 0
 207:Drivers/STM32C0xx_HAL_Driver/Src/stm32c0xx_hal_flash_ex.c ****   HAL_StatusTypeDef status;
 1427              		.loc 1 207 1 is_stmt 0 view .LVU379
 1428 0000 70B5     		push	{r4, r5, r6, lr}
 1429              	.LCFI9:
 1430              		.cfi_def_cfa_offset 16
 1431              		.cfi_offset 4, -16
 1432              		.cfi_offset 5, -12
 1433              		.cfi_offset 6, -8
 1434              		.cfi_offset 14, -4
 1435 0002 0400     		movs	r4, r0
 208:Drivers/STM32C0xx_HAL_Driver/Src/stm32c0xx_hal_flash_ex.c **** 
 1436              		.loc 1 208 3 is_stmt 1 view .LVU380
 211:Drivers/STM32C0xx_HAL_Driver/Src/stm32c0xx_hal_flash_ex.c **** 
 1437              		.loc 1 211 3 view .LVU381
 214:Drivers/STM32C0xx_HAL_Driver/Src/stm32c0xx_hal_flash_ex.c **** 
ARM GAS  C:\Users\Yasi\AppData\Local\Temp\ccPp3WL9.s 			page 44


 1438              		.loc 1 214 3 view .LVU382
 214:Drivers/STM32C0xx_HAL_Driver/Src/stm32c0xx_hal_flash_ex.c **** 
 1439              		.loc 1 214 3 view .LVU383
 1440 0004 174B     		ldr	r3, .L113
 1441 0006 1B78     		ldrb	r3, [r3]
 1442 0008 012B     		cmp	r3, #1
 1443 000a 28D0     		beq	.L111
 214:Drivers/STM32C0xx_HAL_Driver/Src/stm32c0xx_hal_flash_ex.c **** 
 1444              		.loc 1 214 3 discriminator 2 view .LVU384
 1445 000c 154B     		ldr	r3, .L113
 1446 000e 0122     		movs	r2, #1
 1447 0010 1A70     		strb	r2, [r3]
 214:Drivers/STM32C0xx_HAL_Driver/Src/stm32c0xx_hal_flash_ex.c **** 
 1448              		.loc 1 214 3 discriminator 2 view .LVU385
 217:Drivers/STM32C0xx_HAL_Driver/Src/stm32c0xx_hal_flash_ex.c **** 
 1449              		.loc 1 217 3 view .LVU386
 217:Drivers/STM32C0xx_HAL_Driver/Src/stm32c0xx_hal_flash_ex.c **** 
 1450              		.loc 1 217 20 is_stmt 0 view .LVU387
 1451 0012 0022     		movs	r2, #0
 1452 0014 5A60     		str	r2, [r3, #4]
 220:Drivers/STM32C0xx_HAL_Driver/Src/stm32c0xx_hal_flash_ex.c **** 
 1453              		.loc 1 220 3 is_stmt 1 view .LVU388
 220:Drivers/STM32C0xx_HAL_Driver/Src/stm32c0xx_hal_flash_ex.c **** 
 1454              		.loc 1 220 39 is_stmt 0 view .LVU389
 1455 0016 0268     		ldr	r2, [r0]
 220:Drivers/STM32C0xx_HAL_Driver/Src/stm32c0xx_hal_flash_ex.c **** 
 1456              		.loc 1 220 27 view .LVU390
 1457 0018 9A60     		str	r2, [r3, #8]
 223:Drivers/STM32C0xx_HAL_Driver/Src/stm32c0xx_hal_flash_ex.c **** 
 1458              		.loc 1 223 3 is_stmt 1 view .LVU391
 223:Drivers/STM32C0xx_HAL_Driver/Src/stm32c0xx_hal_flash_ex.c **** 
 1459              		.loc 1 223 12 is_stmt 0 view .LVU392
 1460 001a FA20     		movs	r0, #250
 1461              	.LVL112:
 223:Drivers/STM32C0xx_HAL_Driver/Src/stm32c0xx_hal_flash_ex.c **** 
 1462              		.loc 1 223 12 view .LVU393
 1463 001c 8000     		lsls	r0, r0, #2
 1464 001e FFF7FEFF 		bl	FLASH_WaitForLastOperation
 1465              	.LVL113:
 1466 0022 051E     		subs	r5, r0, #0
 1467              	.LVL114:
 225:Drivers/STM32C0xx_HAL_Driver/Src/stm32c0xx_hal_flash_ex.c ****   {
 1468              		.loc 1 225 3 is_stmt 1 view .LVU394
 225:Drivers/STM32C0xx_HAL_Driver/Src/stm32c0xx_hal_flash_ex.c ****   {
 1469              		.loc 1 225 6 is_stmt 0 view .LVU395
 1470 0024 04D0     		beq	.L109
 228:Drivers/STM32C0xx_HAL_Driver/Src/stm32c0xx_hal_flash_ex.c ****   }
 1471              		.loc 1 228 5 is_stmt 1 view .LVU396
 228:Drivers/STM32C0xx_HAL_Driver/Src/stm32c0xx_hal_flash_ex.c ****   }
 1472              		.loc 1 228 5 view .LVU397
 1473 0026 0F4B     		ldr	r3, .L113
 1474 0028 0022     		movs	r2, #0
 1475 002a 1A70     		strb	r2, [r3]
 228:Drivers/STM32C0xx_HAL_Driver/Src/stm32c0xx_hal_flash_ex.c ****   }
 1476              		.loc 1 228 5 view .LVU398
 1477              	.LVL115:
 1478              	.L108:
ARM GAS  C:\Users\Yasi\AppData\Local\Temp\ccPp3WL9.s 			page 45


 256:Drivers/STM32C0xx_HAL_Driver/Src/stm32c0xx_hal_flash_ex.c **** 
 1479              		.loc 1 256 1 is_stmt 0 view .LVU399
 1480 002c 2800     		movs	r0, r5
 1481              		@ sp needed
 1482              	.LVL116:
 256:Drivers/STM32C0xx_HAL_Driver/Src/stm32c0xx_hal_flash_ex.c **** 
 1483              		.loc 1 256 1 view .LVU400
 1484 002e 70BD     		pop	{r4, r5, r6, pc}
 1485              	.LVL117:
 1486              	.L109:
 233:Drivers/STM32C0xx_HAL_Driver/Src/stm32c0xx_hal_flash_ex.c **** 
 1487              		.loc 1 233 5 is_stmt 1 view .LVU401
 1488 0030 0D4A     		ldr	r2, .L113+4
 1489 0032 5169     		ldr	r1, [r2, #20]
 1490 0034 C023     		movs	r3, #192
 1491 0036 9B04     		lsls	r3, r3, #18
 1492 0038 0B43     		orrs	r3, r1
 1493 003a 5361     		str	r3, [r2, #20]
 235:Drivers/STM32C0xx_HAL_Driver/Src/stm32c0xx_hal_flash_ex.c ****     {
 1494              		.loc 1 235 5 view .LVU402
 235:Drivers/STM32C0xx_HAL_Driver/Src/stm32c0xx_hal_flash_ex.c ****     {
 1495              		.loc 1 235 19 is_stmt 0 view .LVU403
 1496 003c 2368     		ldr	r3, [r4]
 235:Drivers/STM32C0xx_HAL_Driver/Src/stm32c0xx_hal_flash_ex.c ****     {
 1497              		.loc 1 235 8 view .LVU404
 1498 003e 042B     		cmp	r3, #4
 1499 0040 07D0     		beq	.L112
 246:Drivers/STM32C0xx_HAL_Driver/Src/stm32c0xx_hal_flash_ex.c ****       pFlash.Page = pEraseInit->Page;
 1500              		.loc 1 246 7 is_stmt 1 view .LVU405
 246:Drivers/STM32C0xx_HAL_Driver/Src/stm32c0xx_hal_flash_ex.c ****       pFlash.Page = pEraseInit->Page;
 1501              		.loc 1 246 41 is_stmt 0 view .LVU406
 1502 0042 A268     		ldr	r2, [r4, #8]
 246:Drivers/STM32C0xx_HAL_Driver/Src/stm32c0xx_hal_flash_ex.c ****       pFlash.Page = pEraseInit->Page;
 1503              		.loc 1 246 29 view .LVU407
 1504 0044 074B     		ldr	r3, .L113
 1505 0046 5A61     		str	r2, [r3, #20]
 247:Drivers/STM32C0xx_HAL_Driver/Src/stm32c0xx_hal_flash_ex.c **** 
 1506              		.loc 1 247 7 is_stmt 1 view .LVU408
 247:Drivers/STM32C0xx_HAL_Driver/Src/stm32c0xx_hal_flash_ex.c **** 
 1507              		.loc 1 247 31 is_stmt 0 view .LVU409
 1508 0048 6068     		ldr	r0, [r4, #4]
 1509              	.LVL118:
 247:Drivers/STM32C0xx_HAL_Driver/Src/stm32c0xx_hal_flash_ex.c **** 
 1510              		.loc 1 247 19 view .LVU410
 1511 004a 1861     		str	r0, [r3, #16]
 250:Drivers/STM32C0xx_HAL_Driver/Src/stm32c0xx_hal_flash_ex.c ****     }
 1512              		.loc 1 250 7 is_stmt 1 view .LVU411
 1513 004c FFF7FEFF 		bl	FLASH_PageErase
 1514              	.LVL119:
 1515 0050 ECE7     		b	.L108
 1516              	.LVL120:
 1517              	.L112:
 238:Drivers/STM32C0xx_HAL_Driver/Src/stm32c0xx_hal_flash_ex.c **** 
 1518              		.loc 1 238 7 view .LVU412
 238:Drivers/STM32C0xx_HAL_Driver/Src/stm32c0xx_hal_flash_ex.c **** 
 1519              		.loc 1 238 19 is_stmt 0 view .LVU413
 1520 0052 044B     		ldr	r3, .L113
ARM GAS  C:\Users\Yasi\AppData\Local\Temp\ccPp3WL9.s 			page 46


 1521 0054 0022     		movs	r2, #0
 1522 0056 1A61     		str	r2, [r3, #16]
 241:Drivers/STM32C0xx_HAL_Driver/Src/stm32c0xx_hal_flash_ex.c ****     }
 1523              		.loc 1 241 7 is_stmt 1 view .LVU414
 1524 0058 FFF7FEFF 		bl	FLASH_MassErase
 1525              	.LVL121:
 241:Drivers/STM32C0xx_HAL_Driver/Src/stm32c0xx_hal_flash_ex.c ****     }
 1526              		.loc 1 241 7 is_stmt 0 view .LVU415
 1527 005c E6E7     		b	.L108
 1528              	.LVL122:
 1529              	.L111:
 214:Drivers/STM32C0xx_HAL_Driver/Src/stm32c0xx_hal_flash_ex.c **** 
 1530              		.loc 1 214 3 discriminator 1 view .LVU416
 1531 005e 0225     		movs	r5, #2
 1532 0060 E4E7     		b	.L108
 1533              	.L114:
 1534 0062 C046     		.align	2
 1535              	.L113:
 1536 0064 00000000 		.word	pFlash
 1537 0068 00200240 		.word	1073881088
 1538              		.cfi_endproc
 1539              	.LFE215:
 1541              		.section	.text.FLASH_FlushCaches,"ax",%progbits
 1542              		.align	1
 1543              		.global	FLASH_FlushCaches
 1544              		.syntax unified
 1545              		.code	16
 1546              		.thumb_func
 1548              	FLASH_FlushCaches:
 1549              	.LFB225:
 510:Drivers/STM32C0xx_HAL_Driver/Src/stm32c0xx_hal_flash_ex.c ****   /* Flush instruction cache  */
 1550              		.loc 1 510 1 is_stmt 1 view -0
 1551              		.cfi_startproc
 1552              		@ args = 0, pretend = 0, frame = 0
 1553              		@ frame_needed = 0, uses_anonymous_args = 0
 1554              		@ link register save eliminated.
 512:Drivers/STM32C0xx_HAL_Driver/Src/stm32c0xx_hal_flash_ex.c ****   {
 1555              		.loc 1 512 3 view .LVU418
 512:Drivers/STM32C0xx_HAL_Driver/Src/stm32c0xx_hal_flash_ex.c ****   {
 1556              		.loc 1 512 7 is_stmt 0 view .LVU419
 1557 0000 0B4B     		ldr	r3, .L118
 1558 0002 1B68     		ldr	r3, [r3]
 512:Drivers/STM32C0xx_HAL_Driver/Src/stm32c0xx_hal_flash_ex.c ****   {
 1559              		.loc 1 512 6 view .LVU420
 1560 0004 9B05     		lsls	r3, r3, #22
 1561 0006 12D5     		bpl	.L115
 515:Drivers/STM32C0xx_HAL_Driver/Src/stm32c0xx_hal_flash_ex.c ****     /* Reset instruction cache */
 1562              		.loc 1 515 5 is_stmt 1 view .LVU421
 1563 0008 094B     		ldr	r3, .L118
 1564 000a 1A68     		ldr	r2, [r3]
 1565 000c 0949     		ldr	r1, .L118+4
 1566 000e 0A40     		ands	r2, r1
 1567 0010 1A60     		str	r2, [r3]
 517:Drivers/STM32C0xx_HAL_Driver/Src/stm32c0xx_hal_flash_ex.c ****     /* Enable instruction cache */
 1568              		.loc 1 517 5 view .LVU422
 517:Drivers/STM32C0xx_HAL_Driver/Src/stm32c0xx_hal_flash_ex.c ****     /* Enable instruction cache */
 1569              		.loc 1 517 5 view .LVU423
ARM GAS  C:\Users\Yasi\AppData\Local\Temp\ccPp3WL9.s 			page 47


 1570 0012 1968     		ldr	r1, [r3]
 1571 0014 8022     		movs	r2, #128
 1572 0016 1201     		lsls	r2, r2, #4
 1573 0018 0A43     		orrs	r2, r1
 1574 001a 1A60     		str	r2, [r3]
 517:Drivers/STM32C0xx_HAL_Driver/Src/stm32c0xx_hal_flash_ex.c ****     /* Enable instruction cache */
 1575              		.loc 1 517 5 view .LVU424
 1576 001c 1A68     		ldr	r2, [r3]
 1577 001e 0649     		ldr	r1, .L118+8
 1578 0020 0A40     		ands	r2, r1
 1579 0022 1A60     		str	r2, [r3]
 517:Drivers/STM32C0xx_HAL_Driver/Src/stm32c0xx_hal_flash_ex.c ****     /* Enable instruction cache */
 1580              		.loc 1 517 5 view .LVU425
 519:Drivers/STM32C0xx_HAL_Driver/Src/stm32c0xx_hal_flash_ex.c ****   }
 1581              		.loc 1 519 5 view .LVU426
 1582 0024 1968     		ldr	r1, [r3]
 1583 0026 8022     		movs	r2, #128
 1584 0028 9200     		lsls	r2, r2, #2
 1585 002a 0A43     		orrs	r2, r1
 1586 002c 1A60     		str	r2, [r3]
 1587              	.L115:
 521:Drivers/STM32C0xx_HAL_Driver/Src/stm32c0xx_hal_flash_ex.c **** 
 1588              		.loc 1 521 1 is_stmt 0 view .LVU427
 1589              		@ sp needed
 1590 002e 7047     		bx	lr
 1591              	.L119:
 1592              		.align	2
 1593              	.L118:
 1594 0030 00200240 		.word	1073881088
 1595 0034 FFFDFFFF 		.word	-513
 1596 0038 FFF7FFFF 		.word	-2049
 1597              		.cfi_endproc
 1598              	.LFE225:
 1600              		.text
 1601              	.Letext0:
 1602              		.file 2 "C:/Program Files (x86)/Arm GNU Toolchain arm-none-eabi/13.2 Rel1/arm-none-eabi/include/ma
 1603              		.file 3 "C:/Program Files (x86)/Arm GNU Toolchain arm-none-eabi/13.2 Rel1/arm-none-eabi/include/sy
 1604              		.file 4 "Drivers/CMSIS/Device/ST/STM32C0xx/Include/stm32c031xx.h"
 1605              		.file 5 "Drivers/STM32C0xx_HAL_Driver/Inc/stm32c0xx_hal_def.h"
 1606              		.file 6 "Drivers/STM32C0xx_HAL_Driver/Inc/stm32c0xx_hal_flash.h"
ARM GAS  C:\Users\Yasi\AppData\Local\Temp\ccPp3WL9.s 			page 48

