ARM GAS  C:\Users\Yasi\AppData\Local\Temp\cc42HZSo.s 			page 1


   1              		.cpu cortex-m0plus
   2              		.arch armv6s-m
   3              		.fpu softvfp
   4              		.eabi_attribute 20, 1
   5              		.eabi_attribute 21, 1
   6              		.eabi_attribute 23, 3
   7              		.eabi_attribute 24, 1
   8              		.eabi_attribute 25, 1
   9              		.eabi_attribute 26, 1
  10              		.eabi_attribute 30, 1
  11              		.eabi_attribute 34, 0
  12              		.eabi_attribute 18, 4
  13              		.file	"stm32c0xx_hal_gpio.c"
  14              		.text
  15              	.Ltext0:
  16              		.cfi_sections	.debug_frame
  17              		.file 1 "Drivers/STM32C0xx_HAL_Driver/Src/stm32c0xx_hal_gpio.c"
  18              		.section	.text.HAL_GPIO_Init,"ax",%progbits
  19              		.align	1
  20              		.global	HAL_GPIO_Init
  21              		.syntax unified
  22              		.code	16
  23              		.thumb_func
  25              	HAL_GPIO_Init:
  26              	.LVL0:
  27              	.LFB214:
   1:Drivers/STM32C0xx_HAL_Driver/Src/stm32c0xx_hal_gpio.c **** /**
   2:Drivers/STM32C0xx_HAL_Driver/Src/stm32c0xx_hal_gpio.c ****   ******************************************************************************
   3:Drivers/STM32C0xx_HAL_Driver/Src/stm32c0xx_hal_gpio.c ****   * @file    stm32c0xx_hal_gpio.c
   4:Drivers/STM32C0xx_HAL_Driver/Src/stm32c0xx_hal_gpio.c ****   * @author  MCD Application Team
   5:Drivers/STM32C0xx_HAL_Driver/Src/stm32c0xx_hal_gpio.c ****   * @brief   GPIO HAL module driver.
   6:Drivers/STM32C0xx_HAL_Driver/Src/stm32c0xx_hal_gpio.c ****   *          This file provides firmware functions to manage the following
   7:Drivers/STM32C0xx_HAL_Driver/Src/stm32c0xx_hal_gpio.c ****   *          functionalities of the General Purpose Input/Output (GPIO) peripheral:
   8:Drivers/STM32C0xx_HAL_Driver/Src/stm32c0xx_hal_gpio.c ****   *           + Initialization and de-initialization functions
   9:Drivers/STM32C0xx_HAL_Driver/Src/stm32c0xx_hal_gpio.c ****   *           + IO operation functions
  10:Drivers/STM32C0xx_HAL_Driver/Src/stm32c0xx_hal_gpio.c ****   ******************************************************************************
  11:Drivers/STM32C0xx_HAL_Driver/Src/stm32c0xx_hal_gpio.c ****   * @attention
  12:Drivers/STM32C0xx_HAL_Driver/Src/stm32c0xx_hal_gpio.c ****   *
  13:Drivers/STM32C0xx_HAL_Driver/Src/stm32c0xx_hal_gpio.c ****   * Copyright (c) 2022 STMicroelectronics.
  14:Drivers/STM32C0xx_HAL_Driver/Src/stm32c0xx_hal_gpio.c ****   * All rights reserved.
  15:Drivers/STM32C0xx_HAL_Driver/Src/stm32c0xx_hal_gpio.c ****   *
  16:Drivers/STM32C0xx_HAL_Driver/Src/stm32c0xx_hal_gpio.c ****   * This software is licensed under terms that can be found in the LICENSE file
  17:Drivers/STM32C0xx_HAL_Driver/Src/stm32c0xx_hal_gpio.c ****   * in the root directory of this software component.
  18:Drivers/STM32C0xx_HAL_Driver/Src/stm32c0xx_hal_gpio.c ****   * If no LICENSE file comes with this software, it is provided AS-IS.
  19:Drivers/STM32C0xx_HAL_Driver/Src/stm32c0xx_hal_gpio.c ****   *
  20:Drivers/STM32C0xx_HAL_Driver/Src/stm32c0xx_hal_gpio.c ****   ******************************************************************************
  21:Drivers/STM32C0xx_HAL_Driver/Src/stm32c0xx_hal_gpio.c ****   @verbatim
  22:Drivers/STM32C0xx_HAL_Driver/Src/stm32c0xx_hal_gpio.c ****   ==============================================================================
  23:Drivers/STM32C0xx_HAL_Driver/Src/stm32c0xx_hal_gpio.c ****                     ##### GPIO Peripheral features #####
  24:Drivers/STM32C0xx_HAL_Driver/Src/stm32c0xx_hal_gpio.c ****   ==============================================================================
  25:Drivers/STM32C0xx_HAL_Driver/Src/stm32c0xx_hal_gpio.c ****   [..]
  26:Drivers/STM32C0xx_HAL_Driver/Src/stm32c0xx_hal_gpio.c ****     (+) Each port bit of the general-purpose I/O (GPIO) ports can be individually
  27:Drivers/STM32C0xx_HAL_Driver/Src/stm32c0xx_hal_gpio.c ****         configured by software in several modes:
  28:Drivers/STM32C0xx_HAL_Driver/Src/stm32c0xx_hal_gpio.c ****         (++) Input mode
  29:Drivers/STM32C0xx_HAL_Driver/Src/stm32c0xx_hal_gpio.c ****         (++) Analog mode
  30:Drivers/STM32C0xx_HAL_Driver/Src/stm32c0xx_hal_gpio.c ****         (++) Output mode
  31:Drivers/STM32C0xx_HAL_Driver/Src/stm32c0xx_hal_gpio.c ****         (++) Alternate function mode
ARM GAS  C:\Users\Yasi\AppData\Local\Temp\cc42HZSo.s 			page 2


  32:Drivers/STM32C0xx_HAL_Driver/Src/stm32c0xx_hal_gpio.c ****         (++) External interrupt/event lines
  33:Drivers/STM32C0xx_HAL_Driver/Src/stm32c0xx_hal_gpio.c **** 
  34:Drivers/STM32C0xx_HAL_Driver/Src/stm32c0xx_hal_gpio.c ****     (+) During and just after reset, the alternate functions and external interrupt
  35:Drivers/STM32C0xx_HAL_Driver/Src/stm32c0xx_hal_gpio.c ****         lines are not active and the I/O ports are configured in input floating mode.
  36:Drivers/STM32C0xx_HAL_Driver/Src/stm32c0xx_hal_gpio.c **** 
  37:Drivers/STM32C0xx_HAL_Driver/Src/stm32c0xx_hal_gpio.c ****     (+) All GPIO pins have weak internal pull-up and pull-down resistors, which can be
  38:Drivers/STM32C0xx_HAL_Driver/Src/stm32c0xx_hal_gpio.c ****         activated or not.
  39:Drivers/STM32C0xx_HAL_Driver/Src/stm32c0xx_hal_gpio.c **** 
  40:Drivers/STM32C0xx_HAL_Driver/Src/stm32c0xx_hal_gpio.c ****     (+) In Output or Alternate mode, each IO can be configured on open-drain or push-pull
  41:Drivers/STM32C0xx_HAL_Driver/Src/stm32c0xx_hal_gpio.c ****         type and the IO speed can be selected depending on the VDD value.
  42:Drivers/STM32C0xx_HAL_Driver/Src/stm32c0xx_hal_gpio.c **** 
  43:Drivers/STM32C0xx_HAL_Driver/Src/stm32c0xx_hal_gpio.c ****     (+) The microcontroller IO pins are connected to onboard peripherals/modules through a
  44:Drivers/STM32C0xx_HAL_Driver/Src/stm32c0xx_hal_gpio.c ****         multiplexer that allows only one peripheral alternate function (AF) connected
  45:Drivers/STM32C0xx_HAL_Driver/Src/stm32c0xx_hal_gpio.c ****        to an IO pin at a time. In this way, there can be no conflict between peripherals
  46:Drivers/STM32C0xx_HAL_Driver/Src/stm32c0xx_hal_gpio.c ****        sharing the same IO pin.
  47:Drivers/STM32C0xx_HAL_Driver/Src/stm32c0xx_hal_gpio.c **** 
  48:Drivers/STM32C0xx_HAL_Driver/Src/stm32c0xx_hal_gpio.c ****     (+) All ports have external interrupt/event capability. To use external interrupt
  49:Drivers/STM32C0xx_HAL_Driver/Src/stm32c0xx_hal_gpio.c ****         lines, the port must be configured in input mode. All available GPIO pins are
  50:Drivers/STM32C0xx_HAL_Driver/Src/stm32c0xx_hal_gpio.c ****         connected to the 16 external interrupt/event lines from EXTI0 to EXTI15.
  51:Drivers/STM32C0xx_HAL_Driver/Src/stm32c0xx_hal_gpio.c **** 
  52:Drivers/STM32C0xx_HAL_Driver/Src/stm32c0xx_hal_gpio.c ****     (+) The external interrupt/event controller consists of up to 28 edge detectors
  53:Drivers/STM32C0xx_HAL_Driver/Src/stm32c0xx_hal_gpio.c ****         (16 lines are connected to GPIO) for generating event/interrupt requests (each
  54:Drivers/STM32C0xx_HAL_Driver/Src/stm32c0xx_hal_gpio.c ****         input line can be independently configured to select the type (interrupt or event)
  55:Drivers/STM32C0xx_HAL_Driver/Src/stm32c0xx_hal_gpio.c ****         and the corresponding trigger event (rising or falling or both). Each line can
  56:Drivers/STM32C0xx_HAL_Driver/Src/stm32c0xx_hal_gpio.c ****         also be masked independently.
  57:Drivers/STM32C0xx_HAL_Driver/Src/stm32c0xx_hal_gpio.c **** 
  58:Drivers/STM32C0xx_HAL_Driver/Src/stm32c0xx_hal_gpio.c ****                      ##### How to use this driver #####
  59:Drivers/STM32C0xx_HAL_Driver/Src/stm32c0xx_hal_gpio.c ****   ==============================================================================
  60:Drivers/STM32C0xx_HAL_Driver/Src/stm32c0xx_hal_gpio.c ****   [..]
  61:Drivers/STM32C0xx_HAL_Driver/Src/stm32c0xx_hal_gpio.c ****     (#) Enable the GPIO AHB clock using the following function: __HAL_RCC_GPIOx_CLK_ENABLE().
  62:Drivers/STM32C0xx_HAL_Driver/Src/stm32c0xx_hal_gpio.c **** 
  63:Drivers/STM32C0xx_HAL_Driver/Src/stm32c0xx_hal_gpio.c ****     (#) Configure the GPIO pin(s) using HAL_GPIO_Init().
  64:Drivers/STM32C0xx_HAL_Driver/Src/stm32c0xx_hal_gpio.c ****         (++) Configure the IO mode using "Mode" member from GPIO_InitTypeDef structure
  65:Drivers/STM32C0xx_HAL_Driver/Src/stm32c0xx_hal_gpio.c ****         (++) Activate Pull-up, Pull-down resistor using "Pull" member from GPIO_InitTypeDef
  66:Drivers/STM32C0xx_HAL_Driver/Src/stm32c0xx_hal_gpio.c ****              structure.
  67:Drivers/STM32C0xx_HAL_Driver/Src/stm32c0xx_hal_gpio.c ****         (++) In case of Output or alternate function mode selection: the speed is
  68:Drivers/STM32C0xx_HAL_Driver/Src/stm32c0xx_hal_gpio.c ****              configured through "Speed" member from GPIO_InitTypeDef structure.
  69:Drivers/STM32C0xx_HAL_Driver/Src/stm32c0xx_hal_gpio.c ****         (++) In alternate mode is selection, the alternate function connected to the IO
  70:Drivers/STM32C0xx_HAL_Driver/Src/stm32c0xx_hal_gpio.c ****              is configured through "Alternate" member from GPIO_InitTypeDef structure.
  71:Drivers/STM32C0xx_HAL_Driver/Src/stm32c0xx_hal_gpio.c ****         (++) Analog mode is required when a pin is to be used as ADC channel
  72:Drivers/STM32C0xx_HAL_Driver/Src/stm32c0xx_hal_gpio.c ****              or DAC output.
  73:Drivers/STM32C0xx_HAL_Driver/Src/stm32c0xx_hal_gpio.c ****         (++) In case of external interrupt/event selection the "Mode" member from
  74:Drivers/STM32C0xx_HAL_Driver/Src/stm32c0xx_hal_gpio.c ****              GPIO_InitTypeDef structure select the type (interrupt or event) and
  75:Drivers/STM32C0xx_HAL_Driver/Src/stm32c0xx_hal_gpio.c ****              the corresponding trigger event (rising or falling or both).
  76:Drivers/STM32C0xx_HAL_Driver/Src/stm32c0xx_hal_gpio.c **** 
  77:Drivers/STM32C0xx_HAL_Driver/Src/stm32c0xx_hal_gpio.c ****     (#) In case of external interrupt/event mode selection, configure NVIC IRQ priority
  78:Drivers/STM32C0xx_HAL_Driver/Src/stm32c0xx_hal_gpio.c ****         mapped to the EXTI line using HAL_NVIC_SetPriority() and enable it using
  79:Drivers/STM32C0xx_HAL_Driver/Src/stm32c0xx_hal_gpio.c ****         HAL_NVIC_EnableIRQ().
  80:Drivers/STM32C0xx_HAL_Driver/Src/stm32c0xx_hal_gpio.c **** 
  81:Drivers/STM32C0xx_HAL_Driver/Src/stm32c0xx_hal_gpio.c ****     (#) To get the level of a pin configured in input mode use HAL_GPIO_ReadPin().
  82:Drivers/STM32C0xx_HAL_Driver/Src/stm32c0xx_hal_gpio.c **** 
  83:Drivers/STM32C0xx_HAL_Driver/Src/stm32c0xx_hal_gpio.c ****     (#) To set/reset the level of a pin configured in output mode use
  84:Drivers/STM32C0xx_HAL_Driver/Src/stm32c0xx_hal_gpio.c ****         HAL_GPIO_WritePin()/HAL_GPIO_TogglePin().
  85:Drivers/STM32C0xx_HAL_Driver/Src/stm32c0xx_hal_gpio.c **** 
  86:Drivers/STM32C0xx_HAL_Driver/Src/stm32c0xx_hal_gpio.c ****     (#) To set the level of several pins and reset level of several other pins in
  87:Drivers/STM32C0xx_HAL_Driver/Src/stm32c0xx_hal_gpio.c ****         same cycle, use HAL_GPIO_WriteMultipleStatePin().
  88:Drivers/STM32C0xx_HAL_Driver/Src/stm32c0xx_hal_gpio.c **** 
ARM GAS  C:\Users\Yasi\AppData\Local\Temp\cc42HZSo.s 			page 3


  89:Drivers/STM32C0xx_HAL_Driver/Src/stm32c0xx_hal_gpio.c ****     (#) To lock pin configuration until next reset use HAL_GPIO_LockPin().
  90:Drivers/STM32C0xx_HAL_Driver/Src/stm32c0xx_hal_gpio.c **** 
  91:Drivers/STM32C0xx_HAL_Driver/Src/stm32c0xx_hal_gpio.c ****     (#) During and just after reset, the alternate functions are not
  92:Drivers/STM32C0xx_HAL_Driver/Src/stm32c0xx_hal_gpio.c ****         active and the GPIO pins are configured in input floating mode (except JTAG
  93:Drivers/STM32C0xx_HAL_Driver/Src/stm32c0xx_hal_gpio.c ****         pins).
  94:Drivers/STM32C0xx_HAL_Driver/Src/stm32c0xx_hal_gpio.c **** 
  95:Drivers/STM32C0xx_HAL_Driver/Src/stm32c0xx_hal_gpio.c ****     (#) The LSE oscillator pins OSC32_IN and OSC32_OUT can be used as general purpose
  96:Drivers/STM32C0xx_HAL_Driver/Src/stm32c0xx_hal_gpio.c ****         (PC14 and PC15, respectively) when the LSE oscillator is off. The LSE has
  97:Drivers/STM32C0xx_HAL_Driver/Src/stm32c0xx_hal_gpio.c ****         priority over the GPIO function.
  98:Drivers/STM32C0xx_HAL_Driver/Src/stm32c0xx_hal_gpio.c **** 
  99:Drivers/STM32C0xx_HAL_Driver/Src/stm32c0xx_hal_gpio.c ****     (#) The HSE oscillator pins OSC_IN/OSC_OUT can be used as
 100:Drivers/STM32C0xx_HAL_Driver/Src/stm32c0xx_hal_gpio.c ****         general purpose PF0 and PF1, respectively, when the HSE oscillator is off.
 101:Drivers/STM32C0xx_HAL_Driver/Src/stm32c0xx_hal_gpio.c ****         The HSE has priority over the GPIO function.
 102:Drivers/STM32C0xx_HAL_Driver/Src/stm32c0xx_hal_gpio.c **** 
 103:Drivers/STM32C0xx_HAL_Driver/Src/stm32c0xx_hal_gpio.c ****   @endverbatim
 104:Drivers/STM32C0xx_HAL_Driver/Src/stm32c0xx_hal_gpio.c ****   ******************************************************************************
 105:Drivers/STM32C0xx_HAL_Driver/Src/stm32c0xx_hal_gpio.c ****   */
 106:Drivers/STM32C0xx_HAL_Driver/Src/stm32c0xx_hal_gpio.c **** 
 107:Drivers/STM32C0xx_HAL_Driver/Src/stm32c0xx_hal_gpio.c **** /* Includes ------------------------------------------------------------------*/
 108:Drivers/STM32C0xx_HAL_Driver/Src/stm32c0xx_hal_gpio.c **** #include "stm32c0xx_hal.h"
 109:Drivers/STM32C0xx_HAL_Driver/Src/stm32c0xx_hal_gpio.c **** 
 110:Drivers/STM32C0xx_HAL_Driver/Src/stm32c0xx_hal_gpio.c **** /** @addtogroup STM32C0xx_HAL_Driver
 111:Drivers/STM32C0xx_HAL_Driver/Src/stm32c0xx_hal_gpio.c ****   * @{
 112:Drivers/STM32C0xx_HAL_Driver/Src/stm32c0xx_hal_gpio.c ****   */
 113:Drivers/STM32C0xx_HAL_Driver/Src/stm32c0xx_hal_gpio.c **** 
 114:Drivers/STM32C0xx_HAL_Driver/Src/stm32c0xx_hal_gpio.c **** /** @defgroup GPIO GPIO
 115:Drivers/STM32C0xx_HAL_Driver/Src/stm32c0xx_hal_gpio.c ****   * @brief GPIO HAL module driver
 116:Drivers/STM32C0xx_HAL_Driver/Src/stm32c0xx_hal_gpio.c ****   * @{
 117:Drivers/STM32C0xx_HAL_Driver/Src/stm32c0xx_hal_gpio.c ****   */
 118:Drivers/STM32C0xx_HAL_Driver/Src/stm32c0xx_hal_gpio.c **** #ifdef HAL_GPIO_MODULE_ENABLED
 119:Drivers/STM32C0xx_HAL_Driver/Src/stm32c0xx_hal_gpio.c **** 
 120:Drivers/STM32C0xx_HAL_Driver/Src/stm32c0xx_hal_gpio.c **** /* Private typedef -----------------------------------------------------------*/
 121:Drivers/STM32C0xx_HAL_Driver/Src/stm32c0xx_hal_gpio.c **** /* Private defines -----------------------------------------------------------*/
 122:Drivers/STM32C0xx_HAL_Driver/Src/stm32c0xx_hal_gpio.c **** /** @defgroup GPIO_Private_Defines GPIO Private Defines
 123:Drivers/STM32C0xx_HAL_Driver/Src/stm32c0xx_hal_gpio.c ****   * @{
 124:Drivers/STM32C0xx_HAL_Driver/Src/stm32c0xx_hal_gpio.c ****   */
 125:Drivers/STM32C0xx_HAL_Driver/Src/stm32c0xx_hal_gpio.c **** #define GPIO_MODE             (0x00000003U)
 126:Drivers/STM32C0xx_HAL_Driver/Src/stm32c0xx_hal_gpio.c **** #define EXTI_MODE             (0x10000000U)
 127:Drivers/STM32C0xx_HAL_Driver/Src/stm32c0xx_hal_gpio.c **** #define GPIO_MODE_IT          (0x00010000U)
 128:Drivers/STM32C0xx_HAL_Driver/Src/stm32c0xx_hal_gpio.c **** #define GPIO_MODE_EVT         (0x00020000U)
 129:Drivers/STM32C0xx_HAL_Driver/Src/stm32c0xx_hal_gpio.c **** #define RISING_EDGE           (0x00100000U)
 130:Drivers/STM32C0xx_HAL_Driver/Src/stm32c0xx_hal_gpio.c **** #define FALLING_EDGE          (0x00200000U)
 131:Drivers/STM32C0xx_HAL_Driver/Src/stm32c0xx_hal_gpio.c **** #define GPIO_OUTPUT_TYPE      (0x00000010U)
 132:Drivers/STM32C0xx_HAL_Driver/Src/stm32c0xx_hal_gpio.c **** #define GPIO_NUMBER           (16U)
 133:Drivers/STM32C0xx_HAL_Driver/Src/stm32c0xx_hal_gpio.c **** 
 134:Drivers/STM32C0xx_HAL_Driver/Src/stm32c0xx_hal_gpio.c **** /**
 135:Drivers/STM32C0xx_HAL_Driver/Src/stm32c0xx_hal_gpio.c ****   * @}
 136:Drivers/STM32C0xx_HAL_Driver/Src/stm32c0xx_hal_gpio.c ****   */
 137:Drivers/STM32C0xx_HAL_Driver/Src/stm32c0xx_hal_gpio.c **** 
 138:Drivers/STM32C0xx_HAL_Driver/Src/stm32c0xx_hal_gpio.c **** /* Private macros ------------------------------------------------------------*/
 139:Drivers/STM32C0xx_HAL_Driver/Src/stm32c0xx_hal_gpio.c **** /* Private variables ---------------------------------------------------------*/
 140:Drivers/STM32C0xx_HAL_Driver/Src/stm32c0xx_hal_gpio.c **** /** @defgroup GPIO_Private_Macros GPIO Private Macros
 141:Drivers/STM32C0xx_HAL_Driver/Src/stm32c0xx_hal_gpio.c ****   * @{
 142:Drivers/STM32C0xx_HAL_Driver/Src/stm32c0xx_hal_gpio.c ****   */
 143:Drivers/STM32C0xx_HAL_Driver/Src/stm32c0xx_hal_gpio.c **** /**
 144:Drivers/STM32C0xx_HAL_Driver/Src/stm32c0xx_hal_gpio.c ****   * @}
 145:Drivers/STM32C0xx_HAL_Driver/Src/stm32c0xx_hal_gpio.c ****   */
ARM GAS  C:\Users\Yasi\AppData\Local\Temp\cc42HZSo.s 			page 4


 146:Drivers/STM32C0xx_HAL_Driver/Src/stm32c0xx_hal_gpio.c **** 
 147:Drivers/STM32C0xx_HAL_Driver/Src/stm32c0xx_hal_gpio.c **** /* Private function prototypes -----------------------------------------------*/
 148:Drivers/STM32C0xx_HAL_Driver/Src/stm32c0xx_hal_gpio.c **** /* Exported functions --------------------------------------------------------*/
 149:Drivers/STM32C0xx_HAL_Driver/Src/stm32c0xx_hal_gpio.c **** 
 150:Drivers/STM32C0xx_HAL_Driver/Src/stm32c0xx_hal_gpio.c **** /** @defgroup GPIO_Exported_Functions GPIO Exported Functions
 151:Drivers/STM32C0xx_HAL_Driver/Src/stm32c0xx_hal_gpio.c ****   * @{
 152:Drivers/STM32C0xx_HAL_Driver/Src/stm32c0xx_hal_gpio.c ****   */
 153:Drivers/STM32C0xx_HAL_Driver/Src/stm32c0xx_hal_gpio.c **** 
 154:Drivers/STM32C0xx_HAL_Driver/Src/stm32c0xx_hal_gpio.c **** /** @defgroup GPIO_Exported_Functions_Group1 Initialization/de-initialization functions
 155:Drivers/STM32C0xx_HAL_Driver/Src/stm32c0xx_hal_gpio.c ****   *  @brief    Initialization and Configuration functions
 156:Drivers/STM32C0xx_HAL_Driver/Src/stm32c0xx_hal_gpio.c ****   *
 157:Drivers/STM32C0xx_HAL_Driver/Src/stm32c0xx_hal_gpio.c **** @verbatim
 158:Drivers/STM32C0xx_HAL_Driver/Src/stm32c0xx_hal_gpio.c ****  ===============================================================================
 159:Drivers/STM32C0xx_HAL_Driver/Src/stm32c0xx_hal_gpio.c ****               ##### Initialization and de-initialization functions #####
 160:Drivers/STM32C0xx_HAL_Driver/Src/stm32c0xx_hal_gpio.c ****  ===============================================================================
 161:Drivers/STM32C0xx_HAL_Driver/Src/stm32c0xx_hal_gpio.c **** 
 162:Drivers/STM32C0xx_HAL_Driver/Src/stm32c0xx_hal_gpio.c **** @endverbatim
 163:Drivers/STM32C0xx_HAL_Driver/Src/stm32c0xx_hal_gpio.c ****   * @{
 164:Drivers/STM32C0xx_HAL_Driver/Src/stm32c0xx_hal_gpio.c ****   */
 165:Drivers/STM32C0xx_HAL_Driver/Src/stm32c0xx_hal_gpio.c **** 
 166:Drivers/STM32C0xx_HAL_Driver/Src/stm32c0xx_hal_gpio.c **** /**
 167:Drivers/STM32C0xx_HAL_Driver/Src/stm32c0xx_hal_gpio.c ****   * @brief  Initialize the GPIOx peripheral according to the specified parameters in the GPIO_Init.
 168:Drivers/STM32C0xx_HAL_Driver/Src/stm32c0xx_hal_gpio.c ****   * @param  GPIOx where x can be (A..F) to select the GPIO peripheral for STM32C0xx family
 169:Drivers/STM32C0xx_HAL_Driver/Src/stm32c0xx_hal_gpio.c ****   * @param  pGPIO_Init pointer to a GPIO_InitTypeDef structure that contains
 170:Drivers/STM32C0xx_HAL_Driver/Src/stm32c0xx_hal_gpio.c ****   *         the configuration information for the specified GPIO peripheral.
 171:Drivers/STM32C0xx_HAL_Driver/Src/stm32c0xx_hal_gpio.c ****   * @retval None
 172:Drivers/STM32C0xx_HAL_Driver/Src/stm32c0xx_hal_gpio.c ****   */
 173:Drivers/STM32C0xx_HAL_Driver/Src/stm32c0xx_hal_gpio.c **** void HAL_GPIO_Init(GPIO_TypeDef  *GPIOx, const GPIO_InitTypeDef *pGPIO_Init)
 174:Drivers/STM32C0xx_HAL_Driver/Src/stm32c0xx_hal_gpio.c **** {
  28              		.loc 1 174 1 view -0
  29              		.cfi_startproc
  30              		@ args = 0, pretend = 0, frame = 0
  31              		@ frame_needed = 0, uses_anonymous_args = 0
  32              		.loc 1 174 1 is_stmt 0 view .LVU1
  33 0000 F0B5     		push	{r4, r5, r6, r7, lr}
  34              	.LCFI0:
  35              		.cfi_def_cfa_offset 20
  36              		.cfi_offset 4, -20
  37              		.cfi_offset 5, -16
  38              		.cfi_offset 6, -12
  39              		.cfi_offset 7, -8
  40              		.cfi_offset 14, -4
  41 0002 D646     		mov	lr, r10
  42 0004 4F46     		mov	r7, r9
  43 0006 4646     		mov	r6, r8
  44 0008 C0B5     		push	{r6, r7, lr}
  45              	.LCFI1:
  46              		.cfi_def_cfa_offset 32
  47              		.cfi_offset 8, -32
  48              		.cfi_offset 9, -28
  49              		.cfi_offset 10, -24
 175:Drivers/STM32C0xx_HAL_Driver/Src/stm32c0xx_hal_gpio.c ****   uint32_t tmp;
  50              		.loc 1 175 3 is_stmt 1 view .LVU2
 176:Drivers/STM32C0xx_HAL_Driver/Src/stm32c0xx_hal_gpio.c ****   uint32_t iocurrent;
  51              		.loc 1 176 3 view .LVU3
 177:Drivers/STM32C0xx_HAL_Driver/Src/stm32c0xx_hal_gpio.c ****   uint32_t position = 0U;
  52              		.loc 1 177 3 view .LVU4
ARM GAS  C:\Users\Yasi\AppData\Local\Temp\cc42HZSo.s 			page 5


  53              	.LVL1:
 178:Drivers/STM32C0xx_HAL_Driver/Src/stm32c0xx_hal_gpio.c **** 
 179:Drivers/STM32C0xx_HAL_Driver/Src/stm32c0xx_hal_gpio.c ****   /* Check the parameters */
 180:Drivers/STM32C0xx_HAL_Driver/Src/stm32c0xx_hal_gpio.c ****   assert_param(IS_GPIO_ALL_INSTANCE(GPIOx));
  54              		.loc 1 180 3 view .LVU5
 181:Drivers/STM32C0xx_HAL_Driver/Src/stm32c0xx_hal_gpio.c ****   assert_param(IS_GPIO_PIN(pGPIO_Init->Pin));
  55              		.loc 1 181 3 view .LVU6
 182:Drivers/STM32C0xx_HAL_Driver/Src/stm32c0xx_hal_gpio.c ****   assert_param(IS_GPIO_MODE(pGPIO_Init->Mode));
  56              		.loc 1 182 3 view .LVU7
 183:Drivers/STM32C0xx_HAL_Driver/Src/stm32c0xx_hal_gpio.c **** 
 184:Drivers/STM32C0xx_HAL_Driver/Src/stm32c0xx_hal_gpio.c ****   /* Configure the port pins */
 185:Drivers/STM32C0xx_HAL_Driver/Src/stm32c0xx_hal_gpio.c ****   while (((pGPIO_Init->Pin) >> position) != 0U)
  57              		.loc 1 185 3 view .LVU8
 177:Drivers/STM32C0xx_HAL_Driver/Src/stm32c0xx_hal_gpio.c **** 
  58              		.loc 1 177 12 is_stmt 0 view .LVU9
  59 000a 0023     		movs	r3, #0
  60              		.loc 1 185 9 view .LVU10
  61 000c 3BE0     		b	.L2
  62              	.LVL2:
  63              	.L26:
 186:Drivers/STM32C0xx_HAL_Driver/Src/stm32c0xx_hal_gpio.c ****   {
 187:Drivers/STM32C0xx_HAL_Driver/Src/stm32c0xx_hal_gpio.c ****     /* Get current io position */
 188:Drivers/STM32C0xx_HAL_Driver/Src/stm32c0xx_hal_gpio.c ****     iocurrent = (pGPIO_Init->Pin) & (1UL << position);
 189:Drivers/STM32C0xx_HAL_Driver/Src/stm32c0xx_hal_gpio.c **** 
 190:Drivers/STM32C0xx_HAL_Driver/Src/stm32c0xx_hal_gpio.c ****     if (iocurrent != 0U)
 191:Drivers/STM32C0xx_HAL_Driver/Src/stm32c0xx_hal_gpio.c ****     {
 192:Drivers/STM32C0xx_HAL_Driver/Src/stm32c0xx_hal_gpio.c ****       /*--------------------- GPIO Mode Configuration ------------------------*/
 193:Drivers/STM32C0xx_HAL_Driver/Src/stm32c0xx_hal_gpio.c ****       /* In case of Alternate function mode selection */
 194:Drivers/STM32C0xx_HAL_Driver/Src/stm32c0xx_hal_gpio.c ****       if ((pGPIO_Init->Mode == GPIO_MODE_AF_PP) || (pGPIO_Init->Mode == GPIO_MODE_AF_OD))
 195:Drivers/STM32C0xx_HAL_Driver/Src/stm32c0xx_hal_gpio.c ****       {
 196:Drivers/STM32C0xx_HAL_Driver/Src/stm32c0xx_hal_gpio.c ****         /* Check the Alternate function parameters */
 197:Drivers/STM32C0xx_HAL_Driver/Src/stm32c0xx_hal_gpio.c ****         assert_param(IS_GPIO_AF_INSTANCE(GPIOx));
 198:Drivers/STM32C0xx_HAL_Driver/Src/stm32c0xx_hal_gpio.c ****         assert_param(IS_GPIO_AF(pGPIO_Init->Alternate));
 199:Drivers/STM32C0xx_HAL_Driver/Src/stm32c0xx_hal_gpio.c **** 
 200:Drivers/STM32C0xx_HAL_Driver/Src/stm32c0xx_hal_gpio.c ****         /* Configure Alternate function mapped with the current IO */
 201:Drivers/STM32C0xx_HAL_Driver/Src/stm32c0xx_hal_gpio.c ****         tmp = GPIOx->AFR[position >> 3U];
 202:Drivers/STM32C0xx_HAL_Driver/Src/stm32c0xx_hal_gpio.c ****         tmp &= ~(0xFUL << ((position & 0x07U) * 4U)) ;
 203:Drivers/STM32C0xx_HAL_Driver/Src/stm32c0xx_hal_gpio.c ****         tmp |= ((pGPIO_Init->Alternate & 0x0FUL) << ((position & 0x07U) * 4U));
 204:Drivers/STM32C0xx_HAL_Driver/Src/stm32c0xx_hal_gpio.c ****         GPIOx->AFR[position >> 3U] = tmp;
 205:Drivers/STM32C0xx_HAL_Driver/Src/stm32c0xx_hal_gpio.c ****       }
 206:Drivers/STM32C0xx_HAL_Driver/Src/stm32c0xx_hal_gpio.c **** 
 207:Drivers/STM32C0xx_HAL_Driver/Src/stm32c0xx_hal_gpio.c ****       /* Configure IO Direction mode (Input, Output, Alternate or Analog) */
 208:Drivers/STM32C0xx_HAL_Driver/Src/stm32c0xx_hal_gpio.c ****       tmp = GPIOx->MODER;
 209:Drivers/STM32C0xx_HAL_Driver/Src/stm32c0xx_hal_gpio.c ****       tmp &= ~(GPIO_MODER_MODE0 << (position * 2U));
 210:Drivers/STM32C0xx_HAL_Driver/Src/stm32c0xx_hal_gpio.c ****       tmp |= ((pGPIO_Init->Mode & GPIO_MODE) << (position * 2U));
 211:Drivers/STM32C0xx_HAL_Driver/Src/stm32c0xx_hal_gpio.c ****       GPIOx->MODER = tmp;
 212:Drivers/STM32C0xx_HAL_Driver/Src/stm32c0xx_hal_gpio.c **** 
 213:Drivers/STM32C0xx_HAL_Driver/Src/stm32c0xx_hal_gpio.c ****       /* In case of Output or Alternate function mode selection */
 214:Drivers/STM32C0xx_HAL_Driver/Src/stm32c0xx_hal_gpio.c ****       if ((pGPIO_Init->Mode == GPIO_MODE_OUTPUT_PP) || (pGPIO_Init->Mode == GPIO_MODE_AF_PP) ||
 215:Drivers/STM32C0xx_HAL_Driver/Src/stm32c0xx_hal_gpio.c ****           (pGPIO_Init->Mode == GPIO_MODE_OUTPUT_OD) || (pGPIO_Init->Mode == GPIO_MODE_AF_OD))
 216:Drivers/STM32C0xx_HAL_Driver/Src/stm32c0xx_hal_gpio.c ****       {
 217:Drivers/STM32C0xx_HAL_Driver/Src/stm32c0xx_hal_gpio.c ****         /* Check the Speed parameter */
 218:Drivers/STM32C0xx_HAL_Driver/Src/stm32c0xx_hal_gpio.c ****         assert_param(IS_GPIO_SPEED(pGPIO_Init->Speed));
 219:Drivers/STM32C0xx_HAL_Driver/Src/stm32c0xx_hal_gpio.c **** 
 220:Drivers/STM32C0xx_HAL_Driver/Src/stm32c0xx_hal_gpio.c ****         /* Configure the IO Speed */
 221:Drivers/STM32C0xx_HAL_Driver/Src/stm32c0xx_hal_gpio.c ****         tmp = GPIOx->OSPEEDR;
 222:Drivers/STM32C0xx_HAL_Driver/Src/stm32c0xx_hal_gpio.c ****         tmp &= ~(GPIO_OSPEEDR_OSPEED0 << (position * 2U));
ARM GAS  C:\Users\Yasi\AppData\Local\Temp\cc42HZSo.s 			page 6


 223:Drivers/STM32C0xx_HAL_Driver/Src/stm32c0xx_hal_gpio.c ****         tmp |= (pGPIO_Init->Speed << (position * 2U));
 224:Drivers/STM32C0xx_HAL_Driver/Src/stm32c0xx_hal_gpio.c ****         GPIOx->OSPEEDR = tmp;
 225:Drivers/STM32C0xx_HAL_Driver/Src/stm32c0xx_hal_gpio.c **** 
 226:Drivers/STM32C0xx_HAL_Driver/Src/stm32c0xx_hal_gpio.c ****         /* Configure the IO Output Type */
 227:Drivers/STM32C0xx_HAL_Driver/Src/stm32c0xx_hal_gpio.c ****         tmp = GPIOx->OTYPER;
 228:Drivers/STM32C0xx_HAL_Driver/Src/stm32c0xx_hal_gpio.c ****         tmp &= ~(GPIO_OTYPER_OT0 << position) ;
 229:Drivers/STM32C0xx_HAL_Driver/Src/stm32c0xx_hal_gpio.c ****         tmp |= (((pGPIO_Init->Mode & GPIO_OUTPUT_TYPE) >> 4U) << position);
 230:Drivers/STM32C0xx_HAL_Driver/Src/stm32c0xx_hal_gpio.c ****         GPIOx->OTYPER = tmp;
 231:Drivers/STM32C0xx_HAL_Driver/Src/stm32c0xx_hal_gpio.c ****       }
 232:Drivers/STM32C0xx_HAL_Driver/Src/stm32c0xx_hal_gpio.c **** 
 233:Drivers/STM32C0xx_HAL_Driver/Src/stm32c0xx_hal_gpio.c ****       if (pGPIO_Init->Mode != GPIO_MODE_ANALOG)
 234:Drivers/STM32C0xx_HAL_Driver/Src/stm32c0xx_hal_gpio.c ****       {
 235:Drivers/STM32C0xx_HAL_Driver/Src/stm32c0xx_hal_gpio.c ****         /* Check the Pull parameters */
 236:Drivers/STM32C0xx_HAL_Driver/Src/stm32c0xx_hal_gpio.c ****         assert_param(IS_GPIO_PULL(pGPIO_Init->Pull));
 237:Drivers/STM32C0xx_HAL_Driver/Src/stm32c0xx_hal_gpio.c **** 
 238:Drivers/STM32C0xx_HAL_Driver/Src/stm32c0xx_hal_gpio.c ****         /* Activate the Pull-up or Pull down resistor for the current IO */
 239:Drivers/STM32C0xx_HAL_Driver/Src/stm32c0xx_hal_gpio.c ****         tmp = GPIOx->PUPDR;
 240:Drivers/STM32C0xx_HAL_Driver/Src/stm32c0xx_hal_gpio.c ****         tmp &= ~(GPIO_PUPDR_PUPD0 << (position * 2U));
 241:Drivers/STM32C0xx_HAL_Driver/Src/stm32c0xx_hal_gpio.c ****         tmp |= ((pGPIO_Init->Pull) << (position * 2U));
 242:Drivers/STM32C0xx_HAL_Driver/Src/stm32c0xx_hal_gpio.c ****         GPIOx->PUPDR = tmp;
 243:Drivers/STM32C0xx_HAL_Driver/Src/stm32c0xx_hal_gpio.c ****       }
 244:Drivers/STM32C0xx_HAL_Driver/Src/stm32c0xx_hal_gpio.c **** 
 245:Drivers/STM32C0xx_HAL_Driver/Src/stm32c0xx_hal_gpio.c ****       /*--------------------- EXTI Mode Configuration ------------------------*/
 246:Drivers/STM32C0xx_HAL_Driver/Src/stm32c0xx_hal_gpio.c ****       /* Configure the External Interrupt or event for the current IO */
 247:Drivers/STM32C0xx_HAL_Driver/Src/stm32c0xx_hal_gpio.c ****       if ((pGPIO_Init->Mode & EXTI_MODE) == EXTI_MODE)
 248:Drivers/STM32C0xx_HAL_Driver/Src/stm32c0xx_hal_gpio.c ****       {
 249:Drivers/STM32C0xx_HAL_Driver/Src/stm32c0xx_hal_gpio.c ****         tmp = EXTI->EXTICR[position >> 2U];
 250:Drivers/STM32C0xx_HAL_Driver/Src/stm32c0xx_hal_gpio.c ****         tmp &= ~((0x0FUL) << (8U * (position & 0x03U)));
 251:Drivers/STM32C0xx_HAL_Driver/Src/stm32c0xx_hal_gpio.c ****         tmp |= (GPIO_GET_INDEX(GPIOx) << (8U * (position & 0x03U)));
  64              		.loc 1 251 17 discriminator 9 view .LVU11
  65 000e 0525     		movs	r5, #5
  66 0010 00E0     		b	.L9
  67              	.L15:
  68              		.loc 1 251 17 discriminator 2 view .LVU12
  69 0012 0025     		movs	r5, #0
  70              	.L9:
  71              		.loc 1 251 39 discriminator 20 view .LVU13
  72 0014 A540     		lsls	r5, r5, r4
  73 0016 2C00     		movs	r4, r5
  74              		.loc 1 251 13 discriminator 20 view .LVU14
  75 0018 3C43     		orrs	r4, r7
  76              	.LVL3:
 252:Drivers/STM32C0xx_HAL_Driver/Src/stm32c0xx_hal_gpio.c ****         EXTI->EXTICR[position >> 2U] = tmp;
  77              		.loc 1 252 9 is_stmt 1 view .LVU15
  78              		.loc 1 252 38 is_stmt 0 view .LVU16
  79 001a 634D     		ldr	r5, .L27
  80 001c 1832     		adds	r2, r2, #24
  81 001e 9200     		lsls	r2, r2, #2
  82 0020 5451     		str	r4, [r2, r5]
 253:Drivers/STM32C0xx_HAL_Driver/Src/stm32c0xx_hal_gpio.c **** 
 254:Drivers/STM32C0xx_HAL_Driver/Src/stm32c0xx_hal_gpio.c ****         /* Clear EXTI line configuration */
 255:Drivers/STM32C0xx_HAL_Driver/Src/stm32c0xx_hal_gpio.c ****         tmp = EXTI->IMR1;
  83              		.loc 1 255 9 is_stmt 1 view .LVU17
  84              		.loc 1 255 13 is_stmt 0 view .LVU18
  85 0022 8022     		movs	r2, #128
  86 0024 AF58     		ldr	r7, [r5, r2]
  87              	.LVL4:
ARM GAS  C:\Users\Yasi\AppData\Local\Temp\cc42HZSo.s 			page 7


 256:Drivers/STM32C0xx_HAL_Driver/Src/stm32c0xx_hal_gpio.c ****         tmp &= ~((uint32_t)iocurrent);
  88              		.loc 1 256 9 is_stmt 1 view .LVU19
  89              		.loc 1 256 16 is_stmt 0 view .LVU20
  90 0026 4A46     		mov	r2, r9
  91 0028 D243     		mvns	r2, r2
  92              		.loc 1 256 13 view .LVU21
  93 002a 3D00     		movs	r5, r7
  94 002c 4C46     		mov	r4, r9
  95 002e A543     		bics	r5, r4
  96              	.LVL5:
 257:Drivers/STM32C0xx_HAL_Driver/Src/stm32c0xx_hal_gpio.c ****         if ((pGPIO_Init->Mode & GPIO_MODE_IT) == GPIO_MODE_IT)
  97              		.loc 1 257 9 is_stmt 1 view .LVU22
  98              		.loc 1 257 24 is_stmt 0 view .LVU23
  99 0030 4C68     		ldr	r4, [r1, #4]
 100              		.loc 1 257 12 view .LVU24
 101 0032 E403     		lsls	r4, r4, #15
 102 0034 02D5     		bpl	.L10
 258:Drivers/STM32C0xx_HAL_Driver/Src/stm32c0xx_hal_gpio.c ****         {
 259:Drivers/STM32C0xx_HAL_Driver/Src/stm32c0xx_hal_gpio.c ****           tmp |= iocurrent;
 103              		.loc 1 259 11 is_stmt 1 view .LVU25
 104              		.loc 1 259 15 is_stmt 0 view .LVU26
 105 0036 3D00     		movs	r5, r7
 106              	.LVL6:
 107              		.loc 1 259 15 view .LVU27
 108 0038 4C46     		mov	r4, r9
 109 003a 2543     		orrs	r5, r4
 110              	.LVL7:
 111              	.L10:
 260:Drivers/STM32C0xx_HAL_Driver/Src/stm32c0xx_hal_gpio.c ****         }
 261:Drivers/STM32C0xx_HAL_Driver/Src/stm32c0xx_hal_gpio.c ****         EXTI->IMR1 = tmp;
 112              		.loc 1 261 9 is_stmt 1 view .LVU28
 113              		.loc 1 261 20 is_stmt 0 view .LVU29
 114 003c 5A4C     		ldr	r4, .L27
 115 003e 8027     		movs	r7, #128
 116 0040 E551     		str	r5, [r4, r7]
 262:Drivers/STM32C0xx_HAL_Driver/Src/stm32c0xx_hal_gpio.c **** 
 263:Drivers/STM32C0xx_HAL_Driver/Src/stm32c0xx_hal_gpio.c ****         tmp = EXTI->EMR1;
 117              		.loc 1 263 9 is_stmt 1 view .LVU30
 118              		.loc 1 263 13 is_stmt 0 view .LVU31
 119 0042 8425     		movs	r5, #132
 120              	.LVL8:
 121              		.loc 1 263 13 view .LVU32
 122 0044 6759     		ldr	r7, [r4, r5]
 123              	.LVL9:
 264:Drivers/STM32C0xx_HAL_Driver/Src/stm32c0xx_hal_gpio.c ****         tmp &= ~((uint32_t)iocurrent);
 124              		.loc 1 264 9 is_stmt 1 view .LVU33
 125              		.loc 1 264 13 is_stmt 0 view .LVU34
 126 0046 3D00     		movs	r5, r7
 127 0048 1540     		ands	r5, r2
 128              	.LVL10:
 265:Drivers/STM32C0xx_HAL_Driver/Src/stm32c0xx_hal_gpio.c ****         if ((pGPIO_Init->Mode & GPIO_MODE_EVT) == GPIO_MODE_EVT)
 129              		.loc 1 265 9 is_stmt 1 view .LVU35
 130              		.loc 1 265 24 is_stmt 0 view .LVU36
 131 004a 4C68     		ldr	r4, [r1, #4]
 132              		.loc 1 265 12 view .LVU37
 133 004c A403     		lsls	r4, r4, #14
 134 004e 02D5     		bpl	.L11
ARM GAS  C:\Users\Yasi\AppData\Local\Temp\cc42HZSo.s 			page 8


 266:Drivers/STM32C0xx_HAL_Driver/Src/stm32c0xx_hal_gpio.c ****         {
 267:Drivers/STM32C0xx_HAL_Driver/Src/stm32c0xx_hal_gpio.c ****           tmp |= iocurrent;
 135              		.loc 1 267 11 is_stmt 1 view .LVU38
 136              		.loc 1 267 15 is_stmt 0 view .LVU39
 137 0050 3D00     		movs	r5, r7
 138              	.LVL11:
 139              		.loc 1 267 15 view .LVU40
 140 0052 4C46     		mov	r4, r9
 141 0054 2543     		orrs	r5, r4
 142              	.LVL12:
 143              	.L11:
 268:Drivers/STM32C0xx_HAL_Driver/Src/stm32c0xx_hal_gpio.c ****         }
 269:Drivers/STM32C0xx_HAL_Driver/Src/stm32c0xx_hal_gpio.c ****         EXTI->EMR1 = tmp;
 144              		.loc 1 269 9 is_stmt 1 view .LVU41
 145              		.loc 1 269 20 is_stmt 0 view .LVU42
 146 0056 544C     		ldr	r4, .L27
 147 0058 8427     		movs	r7, #132
 148 005a E551     		str	r5, [r4, r7]
 270:Drivers/STM32C0xx_HAL_Driver/Src/stm32c0xx_hal_gpio.c **** 
 271:Drivers/STM32C0xx_HAL_Driver/Src/stm32c0xx_hal_gpio.c ****         /* Clear Rising Falling edge configuration */
 272:Drivers/STM32C0xx_HAL_Driver/Src/stm32c0xx_hal_gpio.c ****         tmp = EXTI->RTSR1;
 149              		.loc 1 272 9 is_stmt 1 view .LVU43
 150              		.loc 1 272 13 is_stmt 0 view .LVU44
 151 005c 2768     		ldr	r7, [r4]
 152              	.LVL13:
 273:Drivers/STM32C0xx_HAL_Driver/Src/stm32c0xx_hal_gpio.c ****         tmp &= ~((uint32_t)iocurrent);
 153              		.loc 1 273 9 is_stmt 1 view .LVU45
 154              		.loc 1 273 13 is_stmt 0 view .LVU46
 155 005e 3D00     		movs	r5, r7
 156 0060 1540     		ands	r5, r2
 157              	.LVL14:
 274:Drivers/STM32C0xx_HAL_Driver/Src/stm32c0xx_hal_gpio.c ****         if ((pGPIO_Init->Mode & RISING_EDGE) == RISING_EDGE)
 158              		.loc 1 274 9 is_stmt 1 view .LVU47
 159              		.loc 1 274 24 is_stmt 0 view .LVU48
 160 0062 4C68     		ldr	r4, [r1, #4]
 161              		.loc 1 274 12 view .LVU49
 162 0064 E402     		lsls	r4, r4, #11
 163 0066 02D5     		bpl	.L12
 275:Drivers/STM32C0xx_HAL_Driver/Src/stm32c0xx_hal_gpio.c ****         {
 276:Drivers/STM32C0xx_HAL_Driver/Src/stm32c0xx_hal_gpio.c ****           tmp |= iocurrent;
 164              		.loc 1 276 11 is_stmt 1 view .LVU50
 165              		.loc 1 276 15 is_stmt 0 view .LVU51
 166 0068 3D00     		movs	r5, r7
 167              	.LVL15:
 168              		.loc 1 276 15 view .LVU52
 169 006a 4C46     		mov	r4, r9
 170 006c 2543     		orrs	r5, r4
 171              	.LVL16:
 172              	.L12:
 277:Drivers/STM32C0xx_HAL_Driver/Src/stm32c0xx_hal_gpio.c ****         }
 278:Drivers/STM32C0xx_HAL_Driver/Src/stm32c0xx_hal_gpio.c ****         EXTI->RTSR1 = tmp;
 173              		.loc 1 278 9 is_stmt 1 view .LVU53
 174              		.loc 1 278 21 is_stmt 0 view .LVU54
 175 006e 4E4C     		ldr	r4, .L27
 176 0070 2560     		str	r5, [r4]
 279:Drivers/STM32C0xx_HAL_Driver/Src/stm32c0xx_hal_gpio.c **** 
 280:Drivers/STM32C0xx_HAL_Driver/Src/stm32c0xx_hal_gpio.c ****         tmp = EXTI->FTSR1;
ARM GAS  C:\Users\Yasi\AppData\Local\Temp\cc42HZSo.s 			page 9


 177              		.loc 1 280 9 is_stmt 1 view .LVU55
 178              		.loc 1 280 13 is_stmt 0 view .LVU56
 179 0072 6568     		ldr	r5, [r4, #4]
 180              	.LVL17:
 281:Drivers/STM32C0xx_HAL_Driver/Src/stm32c0xx_hal_gpio.c ****         tmp &= ~((uint32_t)iocurrent);
 181              		.loc 1 281 9 is_stmt 1 view .LVU57
 182              		.loc 1 281 13 is_stmt 0 view .LVU58
 183 0074 2A40     		ands	r2, r5
 184              	.LVL18:
 282:Drivers/STM32C0xx_HAL_Driver/Src/stm32c0xx_hal_gpio.c ****         if ((pGPIO_Init->Mode & FALLING_EDGE) == FALLING_EDGE)
 185              		.loc 1 282 9 is_stmt 1 view .LVU59
 186              		.loc 1 282 24 is_stmt 0 view .LVU60
 187 0076 4C68     		ldr	r4, [r1, #4]
 188              		.loc 1 282 12 view .LVU61
 189 0078 A402     		lsls	r4, r4, #10
 190 007a 01D5     		bpl	.L13
 283:Drivers/STM32C0xx_HAL_Driver/Src/stm32c0xx_hal_gpio.c ****         {
 284:Drivers/STM32C0xx_HAL_Driver/Src/stm32c0xx_hal_gpio.c ****           tmp |= iocurrent;
 191              		.loc 1 284 11 is_stmt 1 view .LVU62
 192              		.loc 1 284 15 is_stmt 0 view .LVU63
 193 007c 4A46     		mov	r2, r9
 194              	.LVL19:
 195              		.loc 1 284 15 view .LVU64
 196 007e 2A43     		orrs	r2, r5
 197              	.LVL20:
 198              	.L13:
 285:Drivers/STM32C0xx_HAL_Driver/Src/stm32c0xx_hal_gpio.c ****         }
 286:Drivers/STM32C0xx_HAL_Driver/Src/stm32c0xx_hal_gpio.c ****         EXTI->FTSR1 = tmp;
 199              		.loc 1 286 9 is_stmt 1 view .LVU65
 200              		.loc 1 286 21 is_stmt 0 view .LVU66
 201 0080 494C     		ldr	r4, .L27
 202 0082 6260     		str	r2, [r4, #4]
 203              	.LVL21:
 204              	.L3:
 287:Drivers/STM32C0xx_HAL_Driver/Src/stm32c0xx_hal_gpio.c ****       }
 288:Drivers/STM32C0xx_HAL_Driver/Src/stm32c0xx_hal_gpio.c ****     }
 289:Drivers/STM32C0xx_HAL_Driver/Src/stm32c0xx_hal_gpio.c **** 
 290:Drivers/STM32C0xx_HAL_Driver/Src/stm32c0xx_hal_gpio.c ****     position++;
 205              		.loc 1 290 5 is_stmt 1 view .LVU67
 206              		.loc 1 290 13 is_stmt 0 view .LVU68
 207 0084 0133     		adds	r3, r3, #1
 208              	.LVL22:
 209              	.L2:
 185:Drivers/STM32C0xx_HAL_Driver/Src/stm32c0xx_hal_gpio.c ****   {
 210              		.loc 1 185 42 is_stmt 1 view .LVU69
 185:Drivers/STM32C0xx_HAL_Driver/Src/stm32c0xx_hal_gpio.c ****   {
 211              		.loc 1 185 22 is_stmt 0 view .LVU70
 212 0086 0C68     		ldr	r4, [r1]
 185:Drivers/STM32C0xx_HAL_Driver/Src/stm32c0xx_hal_gpio.c ****   {
 213              		.loc 1 185 29 view .LVU71
 214 0088 2200     		movs	r2, r4
 215 008a DA40     		lsrs	r2, r2, r3
 185:Drivers/STM32C0xx_HAL_Driver/Src/stm32c0xx_hal_gpio.c ****   {
 216              		.loc 1 185 42 view .LVU72
 217 008c 00D1     		bne	.LCB199
 218 008e 86E0     		b	.L25	@long jump
 219              	.LCB199:
ARM GAS  C:\Users\Yasi\AppData\Local\Temp\cc42HZSo.s 			page 10


 188:Drivers/STM32C0xx_HAL_Driver/Src/stm32c0xx_hal_gpio.c **** 
 220              		.loc 1 188 5 is_stmt 1 view .LVU73
 188:Drivers/STM32C0xx_HAL_Driver/Src/stm32c0xx_hal_gpio.c **** 
 221              		.loc 1 188 42 is_stmt 0 view .LVU74
 222 0090 0122     		movs	r2, #1
 223 0092 9A40     		lsls	r2, r2, r3
 188:Drivers/STM32C0xx_HAL_Driver/Src/stm32c0xx_hal_gpio.c **** 
 224              		.loc 1 188 15 view .LVU75
 225 0094 2600     		movs	r6, r4
 226 0096 1640     		ands	r6, r2
 227 0098 B146     		mov	r9, r6
 228              	.LVL23:
 190:Drivers/STM32C0xx_HAL_Driver/Src/stm32c0xx_hal_gpio.c ****     {
 229              		.loc 1 190 5 is_stmt 1 view .LVU76
 190:Drivers/STM32C0xx_HAL_Driver/Src/stm32c0xx_hal_gpio.c ****     {
 230              		.loc 1 190 8 is_stmt 0 view .LVU77
 231 009a 1442     		tst	r4, r2
 232 009c F2D0     		beq	.L3
 194:Drivers/STM32C0xx_HAL_Driver/Src/stm32c0xx_hal_gpio.c ****       {
 233              		.loc 1 194 7 is_stmt 1 view .LVU78
 194:Drivers/STM32C0xx_HAL_Driver/Src/stm32c0xx_hal_gpio.c ****       {
 234              		.loc 1 194 22 is_stmt 0 view .LVU79
 235 009e 4C68     		ldr	r4, [r1, #4]
 194:Drivers/STM32C0xx_HAL_Driver/Src/stm32c0xx_hal_gpio.c ****       {
 236              		.loc 1 194 10 view .LVU80
 237 00a0 022C     		cmp	r4, #2
 238 00a2 01D0     		beq	.L4
 194:Drivers/STM32C0xx_HAL_Driver/Src/stm32c0xx_hal_gpio.c ****       {
 239              		.loc 1 194 49 discriminator 1 view .LVU81
 240 00a4 122C     		cmp	r4, #18
 241 00a6 18D1     		bne	.L5
 242              	.L4:
 197:Drivers/STM32C0xx_HAL_Driver/Src/stm32c0xx_hal_gpio.c ****         assert_param(IS_GPIO_AF(pGPIO_Init->Alternate));
 243              		.loc 1 197 9 is_stmt 1 view .LVU82
 198:Drivers/STM32C0xx_HAL_Driver/Src/stm32c0xx_hal_gpio.c **** 
 244              		.loc 1 198 9 view .LVU83
 201:Drivers/STM32C0xx_HAL_Driver/Src/stm32c0xx_hal_gpio.c ****         tmp &= ~(0xFUL << ((position & 0x07U) * 4U)) ;
 245              		.loc 1 201 9 view .LVU84
 201:Drivers/STM32C0xx_HAL_Driver/Src/stm32c0xx_hal_gpio.c ****         tmp &= ~(0xFUL << ((position & 0x07U) * 4U)) ;
 246              		.loc 1 201 35 is_stmt 0 view .LVU85
 247 00a8 DD08     		lsrs	r5, r3, #3
 201:Drivers/STM32C0xx_HAL_Driver/Src/stm32c0xx_hal_gpio.c ****         tmp &= ~(0xFUL << ((position & 0x07U) * 4U)) ;
 248              		.loc 1 201 13 view .LVU86
 249 00aa 0835     		adds	r5, r5, #8
 250 00ac AD00     		lsls	r5, r5, #2
 251 00ae 2C58     		ldr	r4, [r5, r0]
 252 00b0 A446     		mov	ip, r4
 253              	.LVL24:
 202:Drivers/STM32C0xx_HAL_Driver/Src/stm32c0xx_hal_gpio.c ****         tmp |= ((pGPIO_Init->Alternate & 0x0FUL) << ((position & 0x07U) * 4U));
 254              		.loc 1 202 9 is_stmt 1 view .LVU87
 202:Drivers/STM32C0xx_HAL_Driver/Src/stm32c0xx_hal_gpio.c ****         tmp |= ((pGPIO_Init->Alternate & 0x0FUL) << ((position & 0x07U) * 4U));
 255              		.loc 1 202 38 is_stmt 0 view .LVU88
 256 00b2 0727     		movs	r7, #7
 257 00b4 1F40     		ands	r7, r3
 202:Drivers/STM32C0xx_HAL_Driver/Src/stm32c0xx_hal_gpio.c ****         tmp |= ((pGPIO_Init->Alternate & 0x0FUL) << ((position & 0x07U) * 4U));
 258              		.loc 1 202 47 view .LVU89
 259 00b6 BF00     		lsls	r7, r7, #2
ARM GAS  C:\Users\Yasi\AppData\Local\Temp\cc42HZSo.s 			page 11


 202:Drivers/STM32C0xx_HAL_Driver/Src/stm32c0xx_hal_gpio.c ****         tmp |= ((pGPIO_Init->Alternate & 0x0FUL) << ((position & 0x07U) * 4U));
 260              		.loc 1 202 24 view .LVU90
 261 00b8 0F24     		movs	r4, #15
 262              	.LVL25:
 202:Drivers/STM32C0xx_HAL_Driver/Src/stm32c0xx_hal_gpio.c ****         tmp |= ((pGPIO_Init->Alternate & 0x0FUL) << ((position & 0x07U) * 4U));
 263              		.loc 1 202 24 view .LVU91
 264 00ba A246     		mov	r10, r4
 265 00bc 2600     		movs	r6, r4
 266              	.LVL26:
 202:Drivers/STM32C0xx_HAL_Driver/Src/stm32c0xx_hal_gpio.c ****         tmp |= ((pGPIO_Init->Alternate & 0x0FUL) << ((position & 0x07U) * 4U));
 267              		.loc 1 202 24 view .LVU92
 268 00be BE40     		lsls	r6, r6, r7
 269 00c0 B046     		mov	r8, r6
 202:Drivers/STM32C0xx_HAL_Driver/Src/stm32c0xx_hal_gpio.c ****         tmp |= ((pGPIO_Init->Alternate & 0x0FUL) << ((position & 0x07U) * 4U));
 270              		.loc 1 202 13 view .LVU93
 271 00c2 6646     		mov	r6, ip
 272 00c4 4446     		mov	r4, r8
 273 00c6 A643     		bics	r6, r4
 274 00c8 B446     		mov	ip, r6
 275              	.LVL27:
 203:Drivers/STM32C0xx_HAL_Driver/Src/stm32c0xx_hal_gpio.c ****         GPIOx->AFR[position >> 3U] = tmp;
 276              		.loc 1 203 9 is_stmt 1 view .LVU94
 203:Drivers/STM32C0xx_HAL_Driver/Src/stm32c0xx_hal_gpio.c ****         GPIOx->AFR[position >> 3U] = tmp;
 277              		.loc 1 203 28 is_stmt 0 view .LVU95
 278 00ca 0C69     		ldr	r4, [r1, #16]
 203:Drivers/STM32C0xx_HAL_Driver/Src/stm32c0xx_hal_gpio.c ****         GPIOx->AFR[position >> 3U] = tmp;
 279              		.loc 1 203 40 view .LVU96
 280 00cc 5646     		mov	r6, r10
 281              	.LVL28:
 203:Drivers/STM32C0xx_HAL_Driver/Src/stm32c0xx_hal_gpio.c ****         GPIOx->AFR[position >> 3U] = tmp;
 282              		.loc 1 203 40 view .LVU97
 283 00ce 2640     		ands	r6, r4
 284 00d0 3400     		movs	r4, r6
 203:Drivers/STM32C0xx_HAL_Driver/Src/stm32c0xx_hal_gpio.c ****         GPIOx->AFR[position >> 3U] = tmp;
 285              		.loc 1 203 50 view .LVU98
 286 00d2 BC40     		lsls	r4, r4, r7
 203:Drivers/STM32C0xx_HAL_Driver/Src/stm32c0xx_hal_gpio.c ****         GPIOx->AFR[position >> 3U] = tmp;
 287              		.loc 1 203 13 view .LVU99
 288 00d4 6646     		mov	r6, ip
 289 00d6 3443     		orrs	r4, r6
 290              	.LVL29:
 204:Drivers/STM32C0xx_HAL_Driver/Src/stm32c0xx_hal_gpio.c ****       }
 291              		.loc 1 204 9 is_stmt 1 view .LVU100
 204:Drivers/STM32C0xx_HAL_Driver/Src/stm32c0xx_hal_gpio.c ****       }
 292              		.loc 1 204 36 is_stmt 0 view .LVU101
 293 00d8 2C50     		str	r4, [r5, r0]
 294              	.LVL30:
 295              	.L5:
 208:Drivers/STM32C0xx_HAL_Driver/Src/stm32c0xx_hal_gpio.c ****       tmp &= ~(GPIO_MODER_MODE0 << (position * 2U));
 296              		.loc 1 208 7 is_stmt 1 view .LVU102
 208:Drivers/STM32C0xx_HAL_Driver/Src/stm32c0xx_hal_gpio.c ****       tmp &= ~(GPIO_MODER_MODE0 << (position * 2U));
 297              		.loc 1 208 11 is_stmt 0 view .LVU103
 298 00da 0468     		ldr	r4, [r0]
 299 00dc A446     		mov	ip, r4
 300              	.LVL31:
 209:Drivers/STM32C0xx_HAL_Driver/Src/stm32c0xx_hal_gpio.c ****       tmp |= ((pGPIO_Init->Mode & GPIO_MODE) << (position * 2U));
 301              		.loc 1 209 7 is_stmt 1 view .LVU104
ARM GAS  C:\Users\Yasi\AppData\Local\Temp\cc42HZSo.s 			page 12


 209:Drivers/STM32C0xx_HAL_Driver/Src/stm32c0xx_hal_gpio.c ****       tmp |= ((pGPIO_Init->Mode & GPIO_MODE) << (position * 2U));
 302              		.loc 1 209 46 is_stmt 0 view .LVU105
 303 00de 5D00     		lsls	r5, r3, #1
 209:Drivers/STM32C0xx_HAL_Driver/Src/stm32c0xx_hal_gpio.c ****       tmp |= ((pGPIO_Init->Mode & GPIO_MODE) << (position * 2U));
 304              		.loc 1 209 33 view .LVU106
 305 00e0 0324     		movs	r4, #3
 306              	.LVL32:
 209:Drivers/STM32C0xx_HAL_Driver/Src/stm32c0xx_hal_gpio.c ****       tmp |= ((pGPIO_Init->Mode & GPIO_MODE) << (position * 2U));
 307              		.loc 1 209 33 view .LVU107
 308 00e2 A246     		mov	r10, r4
 309 00e4 2700     		movs	r7, r4
 310 00e6 AF40     		lsls	r7, r7, r5
 311 00e8 B846     		mov	r8, r7
 209:Drivers/STM32C0xx_HAL_Driver/Src/stm32c0xx_hal_gpio.c ****       tmp |= ((pGPIO_Init->Mode & GPIO_MODE) << (position * 2U));
 312              		.loc 1 209 14 view .LVU108
 313 00ea FF43     		mvns	r7, r7
 209:Drivers/STM32C0xx_HAL_Driver/Src/stm32c0xx_hal_gpio.c ****       tmp |= ((pGPIO_Init->Mode & GPIO_MODE) << (position * 2U));
 314              		.loc 1 209 11 view .LVU109
 315 00ec 6646     		mov	r6, ip
 316 00ee 4446     		mov	r4, r8
 317 00f0 A643     		bics	r6, r4
 318 00f2 B446     		mov	ip, r6
 319              	.LVL33:
 210:Drivers/STM32C0xx_HAL_Driver/Src/stm32c0xx_hal_gpio.c ****       GPIOx->MODER = tmp;
 320              		.loc 1 210 7 is_stmt 1 view .LVU110
 210:Drivers/STM32C0xx_HAL_Driver/Src/stm32c0xx_hal_gpio.c ****       GPIOx->MODER = tmp;
 321              		.loc 1 210 26 is_stmt 0 view .LVU111
 322 00f4 4C68     		ldr	r4, [r1, #4]
 210:Drivers/STM32C0xx_HAL_Driver/Src/stm32c0xx_hal_gpio.c ****       GPIOx->MODER = tmp;
 323              		.loc 1 210 33 view .LVU112
 324 00f6 5646     		mov	r6, r10
 325              	.LVL34:
 210:Drivers/STM32C0xx_HAL_Driver/Src/stm32c0xx_hal_gpio.c ****       GPIOx->MODER = tmp;
 326              		.loc 1 210 33 view .LVU113
 327 00f8 2640     		ands	r6, r4
 328 00fa 3400     		movs	r4, r6
 210:Drivers/STM32C0xx_HAL_Driver/Src/stm32c0xx_hal_gpio.c ****       GPIOx->MODER = tmp;
 329              		.loc 1 210 46 view .LVU114
 330 00fc AC40     		lsls	r4, r4, r5
 210:Drivers/STM32C0xx_HAL_Driver/Src/stm32c0xx_hal_gpio.c ****       GPIOx->MODER = tmp;
 331              		.loc 1 210 11 view .LVU115
 332 00fe 6646     		mov	r6, ip
 333 0100 3443     		orrs	r4, r6
 334              	.LVL35:
 211:Drivers/STM32C0xx_HAL_Driver/Src/stm32c0xx_hal_gpio.c **** 
 335              		.loc 1 211 7 is_stmt 1 view .LVU116
 211:Drivers/STM32C0xx_HAL_Driver/Src/stm32c0xx_hal_gpio.c **** 
 336              		.loc 1 211 20 is_stmt 0 view .LVU117
 337 0102 0460     		str	r4, [r0]
 214:Drivers/STM32C0xx_HAL_Driver/Src/stm32c0xx_hal_gpio.c ****           (pGPIO_Init->Mode == GPIO_MODE_OUTPUT_OD) || (pGPIO_Init->Mode == GPIO_MODE_AF_OD))
 338              		.loc 1 214 7 is_stmt 1 view .LVU118
 214:Drivers/STM32C0xx_HAL_Driver/Src/stm32c0xx_hal_gpio.c ****           (pGPIO_Init->Mode == GPIO_MODE_OUTPUT_OD) || (pGPIO_Init->Mode == GPIO_MODE_AF_OD))
 339              		.loc 1 214 22 is_stmt 0 view .LVU119
 340 0104 4C68     		ldr	r4, [r1, #4]
 341              	.LVL36:
 214:Drivers/STM32C0xx_HAL_Driver/Src/stm32c0xx_hal_gpio.c ****           (pGPIO_Init->Mode == GPIO_MODE_OUTPUT_OD) || (pGPIO_Init->Mode == GPIO_MODE_AF_OD))
 342              		.loc 1 214 53 view .LVU120
ARM GAS  C:\Users\Yasi\AppData\Local\Temp\cc42HZSo.s 			page 13


 343 0106 661E     		subs	r6, r4, #1
 214:Drivers/STM32C0xx_HAL_Driver/Src/stm32c0xx_hal_gpio.c ****           (pGPIO_Init->Mode == GPIO_MODE_OUTPUT_OD) || (pGPIO_Init->Mode == GPIO_MODE_AF_OD))
 344              		.loc 1 214 10 view .LVU121
 345 0108 012E     		cmp	r6, #1
 346 010a 03D9     		bls	.L6
 214:Drivers/STM32C0xx_HAL_Driver/Src/stm32c0xx_hal_gpio.c ****           (pGPIO_Init->Mode == GPIO_MODE_OUTPUT_OD) || (pGPIO_Init->Mode == GPIO_MODE_AF_OD))
 347              		.loc 1 214 94 discriminator 1 view .LVU122
 348 010c 112C     		cmp	r4, #17
 349 010e 01D0     		beq	.L6
 215:Drivers/STM32C0xx_HAL_Driver/Src/stm32c0xx_hal_gpio.c ****       {
 350              		.loc 1 215 53 view .LVU123
 351 0110 122C     		cmp	r4, #18
 352 0112 12D1     		bne	.L7
 353              	.L6:
 218:Drivers/STM32C0xx_HAL_Driver/Src/stm32c0xx_hal_gpio.c **** 
 354              		.loc 1 218 9 is_stmt 1 view .LVU124
 221:Drivers/STM32C0xx_HAL_Driver/Src/stm32c0xx_hal_gpio.c ****         tmp &= ~(GPIO_OSPEEDR_OSPEED0 << (position * 2U));
 355              		.loc 1 221 9 view .LVU125
 221:Drivers/STM32C0xx_HAL_Driver/Src/stm32c0xx_hal_gpio.c ****         tmp &= ~(GPIO_OSPEEDR_OSPEED0 << (position * 2U));
 356              		.loc 1 221 13 is_stmt 0 view .LVU126
 357 0114 8468     		ldr	r4, [r0, #8]
 358              	.LVL37:
 222:Drivers/STM32C0xx_HAL_Driver/Src/stm32c0xx_hal_gpio.c ****         tmp |= (pGPIO_Init->Speed << (position * 2U));
 359              		.loc 1 222 9 is_stmt 1 view .LVU127
 222:Drivers/STM32C0xx_HAL_Driver/Src/stm32c0xx_hal_gpio.c ****         tmp |= (pGPIO_Init->Speed << (position * 2U));
 360              		.loc 1 222 13 is_stmt 0 view .LVU128
 361 0116 3C40     		ands	r4, r7
 362              	.LVL38:
 222:Drivers/STM32C0xx_HAL_Driver/Src/stm32c0xx_hal_gpio.c ****         tmp |= (pGPIO_Init->Speed << (position * 2U));
 363              		.loc 1 222 13 view .LVU129
 364 0118 A446     		mov	ip, r4
 365              	.LVL39:
 223:Drivers/STM32C0xx_HAL_Driver/Src/stm32c0xx_hal_gpio.c ****         GPIOx->OSPEEDR = tmp;
 366              		.loc 1 223 9 is_stmt 1 view .LVU130
 223:Drivers/STM32C0xx_HAL_Driver/Src/stm32c0xx_hal_gpio.c ****         GPIOx->OSPEEDR = tmp;
 367              		.loc 1 223 27 is_stmt 0 view .LVU131
 368 011a CC68     		ldr	r4, [r1, #12]
 369              	.LVL40:
 223:Drivers/STM32C0xx_HAL_Driver/Src/stm32c0xx_hal_gpio.c ****         GPIOx->OSPEEDR = tmp;
 370              		.loc 1 223 35 view .LVU132
 371 011c AC40     		lsls	r4, r4, r5
 223:Drivers/STM32C0xx_HAL_Driver/Src/stm32c0xx_hal_gpio.c ****         GPIOx->OSPEEDR = tmp;
 372              		.loc 1 223 13 view .LVU133
 373 011e 6646     		mov	r6, ip
 374 0120 3443     		orrs	r4, r6
 375              	.LVL41:
 224:Drivers/STM32C0xx_HAL_Driver/Src/stm32c0xx_hal_gpio.c **** 
 376              		.loc 1 224 9 is_stmt 1 view .LVU134
 224:Drivers/STM32C0xx_HAL_Driver/Src/stm32c0xx_hal_gpio.c **** 
 377              		.loc 1 224 24 is_stmt 0 view .LVU135
 378 0122 8460     		str	r4, [r0, #8]
 227:Drivers/STM32C0xx_HAL_Driver/Src/stm32c0xx_hal_gpio.c ****         tmp &= ~(GPIO_OTYPER_OT0 << position) ;
 379              		.loc 1 227 9 is_stmt 1 view .LVU136
 227:Drivers/STM32C0xx_HAL_Driver/Src/stm32c0xx_hal_gpio.c ****         tmp &= ~(GPIO_OTYPER_OT0 << position) ;
 380              		.loc 1 227 13 is_stmt 0 view .LVU137
 381 0124 4468     		ldr	r4, [r0, #4]
 382              	.LVL42:
ARM GAS  C:\Users\Yasi\AppData\Local\Temp\cc42HZSo.s 			page 14


 228:Drivers/STM32C0xx_HAL_Driver/Src/stm32c0xx_hal_gpio.c ****         tmp |= (((pGPIO_Init->Mode & GPIO_OUTPUT_TYPE) >> 4U) << position);
 383              		.loc 1 228 9 is_stmt 1 view .LVU138
 228:Drivers/STM32C0xx_HAL_Driver/Src/stm32c0xx_hal_gpio.c ****         tmp |= (((pGPIO_Init->Mode & GPIO_OUTPUT_TYPE) >> 4U) << position);
 384              		.loc 1 228 13 is_stmt 0 view .LVU139
 385 0126 9443     		bics	r4, r2
 386              	.LVL43:
 229:Drivers/STM32C0xx_HAL_Driver/Src/stm32c0xx_hal_gpio.c ****         GPIOx->OTYPER = tmp;
 387              		.loc 1 229 9 is_stmt 1 view .LVU140
 229:Drivers/STM32C0xx_HAL_Driver/Src/stm32c0xx_hal_gpio.c ****         GPIOx->OTYPER = tmp;
 388              		.loc 1 229 29 is_stmt 0 view .LVU141
 389 0128 4A68     		ldr	r2, [r1, #4]
 229:Drivers/STM32C0xx_HAL_Driver/Src/stm32c0xx_hal_gpio.c ****         GPIOx->OTYPER = tmp;
 390              		.loc 1 229 56 view .LVU142
 391 012a 1209     		lsrs	r2, r2, #4
 392 012c 9446     		mov	ip, r2
 393 012e 0122     		movs	r2, #1
 394 0130 6646     		mov	r6, ip
 395 0132 3240     		ands	r2, r6
 229:Drivers/STM32C0xx_HAL_Driver/Src/stm32c0xx_hal_gpio.c ****         GPIOx->OTYPER = tmp;
 396              		.loc 1 229 63 view .LVU143
 397 0134 9A40     		lsls	r2, r2, r3
 229:Drivers/STM32C0xx_HAL_Driver/Src/stm32c0xx_hal_gpio.c ****         GPIOx->OTYPER = tmp;
 398              		.loc 1 229 13 view .LVU144
 399 0136 2243     		orrs	r2, r4
 400              	.LVL44:
 230:Drivers/STM32C0xx_HAL_Driver/Src/stm32c0xx_hal_gpio.c ****       }
 401              		.loc 1 230 9 is_stmt 1 view .LVU145
 230:Drivers/STM32C0xx_HAL_Driver/Src/stm32c0xx_hal_gpio.c ****       }
 402              		.loc 1 230 23 is_stmt 0 view .LVU146
 403 0138 4260     		str	r2, [r0, #4]
 404              	.LVL45:
 405              	.L7:
 233:Drivers/STM32C0xx_HAL_Driver/Src/stm32c0xx_hal_gpio.c ****       {
 406              		.loc 1 233 7 is_stmt 1 view .LVU147
 233:Drivers/STM32C0xx_HAL_Driver/Src/stm32c0xx_hal_gpio.c ****       {
 407              		.loc 1 233 21 is_stmt 0 view .LVU148
 408 013a 4A68     		ldr	r2, [r1, #4]
 233:Drivers/STM32C0xx_HAL_Driver/Src/stm32c0xx_hal_gpio.c ****       {
 409              		.loc 1 233 10 view .LVU149
 410 013c 032A     		cmp	r2, #3
 411 013e 05D0     		beq	.L8
 236:Drivers/STM32C0xx_HAL_Driver/Src/stm32c0xx_hal_gpio.c **** 
 412              		.loc 1 236 9 is_stmt 1 view .LVU150
 239:Drivers/STM32C0xx_HAL_Driver/Src/stm32c0xx_hal_gpio.c ****         tmp &= ~(GPIO_PUPDR_PUPD0 << (position * 2U));
 413              		.loc 1 239 9 view .LVU151
 239:Drivers/STM32C0xx_HAL_Driver/Src/stm32c0xx_hal_gpio.c ****         tmp &= ~(GPIO_PUPDR_PUPD0 << (position * 2U));
 414              		.loc 1 239 13 is_stmt 0 view .LVU152
 415 0140 C468     		ldr	r4, [r0, #12]
 416              	.LVL46:
 240:Drivers/STM32C0xx_HAL_Driver/Src/stm32c0xx_hal_gpio.c ****         tmp |= ((pGPIO_Init->Pull) << (position * 2U));
 417              		.loc 1 240 9 is_stmt 1 view .LVU153
 240:Drivers/STM32C0xx_HAL_Driver/Src/stm32c0xx_hal_gpio.c ****         tmp |= ((pGPIO_Init->Pull) << (position * 2U));
 418              		.loc 1 240 13 is_stmt 0 view .LVU154
 419 0142 3C40     		ands	r4, r7
 420              	.LVL47:
 241:Drivers/STM32C0xx_HAL_Driver/Src/stm32c0xx_hal_gpio.c ****         GPIOx->PUPDR = tmp;
 421              		.loc 1 241 9 is_stmt 1 view .LVU155
ARM GAS  C:\Users\Yasi\AppData\Local\Temp\cc42HZSo.s 			page 15


 241:Drivers/STM32C0xx_HAL_Driver/Src/stm32c0xx_hal_gpio.c ****         GPIOx->PUPDR = tmp;
 422              		.loc 1 241 28 is_stmt 0 view .LVU156
 423 0144 8A68     		ldr	r2, [r1, #8]
 241:Drivers/STM32C0xx_HAL_Driver/Src/stm32c0xx_hal_gpio.c ****         GPIOx->PUPDR = tmp;
 424              		.loc 1 241 36 view .LVU157
 425 0146 AA40     		lsls	r2, r2, r5
 241:Drivers/STM32C0xx_HAL_Driver/Src/stm32c0xx_hal_gpio.c ****         GPIOx->PUPDR = tmp;
 426              		.loc 1 241 13 view .LVU158
 427 0148 2243     		orrs	r2, r4
 428              	.LVL48:
 242:Drivers/STM32C0xx_HAL_Driver/Src/stm32c0xx_hal_gpio.c ****       }
 429              		.loc 1 242 9 is_stmt 1 view .LVU159
 242:Drivers/STM32C0xx_HAL_Driver/Src/stm32c0xx_hal_gpio.c ****       }
 430              		.loc 1 242 22 is_stmt 0 view .LVU160
 431 014a C260     		str	r2, [r0, #12]
 432              	.LVL49:
 433              	.L8:
 247:Drivers/STM32C0xx_HAL_Driver/Src/stm32c0xx_hal_gpio.c ****       {
 434              		.loc 1 247 7 is_stmt 1 view .LVU161
 247:Drivers/STM32C0xx_HAL_Driver/Src/stm32c0xx_hal_gpio.c ****       {
 435              		.loc 1 247 22 is_stmt 0 view .LVU162
 436 014c 4A68     		ldr	r2, [r1, #4]
 247:Drivers/STM32C0xx_HAL_Driver/Src/stm32c0xx_hal_gpio.c ****       {
 437              		.loc 1 247 10 view .LVU163
 438 014e D200     		lsls	r2, r2, #3
 439 0150 98D5     		bpl	.L3
 249:Drivers/STM32C0xx_HAL_Driver/Src/stm32c0xx_hal_gpio.c ****         tmp &= ~((0x0FUL) << (8U * (position & 0x03U)));
 440              		.loc 1 249 9 is_stmt 1 view .LVU164
 249:Drivers/STM32C0xx_HAL_Driver/Src/stm32c0xx_hal_gpio.c ****         tmp &= ~((0x0FUL) << (8U * (position & 0x03U)));
 441              		.loc 1 249 37 is_stmt 0 view .LVU165
 442 0152 9A08     		lsrs	r2, r3, #2
 249:Drivers/STM32C0xx_HAL_Driver/Src/stm32c0xx_hal_gpio.c ****         tmp &= ~((0x0FUL) << (8U * (position & 0x03U)));
 443              		.loc 1 249 13 view .LVU166
 444 0154 1400     		movs	r4, r2
 445 0156 1834     		adds	r4, r4, #24
 446 0158 A400     		lsls	r4, r4, #2
 447 015a 134D     		ldr	r5, .L27
 448 015c 6759     		ldr	r7, [r4, r5]
 449              	.LVL50:
 250:Drivers/STM32C0xx_HAL_Driver/Src/stm32c0xx_hal_gpio.c ****         tmp |= (GPIO_GET_INDEX(GPIOx) << (8U * (position & 0x03U)));
 450              		.loc 1 250 9 is_stmt 1 view .LVU167
 250:Drivers/STM32C0xx_HAL_Driver/Src/stm32c0xx_hal_gpio.c ****         tmp |= (GPIO_GET_INDEX(GPIOx) << (8U * (position & 0x03U)));
 451              		.loc 1 250 46 is_stmt 0 view .LVU168
 452 015e 0324     		movs	r4, #3
 453 0160 1C40     		ands	r4, r3
 250:Drivers/STM32C0xx_HAL_Driver/Src/stm32c0xx_hal_gpio.c ****         tmp |= (GPIO_GET_INDEX(GPIOx) << (8U * (position & 0x03U)));
 454              		.loc 1 250 34 view .LVU169
 455 0162 E400     		lsls	r4, r4, #3
 250:Drivers/STM32C0xx_HAL_Driver/Src/stm32c0xx_hal_gpio.c ****         tmp |= (GPIO_GET_INDEX(GPIOx) << (8U * (position & 0x03U)));
 456              		.loc 1 250 27 view .LVU170
 457 0164 0F25     		movs	r5, #15
 458 0166 A540     		lsls	r5, r5, r4
 250:Drivers/STM32C0xx_HAL_Driver/Src/stm32c0xx_hal_gpio.c ****         tmp |= (GPIO_GET_INDEX(GPIOx) << (8U * (position & 0x03U)));
 459              		.loc 1 250 13 view .LVU171
 460 0168 AF43     		bics	r7, r5
 461              	.LVL51:
 251:Drivers/STM32C0xx_HAL_Driver/Src/stm32c0xx_hal_gpio.c ****         EXTI->EXTICR[position >> 2U] = tmp;
ARM GAS  C:\Users\Yasi\AppData\Local\Temp\cc42HZSo.s 			page 16


 462              		.loc 1 251 9 is_stmt 1 view .LVU172
 251:Drivers/STM32C0xx_HAL_Driver/Src/stm32c0xx_hal_gpio.c ****         EXTI->EXTICR[position >> 2U] = tmp;
 463              		.loc 1 251 17 is_stmt 0 view .LVU173
 464 016a A025     		movs	r5, #160
 465 016c ED05     		lsls	r5, r5, #23
 466 016e A842     		cmp	r0, r5
 467 0170 00D1     		bne	.LCB401
 468 0172 4EE7     		b	.L15	@long jump
 469              	.LCB401:
 251:Drivers/STM32C0xx_HAL_Driver/Src/stm32c0xx_hal_gpio.c ****         EXTI->EXTICR[position >> 2U] = tmp;
 470              		.loc 1 251 17 discriminator 1 view .LVU174
 471 0174 0D4D     		ldr	r5, .L27+4
 472 0176 A842     		cmp	r0, r5
 473 0178 0BD0     		beq	.L16
 251:Drivers/STM32C0xx_HAL_Driver/Src/stm32c0xx_hal_gpio.c ****         EXTI->EXTICR[position >> 2U] = tmp;
 474              		.loc 1 251 17 discriminator 3 view .LVU175
 475 017a 0D4D     		ldr	r5, .L27+8
 476 017c A842     		cmp	r0, r5
 477 017e 0AD0     		beq	.L17
 251:Drivers/STM32C0xx_HAL_Driver/Src/stm32c0xx_hal_gpio.c ****         EXTI->EXTICR[position >> 2U] = tmp;
 478              		.loc 1 251 17 discriminator 5 view .LVU176
 479 0180 0C4D     		ldr	r5, .L27+12
 480 0182 A842     		cmp	r0, r5
 481 0184 09D0     		beq	.L18
 251:Drivers/STM32C0xx_HAL_Driver/Src/stm32c0xx_hal_gpio.c ****         EXTI->EXTICR[position >> 2U] = tmp;
 482              		.loc 1 251 17 discriminator 7 view .LVU177
 483 0186 0C4D     		ldr	r5, .L27+16
 484 0188 A842     		cmp	r0, r5
 485 018a 00D1     		bne	.LCB413
 486 018c 3FE7     		b	.L26	@long jump
 487              	.LCB413:
 251:Drivers/STM32C0xx_HAL_Driver/Src/stm32c0xx_hal_gpio.c ****         EXTI->EXTICR[position >> 2U] = tmp;
 488              		.loc 1 251 17 discriminator 10 view .LVU178
 489 018e 0625     		movs	r5, #6
 490 0190 40E7     		b	.L9
 491              	.L16:
 251:Drivers/STM32C0xx_HAL_Driver/Src/stm32c0xx_hal_gpio.c ****         EXTI->EXTICR[position >> 2U] = tmp;
 492              		.loc 1 251 17 discriminator 4 view .LVU179
 493 0192 0125     		movs	r5, #1
 494 0194 3EE7     		b	.L9
 495              	.L17:
 251:Drivers/STM32C0xx_HAL_Driver/Src/stm32c0xx_hal_gpio.c ****         EXTI->EXTICR[position >> 2U] = tmp;
 496              		.loc 1 251 17 discriminator 6 view .LVU180
 497 0196 0225     		movs	r5, #2
 498 0198 3CE7     		b	.L9
 499              	.L18:
 251:Drivers/STM32C0xx_HAL_Driver/Src/stm32c0xx_hal_gpio.c ****         EXTI->EXTICR[position >> 2U] = tmp;
 500              		.loc 1 251 17 discriminator 8 view .LVU181
 501 019a 0325     		movs	r5, #3
 502 019c 3AE7     		b	.L9
 503              	.LVL52:
 504              	.L25:
 291:Drivers/STM32C0xx_HAL_Driver/Src/stm32c0xx_hal_gpio.c ****   }
 292:Drivers/STM32C0xx_HAL_Driver/Src/stm32c0xx_hal_gpio.c **** }
 505              		.loc 1 292 1 view .LVU182
 506              		@ sp needed
 507 019e E0BC     		pop	{r5, r6, r7}
ARM GAS  C:\Users\Yasi\AppData\Local\Temp\cc42HZSo.s 			page 17


 508 01a0 BA46     		mov	r10, r7
 509 01a2 B146     		mov	r9, r6
 510 01a4 A846     		mov	r8, r5
 511 01a6 F0BD     		pop	{r4, r5, r6, r7, pc}
 512              	.L28:
 513              		.align	2
 514              	.L27:
 515 01a8 00180240 		.word	1073879040
 516 01ac 00040050 		.word	1342178304
 517 01b0 00080050 		.word	1342179328
 518 01b4 000C0050 		.word	1342180352
 519 01b8 00140050 		.word	1342182400
 520              		.cfi_endproc
 521              	.LFE214:
 523              		.section	.text.HAL_GPIO_DeInit,"ax",%progbits
 524              		.align	1
 525              		.global	HAL_GPIO_DeInit
 526              		.syntax unified
 527              		.code	16
 528              		.thumb_func
 530              	HAL_GPIO_DeInit:
 531              	.LVL53:
 532              	.LFB215:
 293:Drivers/STM32C0xx_HAL_Driver/Src/stm32c0xx_hal_gpio.c **** 
 294:Drivers/STM32C0xx_HAL_Driver/Src/stm32c0xx_hal_gpio.c **** /**
 295:Drivers/STM32C0xx_HAL_Driver/Src/stm32c0xx_hal_gpio.c ****   * @brief  De-initialize the GPIOx peripheral registers to their default reset values.
 296:Drivers/STM32C0xx_HAL_Driver/Src/stm32c0xx_hal_gpio.c ****   * @param  GPIOx where x can be (A..F) to select the GPIO peripheral for STM32C0xx family
 297:Drivers/STM32C0xx_HAL_Driver/Src/stm32c0xx_hal_gpio.c ****   * @param  GPIO_Pin specifies the port bit to be written.
 298:Drivers/STM32C0xx_HAL_Driver/Src/stm32c0xx_hal_gpio.c ****   *         This parameter can be any combination of GPIO_Pin_x where x can be (0..15).
 299:Drivers/STM32C0xx_HAL_Driver/Src/stm32c0xx_hal_gpio.c ****   * @retval None
 300:Drivers/STM32C0xx_HAL_Driver/Src/stm32c0xx_hal_gpio.c ****   */
 301:Drivers/STM32C0xx_HAL_Driver/Src/stm32c0xx_hal_gpio.c **** void HAL_GPIO_DeInit(GPIO_TypeDef  *GPIOx, uint32_t GPIO_Pin)
 302:Drivers/STM32C0xx_HAL_Driver/Src/stm32c0xx_hal_gpio.c **** {
 533              		.loc 1 302 1 is_stmt 1 view -0
 534              		.cfi_startproc
 535              		@ args = 0, pretend = 0, frame = 0
 536              		@ frame_needed = 0, uses_anonymous_args = 0
 537              		.loc 1 302 1 is_stmt 0 view .LVU184
 538 0000 F0B5     		push	{r4, r5, r6, r7, lr}
 539              	.LCFI2:
 540              		.cfi_def_cfa_offset 20
 541              		.cfi_offset 4, -20
 542              		.cfi_offset 5, -16
 543              		.cfi_offset 6, -12
 544              		.cfi_offset 7, -8
 545              		.cfi_offset 14, -4
 546 0002 CE46     		mov	lr, r9
 547 0004 4746     		mov	r7, r8
 548 0006 80B5     		push	{r7, lr}
 549              	.LCFI3:
 550              		.cfi_def_cfa_offset 28
 551              		.cfi_offset 8, -28
 552              		.cfi_offset 9, -24
 553 0008 8946     		mov	r9, r1
 303:Drivers/STM32C0xx_HAL_Driver/Src/stm32c0xx_hal_gpio.c ****   uint32_t tmp;
 554              		.loc 1 303 3 is_stmt 1 view .LVU185
 304:Drivers/STM32C0xx_HAL_Driver/Src/stm32c0xx_hal_gpio.c ****   uint32_t iocurrent;
ARM GAS  C:\Users\Yasi\AppData\Local\Temp\cc42HZSo.s 			page 18


 555              		.loc 1 304 3 view .LVU186
 305:Drivers/STM32C0xx_HAL_Driver/Src/stm32c0xx_hal_gpio.c ****   uint32_t position = 0U;
 556              		.loc 1 305 3 view .LVU187
 557              	.LVL54:
 306:Drivers/STM32C0xx_HAL_Driver/Src/stm32c0xx_hal_gpio.c **** 
 307:Drivers/STM32C0xx_HAL_Driver/Src/stm32c0xx_hal_gpio.c ****   /* Check the parameters */
 308:Drivers/STM32C0xx_HAL_Driver/Src/stm32c0xx_hal_gpio.c ****   assert_param(IS_GPIO_ALL_INSTANCE(GPIOx));
 558              		.loc 1 308 3 view .LVU188
 309:Drivers/STM32C0xx_HAL_Driver/Src/stm32c0xx_hal_gpio.c ****   assert_param(IS_GPIO_PIN(GPIO_Pin));
 559              		.loc 1 309 3 view .LVU189
 310:Drivers/STM32C0xx_HAL_Driver/Src/stm32c0xx_hal_gpio.c **** 
 311:Drivers/STM32C0xx_HAL_Driver/Src/stm32c0xx_hal_gpio.c ****   /* Configure the port pins */
 312:Drivers/STM32C0xx_HAL_Driver/Src/stm32c0xx_hal_gpio.c ****   while ((GPIO_Pin >> position) != 0U)
 560              		.loc 1 312 3 view .LVU190
 305:Drivers/STM32C0xx_HAL_Driver/Src/stm32c0xx_hal_gpio.c **** 
 561              		.loc 1 305 12 is_stmt 0 view .LVU191
 562 000a 0023     		movs	r3, #0
 563              		.loc 1 312 9 view .LVU192
 564 000c 23E0     		b	.L30
 565              	.LVL55:
 566              	.L42:
 313:Drivers/STM32C0xx_HAL_Driver/Src/stm32c0xx_hal_gpio.c ****   {
 314:Drivers/STM32C0xx_HAL_Driver/Src/stm32c0xx_hal_gpio.c ****     /* Get current io position */
 315:Drivers/STM32C0xx_HAL_Driver/Src/stm32c0xx_hal_gpio.c ****     iocurrent = (GPIO_Pin) & (1UL << position);
 316:Drivers/STM32C0xx_HAL_Driver/Src/stm32c0xx_hal_gpio.c **** 
 317:Drivers/STM32C0xx_HAL_Driver/Src/stm32c0xx_hal_gpio.c ****     if (iocurrent != 0U)
 318:Drivers/STM32C0xx_HAL_Driver/Src/stm32c0xx_hal_gpio.c ****     {
 319:Drivers/STM32C0xx_HAL_Driver/Src/stm32c0xx_hal_gpio.c ****       /*------------------------- EXTI Mode Configuration --------------------*/
 320:Drivers/STM32C0xx_HAL_Driver/Src/stm32c0xx_hal_gpio.c ****       /* Clear the External Interrupt or Event for the current IO */
 321:Drivers/STM32C0xx_HAL_Driver/Src/stm32c0xx_hal_gpio.c ****       tmp = EXTI->EXTICR[position >> 2U];
 322:Drivers/STM32C0xx_HAL_Driver/Src/stm32c0xx_hal_gpio.c ****       tmp &= ((0x0FUL) << (8U * (position & 0x03U)));
 323:Drivers/STM32C0xx_HAL_Driver/Src/stm32c0xx_hal_gpio.c ****       if (tmp == (GPIO_GET_INDEX(GPIOx) << (8U * (position & 0x03U))))
 567              		.loc 1 323 19 discriminator 9 view .LVU193
 568 000e 0521     		movs	r1, #5
 569 0010 8846     		mov	r8, r1
 570 0012 01E0     		b	.L32
 571              	.L35:
 572              		.loc 1 323 19 discriminator 2 view .LVU194
 573 0014 0021     		movs	r1, #0
 574 0016 8846     		mov	r8, r1
 575              	.L32:
 576              		.loc 1 323 41 discriminator 20 view .LVU195
 577 0018 4146     		mov	r1, r8
 578 001a A140     		lsls	r1, r1, r4
 579              		.loc 1 323 10 discriminator 20 view .LVU196
 580 001c A942     		cmp	r1, r5
 581 001e 4DD0     		beq	.L40
 582              	.LVL56:
 583              	.L33:
 324:Drivers/STM32C0xx_HAL_Driver/Src/stm32c0xx_hal_gpio.c ****       {
 325:Drivers/STM32C0xx_HAL_Driver/Src/stm32c0xx_hal_gpio.c ****         /* Clear EXTI line configuration */
 326:Drivers/STM32C0xx_HAL_Driver/Src/stm32c0xx_hal_gpio.c ****         EXTI->IMR1 &= ~(iocurrent);
 327:Drivers/STM32C0xx_HAL_Driver/Src/stm32c0xx_hal_gpio.c ****         EXTI->EMR1 &= ~(iocurrent);
 328:Drivers/STM32C0xx_HAL_Driver/Src/stm32c0xx_hal_gpio.c **** 
 329:Drivers/STM32C0xx_HAL_Driver/Src/stm32c0xx_hal_gpio.c ****         /* Clear Rising Falling edge configuration */
 330:Drivers/STM32C0xx_HAL_Driver/Src/stm32c0xx_hal_gpio.c ****         EXTI->RTSR1 &= ~(iocurrent);
 331:Drivers/STM32C0xx_HAL_Driver/Src/stm32c0xx_hal_gpio.c ****         EXTI->FTSR1 &= ~(iocurrent);
ARM GAS  C:\Users\Yasi\AppData\Local\Temp\cc42HZSo.s 			page 19


 332:Drivers/STM32C0xx_HAL_Driver/Src/stm32c0xx_hal_gpio.c **** 
 333:Drivers/STM32C0xx_HAL_Driver/Src/stm32c0xx_hal_gpio.c ****         tmp = (0x0FUL) << (8U * (position & 0x03U));
 334:Drivers/STM32C0xx_HAL_Driver/Src/stm32c0xx_hal_gpio.c ****         EXTI->EXTICR[position >> 2U] &= ~tmp;
 335:Drivers/STM32C0xx_HAL_Driver/Src/stm32c0xx_hal_gpio.c ****       }
 336:Drivers/STM32C0xx_HAL_Driver/Src/stm32c0xx_hal_gpio.c **** 
 337:Drivers/STM32C0xx_HAL_Driver/Src/stm32c0xx_hal_gpio.c ****       /*------------------------- GPIO Mode Configuration --------------------*/
 338:Drivers/STM32C0xx_HAL_Driver/Src/stm32c0xx_hal_gpio.c ****       /* Configure IO in Analog Mode */
 339:Drivers/STM32C0xx_HAL_Driver/Src/stm32c0xx_hal_gpio.c ****       GPIOx->MODER |= (GPIO_MODER_MODE0 << (position * 2U));
 584              		.loc 1 339 7 is_stmt 1 view .LVU197
 585              		.loc 1 339 12 is_stmt 0 view .LVU198
 586 0020 0468     		ldr	r4, [r0]
 587              		.loc 1 339 54 view .LVU199
 588 0022 5E00     		lsls	r6, r3, #1
 589              		.loc 1 339 41 view .LVU200
 590 0024 0325     		movs	r5, #3
 591 0026 B540     		lsls	r5, r5, r6
 592              		.loc 1 339 20 view .LVU201
 593 0028 2C43     		orrs	r4, r5
 594 002a 0460     		str	r4, [r0]
 340:Drivers/STM32C0xx_HAL_Driver/Src/stm32c0xx_hal_gpio.c **** 
 341:Drivers/STM32C0xx_HAL_Driver/Src/stm32c0xx_hal_gpio.c ****       /* Configure the default Alternate Function in current IO */
 342:Drivers/STM32C0xx_HAL_Driver/Src/stm32c0xx_hal_gpio.c ****       GPIOx->AFR[position >> 3U] &= ~(0x0FUL << ((position & 0x07U) * 4U)) ;
 595              		.loc 1 342 7 is_stmt 1 view .LVU202
 596              		.loc 1 342 17 is_stmt 0 view .LVU203
 597 002c DC08     		lsrs	r4, r3, #3
 598 002e 0834     		adds	r4, r4, #8
 599 0030 A400     		lsls	r4, r4, #2
 600 0032 2758     		ldr	r7, [r4, r0]
 601              		.loc 1 342 60 view .LVU204
 602 0034 0726     		movs	r6, #7
 603 0036 1E40     		ands	r6, r3
 604              		.loc 1 342 69 view .LVU205
 605 0038 B600     		lsls	r6, r6, #2
 606              		.loc 1 342 46 view .LVU206
 607 003a 0F21     		movs	r1, #15
 608 003c B140     		lsls	r1, r1, r6
 609              		.loc 1 342 34 view .LVU207
 610 003e 8F43     		bics	r7, r1
 611 0040 2750     		str	r7, [r4, r0]
 343:Drivers/STM32C0xx_HAL_Driver/Src/stm32c0xx_hal_gpio.c **** 
 344:Drivers/STM32C0xx_HAL_Driver/Src/stm32c0xx_hal_gpio.c ****       /* Configure the default value for IO Speed */
 345:Drivers/STM32C0xx_HAL_Driver/Src/stm32c0xx_hal_gpio.c ****       GPIOx->OSPEEDR &= ~(GPIO_OSPEEDR_OSPEED0 << (position * 2U));
 612              		.loc 1 345 7 is_stmt 1 view .LVU208
 613              		.loc 1 345 12 is_stmt 0 view .LVU209
 614 0042 8468     		ldr	r4, [r0, #8]
 615              		.loc 1 345 22 view .LVU210
 616 0044 AC43     		bics	r4, r5
 617 0046 8460     		str	r4, [r0, #8]
 346:Drivers/STM32C0xx_HAL_Driver/Src/stm32c0xx_hal_gpio.c **** 
 347:Drivers/STM32C0xx_HAL_Driver/Src/stm32c0xx_hal_gpio.c ****       /* Configure the default value IO Output Type */
 348:Drivers/STM32C0xx_HAL_Driver/Src/stm32c0xx_hal_gpio.c ****       GPIOx->OTYPER  &= ~(GPIO_OTYPER_OT0 << position);
 618              		.loc 1 348 7 is_stmt 1 view .LVU211
 619              		.loc 1 348 12 is_stmt 0 view .LVU212
 620 0048 4468     		ldr	r4, [r0, #4]
 621              		.loc 1 348 22 view .LVU213
 622 004a 9443     		bics	r4, r2
 623 004c 4460     		str	r4, [r0, #4]
ARM GAS  C:\Users\Yasi\AppData\Local\Temp\cc42HZSo.s 			page 20


 349:Drivers/STM32C0xx_HAL_Driver/Src/stm32c0xx_hal_gpio.c **** 
 350:Drivers/STM32C0xx_HAL_Driver/Src/stm32c0xx_hal_gpio.c ****       /* Deactivate the Pull-up and Pull-down resistor for the current IO */
 351:Drivers/STM32C0xx_HAL_Driver/Src/stm32c0xx_hal_gpio.c ****       GPIOx->PUPDR &= ~(GPIO_PUPDR_PUPD0 << (position * 2U));
 624              		.loc 1 351 7 is_stmt 1 view .LVU214
 625              		.loc 1 351 12 is_stmt 0 view .LVU215
 626 004e C268     		ldr	r2, [r0, #12]
 627              		.loc 1 351 20 view .LVU216
 628 0050 AA43     		bics	r2, r5
 629 0052 C260     		str	r2, [r0, #12]
 630              	.L31:
 352:Drivers/STM32C0xx_HAL_Driver/Src/stm32c0xx_hal_gpio.c ****     }
 353:Drivers/STM32C0xx_HAL_Driver/Src/stm32c0xx_hal_gpio.c **** 
 354:Drivers/STM32C0xx_HAL_Driver/Src/stm32c0xx_hal_gpio.c ****     position++;
 631              		.loc 1 354 5 is_stmt 1 view .LVU217
 632              		.loc 1 354 13 is_stmt 0 view .LVU218
 633 0054 0133     		adds	r3, r3, #1
 634              	.LVL57:
 635              	.L30:
 312:Drivers/STM32C0xx_HAL_Driver/Src/stm32c0xx_hal_gpio.c ****   {
 636              		.loc 1 312 33 is_stmt 1 view .LVU219
 312:Drivers/STM32C0xx_HAL_Driver/Src/stm32c0xx_hal_gpio.c ****   {
 637              		.loc 1 312 20 is_stmt 0 view .LVU220
 638 0056 4A46     		mov	r2, r9
 639 0058 DA40     		lsrs	r2, r2, r3
 312:Drivers/STM32C0xx_HAL_Driver/Src/stm32c0xx_hal_gpio.c ****   {
 640              		.loc 1 312 33 view .LVU221
 641 005a 4BD0     		beq	.L41
 315:Drivers/STM32C0xx_HAL_Driver/Src/stm32c0xx_hal_gpio.c **** 
 642              		.loc 1 315 5 is_stmt 1 view .LVU222
 315:Drivers/STM32C0xx_HAL_Driver/Src/stm32c0xx_hal_gpio.c **** 
 643              		.loc 1 315 35 is_stmt 0 view .LVU223
 644 005c 0122     		movs	r2, #1
 645 005e 9A40     		lsls	r2, r2, r3
 315:Drivers/STM32C0xx_HAL_Driver/Src/stm32c0xx_hal_gpio.c **** 
 646              		.loc 1 315 15 view .LVU224
 647 0060 4C46     		mov	r4, r9
 648 0062 1440     		ands	r4, r2
 649 0064 A446     		mov	ip, r4
 650              	.LVL58:
 317:Drivers/STM32C0xx_HAL_Driver/Src/stm32c0xx_hal_gpio.c ****     {
 651              		.loc 1 317 5 is_stmt 1 view .LVU225
 317:Drivers/STM32C0xx_HAL_Driver/Src/stm32c0xx_hal_gpio.c ****     {
 652              		.loc 1 317 8 is_stmt 0 view .LVU226
 653 0066 4946     		mov	r1, r9
 654 0068 1142     		tst	r1, r2
 655 006a F3D0     		beq	.L31
 656              	.LVL59:
 321:Drivers/STM32C0xx_HAL_Driver/Src/stm32c0xx_hal_gpio.c ****       tmp &= ((0x0FUL) << (8U * (position & 0x03U)));
 657              		.loc 1 321 7 is_stmt 1 view .LVU227
 321:Drivers/STM32C0xx_HAL_Driver/Src/stm32c0xx_hal_gpio.c ****       tmp &= ((0x0FUL) << (8U * (position & 0x03U)));
 658              		.loc 1 321 35 is_stmt 0 view .LVU228
 659 006c 9F08     		lsrs	r7, r3, #2
 321:Drivers/STM32C0xx_HAL_Driver/Src/stm32c0xx_hal_gpio.c ****       tmp &= ((0x0FUL) << (8U * (position & 0x03U)));
 660              		.loc 1 321 11 view .LVU229
 661 006e 3C00     		movs	r4, r7
 662              	.LVL60:
 321:Drivers/STM32C0xx_HAL_Driver/Src/stm32c0xx_hal_gpio.c ****       tmp &= ((0x0FUL) << (8U * (position & 0x03U)));
ARM GAS  C:\Users\Yasi\AppData\Local\Temp\cc42HZSo.s 			page 21


 663              		.loc 1 321 11 view .LVU230
 664 0070 1834     		adds	r4, r4, #24
 665 0072 A400     		lsls	r4, r4, #2
 666 0074 214D     		ldr	r5, .L43
 667 0076 6559     		ldr	r5, [r4, r5]
 668              	.LVL61:
 322:Drivers/STM32C0xx_HAL_Driver/Src/stm32c0xx_hal_gpio.c ****       if (tmp == (GPIO_GET_INDEX(GPIOx) << (8U * (position & 0x03U))))
 669              		.loc 1 322 7 is_stmt 1 view .LVU231
 322:Drivers/STM32C0xx_HAL_Driver/Src/stm32c0xx_hal_gpio.c ****       if (tmp == (GPIO_GET_INDEX(GPIOx) << (8U * (position & 0x03U))))
 670              		.loc 1 322 43 is_stmt 0 view .LVU232
 671 0078 0326     		movs	r6, #3
 672 007a 1E40     		ands	r6, r3
 322:Drivers/STM32C0xx_HAL_Driver/Src/stm32c0xx_hal_gpio.c ****       if (tmp == (GPIO_GET_INDEX(GPIOx) << (8U * (position & 0x03U))))
 673              		.loc 1 322 31 view .LVU233
 674 007c F400     		lsls	r4, r6, #3
 322:Drivers/STM32C0xx_HAL_Driver/Src/stm32c0xx_hal_gpio.c ****       if (tmp == (GPIO_GET_INDEX(GPIOx) << (8U * (position & 0x03U))))
 675              		.loc 1 322 24 view .LVU234
 676 007e 0F26     		movs	r6, #15
 677 0080 A640     		lsls	r6, r6, r4
 322:Drivers/STM32C0xx_HAL_Driver/Src/stm32c0xx_hal_gpio.c ****       if (tmp == (GPIO_GET_INDEX(GPIOx) << (8U * (position & 0x03U))))
 678              		.loc 1 322 11 view .LVU235
 679 0082 3540     		ands	r5, r6
 680              	.LVL62:
 323:Drivers/STM32C0xx_HAL_Driver/Src/stm32c0xx_hal_gpio.c ****       {
 681              		.loc 1 323 7 is_stmt 1 view .LVU236
 323:Drivers/STM32C0xx_HAL_Driver/Src/stm32c0xx_hal_gpio.c ****       {
 682              		.loc 1 323 19 is_stmt 0 view .LVU237
 683 0084 A021     		movs	r1, #160
 684              	.LVL63:
 323:Drivers/STM32C0xx_HAL_Driver/Src/stm32c0xx_hal_gpio.c ****       {
 685              		.loc 1 323 19 view .LVU238
 686 0086 C905     		lsls	r1, r1, #23
 687 0088 8842     		cmp	r0, r1
 688 008a C3D0     		beq	.L35
 323:Drivers/STM32C0xx_HAL_Driver/Src/stm32c0xx_hal_gpio.c ****       {
 689              		.loc 1 323 19 discriminator 1 view .LVU239
 690 008c 1C49     		ldr	r1, .L43+4
 691 008e 8842     		cmp	r0, r1
 692 0090 0BD0     		beq	.L36
 323:Drivers/STM32C0xx_HAL_Driver/Src/stm32c0xx_hal_gpio.c ****       {
 693              		.loc 1 323 19 discriminator 3 view .LVU240
 694 0092 1C49     		ldr	r1, .L43+8
 695 0094 8842     		cmp	r0, r1
 696 0096 0BD0     		beq	.L37
 323:Drivers/STM32C0xx_HAL_Driver/Src/stm32c0xx_hal_gpio.c ****       {
 697              		.loc 1 323 19 discriminator 5 view .LVU241
 698 0098 1B49     		ldr	r1, .L43+12
 699 009a 8842     		cmp	r0, r1
 700 009c 0BD0     		beq	.L38
 323:Drivers/STM32C0xx_HAL_Driver/Src/stm32c0xx_hal_gpio.c ****       {
 701              		.loc 1 323 19 discriminator 7 view .LVU242
 702 009e 1B49     		ldr	r1, .L43+16
 703 00a0 8842     		cmp	r0, r1
 704 00a2 B4D0     		beq	.L42
 323:Drivers/STM32C0xx_HAL_Driver/Src/stm32c0xx_hal_gpio.c ****       {
 705              		.loc 1 323 19 discriminator 10 view .LVU243
 706 00a4 0621     		movs	r1, #6
ARM GAS  C:\Users\Yasi\AppData\Local\Temp\cc42HZSo.s 			page 22


 707 00a6 8846     		mov	r8, r1
 708 00a8 B6E7     		b	.L32
 709              	.L36:
 323:Drivers/STM32C0xx_HAL_Driver/Src/stm32c0xx_hal_gpio.c ****       {
 710              		.loc 1 323 19 discriminator 4 view .LVU244
 711 00aa 0121     		movs	r1, #1
 712 00ac 8846     		mov	r8, r1
 713 00ae B3E7     		b	.L32
 714              	.L37:
 323:Drivers/STM32C0xx_HAL_Driver/Src/stm32c0xx_hal_gpio.c ****       {
 715              		.loc 1 323 19 discriminator 6 view .LVU245
 716 00b0 0221     		movs	r1, #2
 717 00b2 8846     		mov	r8, r1
 718 00b4 B0E7     		b	.L32
 719              	.L38:
 323:Drivers/STM32C0xx_HAL_Driver/Src/stm32c0xx_hal_gpio.c ****       {
 720              		.loc 1 323 19 discriminator 8 view .LVU246
 721 00b6 0321     		movs	r1, #3
 722 00b8 8846     		mov	r8, r1
 723 00ba ADE7     		b	.L32
 724              	.L40:
 326:Drivers/STM32C0xx_HAL_Driver/Src/stm32c0xx_hal_gpio.c ****         EXTI->EMR1 &= ~(iocurrent);
 725              		.loc 1 326 9 is_stmt 1 view .LVU247
 326:Drivers/STM32C0xx_HAL_Driver/Src/stm32c0xx_hal_gpio.c ****         EXTI->EMR1 &= ~(iocurrent);
 726              		.loc 1 326 13 is_stmt 0 view .LVU248
 727 00bc 0F4D     		ldr	r5, .L43
 728              	.LVL64:
 326:Drivers/STM32C0xx_HAL_Driver/Src/stm32c0xx_hal_gpio.c ****         EXTI->EMR1 &= ~(iocurrent);
 729              		.loc 1 326 13 view .LVU249
 730 00be 8021     		movs	r1, #128
 731 00c0 8846     		mov	r8, r1
 732 00c2 6C58     		ldr	r4, [r5, r1]
 326:Drivers/STM32C0xx_HAL_Driver/Src/stm32c0xx_hal_gpio.c ****         EXTI->EMR1 &= ~(iocurrent);
 733              		.loc 1 326 20 view .LVU250
 734 00c4 6146     		mov	r1, ip
 735 00c6 8C43     		bics	r4, r1
 736 00c8 4146     		mov	r1, r8
 737 00ca 6C50     		str	r4, [r5, r1]
 327:Drivers/STM32C0xx_HAL_Driver/Src/stm32c0xx_hal_gpio.c **** 
 738              		.loc 1 327 9 is_stmt 1 view .LVU251
 327:Drivers/STM32C0xx_HAL_Driver/Src/stm32c0xx_hal_gpio.c **** 
 739              		.loc 1 327 13 is_stmt 0 view .LVU252
 740 00cc 0431     		adds	r1, r1, #4
 741 00ce 8846     		mov	r8, r1
 742 00d0 6C58     		ldr	r4, [r5, r1]
 327:Drivers/STM32C0xx_HAL_Driver/Src/stm32c0xx_hal_gpio.c **** 
 743              		.loc 1 327 20 view .LVU253
 744 00d2 6146     		mov	r1, ip
 745 00d4 8C43     		bics	r4, r1
 746 00d6 4146     		mov	r1, r8
 747 00d8 6C50     		str	r4, [r5, r1]
 330:Drivers/STM32C0xx_HAL_Driver/Src/stm32c0xx_hal_gpio.c ****         EXTI->FTSR1 &= ~(iocurrent);
 748              		.loc 1 330 9 is_stmt 1 view .LVU254
 330:Drivers/STM32C0xx_HAL_Driver/Src/stm32c0xx_hal_gpio.c ****         EXTI->FTSR1 &= ~(iocurrent);
 749              		.loc 1 330 13 is_stmt 0 view .LVU255
 750 00da 2C68     		ldr	r4, [r5]
 330:Drivers/STM32C0xx_HAL_Driver/Src/stm32c0xx_hal_gpio.c ****         EXTI->FTSR1 &= ~(iocurrent);
ARM GAS  C:\Users\Yasi\AppData\Local\Temp\cc42HZSo.s 			page 23


 751              		.loc 1 330 21 view .LVU256
 752 00dc 6146     		mov	r1, ip
 753 00de 8C43     		bics	r4, r1
 754 00e0 2C60     		str	r4, [r5]
 331:Drivers/STM32C0xx_HAL_Driver/Src/stm32c0xx_hal_gpio.c **** 
 755              		.loc 1 331 9 is_stmt 1 view .LVU257
 331:Drivers/STM32C0xx_HAL_Driver/Src/stm32c0xx_hal_gpio.c **** 
 756              		.loc 1 331 13 is_stmt 0 view .LVU258
 757 00e2 6C68     		ldr	r4, [r5, #4]
 331:Drivers/STM32C0xx_HAL_Driver/Src/stm32c0xx_hal_gpio.c **** 
 758              		.loc 1 331 21 view .LVU259
 759 00e4 8C43     		bics	r4, r1
 760 00e6 6C60     		str	r4, [r5, #4]
 333:Drivers/STM32C0xx_HAL_Driver/Src/stm32c0xx_hal_gpio.c ****         EXTI->EXTICR[position >> 2U] &= ~tmp;
 761              		.loc 1 333 9 is_stmt 1 view .LVU260
 762              	.LVL65:
 334:Drivers/STM32C0xx_HAL_Driver/Src/stm32c0xx_hal_gpio.c ****       }
 763              		.loc 1 334 9 view .LVU261
 334:Drivers/STM32C0xx_HAL_Driver/Src/stm32c0xx_hal_gpio.c ****       }
 764              		.loc 1 334 21 is_stmt 0 view .LVU262
 765 00e8 1837     		adds	r7, r7, #24
 766 00ea BC00     		lsls	r4, r7, #2
 767 00ec 6759     		ldr	r7, [r4, r5]
 334:Drivers/STM32C0xx_HAL_Driver/Src/stm32c0xx_hal_gpio.c ****       }
 768              		.loc 1 334 38 view .LVU263
 769 00ee B743     		bics	r7, r6
 770 00f0 6751     		str	r7, [r4, r5]
 771 00f2 95E7     		b	.L33
 772              	.LVL66:
 773              	.L41:
 355:Drivers/STM32C0xx_HAL_Driver/Src/stm32c0xx_hal_gpio.c ****   }
 356:Drivers/STM32C0xx_HAL_Driver/Src/stm32c0xx_hal_gpio.c **** }
 774              		.loc 1 356 1 view .LVU264
 775              		@ sp needed
 776              	.LVL67:
 777              		.loc 1 356 1 view .LVU265
 778 00f4 C0BC     		pop	{r6, r7}
 779 00f6 B946     		mov	r9, r7
 780 00f8 B046     		mov	r8, r6
 781 00fa F0BD     		pop	{r4, r5, r6, r7, pc}
 782              	.L44:
 783              		.align	2
 784              	.L43:
 785 00fc 00180240 		.word	1073879040
 786 0100 00040050 		.word	1342178304
 787 0104 00080050 		.word	1342179328
 788 0108 000C0050 		.word	1342180352
 789 010c 00140050 		.word	1342182400
 790              		.cfi_endproc
 791              	.LFE215:
 793              		.section	.text.HAL_GPIO_ReadPin,"ax",%progbits
 794              		.align	1
 795              		.global	HAL_GPIO_ReadPin
 796              		.syntax unified
 797              		.code	16
 798              		.thumb_func
 800              	HAL_GPIO_ReadPin:
ARM GAS  C:\Users\Yasi\AppData\Local\Temp\cc42HZSo.s 			page 24


 801              	.LVL68:
 802              	.LFB216:
 357:Drivers/STM32C0xx_HAL_Driver/Src/stm32c0xx_hal_gpio.c **** 
 358:Drivers/STM32C0xx_HAL_Driver/Src/stm32c0xx_hal_gpio.c **** /**
 359:Drivers/STM32C0xx_HAL_Driver/Src/stm32c0xx_hal_gpio.c ****   * @}
 360:Drivers/STM32C0xx_HAL_Driver/Src/stm32c0xx_hal_gpio.c ****   */
 361:Drivers/STM32C0xx_HAL_Driver/Src/stm32c0xx_hal_gpio.c **** 
 362:Drivers/STM32C0xx_HAL_Driver/Src/stm32c0xx_hal_gpio.c **** /** @addtogroup GPIO_Exported_Functions_Group2
 363:Drivers/STM32C0xx_HAL_Driver/Src/stm32c0xx_hal_gpio.c ****   *  @brief GPIO Read, Write, Toggle, Lock and EXTI management functions.
 364:Drivers/STM32C0xx_HAL_Driver/Src/stm32c0xx_hal_gpio.c ****   *
 365:Drivers/STM32C0xx_HAL_Driver/Src/stm32c0xx_hal_gpio.c **** @verbatim
 366:Drivers/STM32C0xx_HAL_Driver/Src/stm32c0xx_hal_gpio.c ****  ===============================================================================
 367:Drivers/STM32C0xx_HAL_Driver/Src/stm32c0xx_hal_gpio.c ****                        ##### IO operation functions #####
 368:Drivers/STM32C0xx_HAL_Driver/Src/stm32c0xx_hal_gpio.c ****  ===============================================================================
 369:Drivers/STM32C0xx_HAL_Driver/Src/stm32c0xx_hal_gpio.c **** 
 370:Drivers/STM32C0xx_HAL_Driver/Src/stm32c0xx_hal_gpio.c **** @endverbatim
 371:Drivers/STM32C0xx_HAL_Driver/Src/stm32c0xx_hal_gpio.c ****   * @{
 372:Drivers/STM32C0xx_HAL_Driver/Src/stm32c0xx_hal_gpio.c ****   */
 373:Drivers/STM32C0xx_HAL_Driver/Src/stm32c0xx_hal_gpio.c **** 
 374:Drivers/STM32C0xx_HAL_Driver/Src/stm32c0xx_hal_gpio.c **** /**
 375:Drivers/STM32C0xx_HAL_Driver/Src/stm32c0xx_hal_gpio.c ****   * @brief  Read the specified input port pin.
 376:Drivers/STM32C0xx_HAL_Driver/Src/stm32c0xx_hal_gpio.c ****   * @param  GPIOx where x can be (A..F) to select the GPIO peripheral for STM32C0xx family
 377:Drivers/STM32C0xx_HAL_Driver/Src/stm32c0xx_hal_gpio.c ****   * @param  GPIO_Pin specifies the port bit to read.
 378:Drivers/STM32C0xx_HAL_Driver/Src/stm32c0xx_hal_gpio.c ****   *         This parameter can be any combination of GPIO_Pin_x where x can be (0..15).
 379:Drivers/STM32C0xx_HAL_Driver/Src/stm32c0xx_hal_gpio.c ****   * @retval The input port pin value.
 380:Drivers/STM32C0xx_HAL_Driver/Src/stm32c0xx_hal_gpio.c ****   */
 381:Drivers/STM32C0xx_HAL_Driver/Src/stm32c0xx_hal_gpio.c **** GPIO_PinState HAL_GPIO_ReadPin(const GPIO_TypeDef *GPIOx, uint16_t GPIO_Pin)
 382:Drivers/STM32C0xx_HAL_Driver/Src/stm32c0xx_hal_gpio.c **** {
 803              		.loc 1 382 1 is_stmt 1 view -0
 804              		.cfi_startproc
 805              		@ args = 0, pretend = 0, frame = 0
 806              		@ frame_needed = 0, uses_anonymous_args = 0
 807              		@ link register save eliminated.
 383:Drivers/STM32C0xx_HAL_Driver/Src/stm32c0xx_hal_gpio.c ****   GPIO_PinState bitstatus;
 808              		.loc 1 383 3 view .LVU267
 384:Drivers/STM32C0xx_HAL_Driver/Src/stm32c0xx_hal_gpio.c **** 
 385:Drivers/STM32C0xx_HAL_Driver/Src/stm32c0xx_hal_gpio.c ****   /* Check the parameters */
 386:Drivers/STM32C0xx_HAL_Driver/Src/stm32c0xx_hal_gpio.c ****   assert_param(IS_GPIO_PIN(GPIO_Pin));
 809              		.loc 1 386 3 view .LVU268
 387:Drivers/STM32C0xx_HAL_Driver/Src/stm32c0xx_hal_gpio.c **** 
 388:Drivers/STM32C0xx_HAL_Driver/Src/stm32c0xx_hal_gpio.c ****   if ((GPIOx->IDR & GPIO_Pin) != 0U)
 810              		.loc 1 388 3 view .LVU269
 811              		.loc 1 388 13 is_stmt 0 view .LVU270
 812 0000 0369     		ldr	r3, [r0, #16]
 813              		.loc 1 388 6 view .LVU271
 814 0002 0B42     		tst	r3, r1
 815 0004 01D0     		beq	.L47
 389:Drivers/STM32C0xx_HAL_Driver/Src/stm32c0xx_hal_gpio.c ****   {
 390:Drivers/STM32C0xx_HAL_Driver/Src/stm32c0xx_hal_gpio.c ****     bitstatus = GPIO_PIN_SET;
 816              		.loc 1 390 15 view .LVU272
 817 0006 0120     		movs	r0, #1
 818              	.LVL69:
 819              	.L46:
 391:Drivers/STM32C0xx_HAL_Driver/Src/stm32c0xx_hal_gpio.c ****   }
 392:Drivers/STM32C0xx_HAL_Driver/Src/stm32c0xx_hal_gpio.c ****   else
 393:Drivers/STM32C0xx_HAL_Driver/Src/stm32c0xx_hal_gpio.c ****   {
 394:Drivers/STM32C0xx_HAL_Driver/Src/stm32c0xx_hal_gpio.c ****     bitstatus = GPIO_PIN_RESET;
ARM GAS  C:\Users\Yasi\AppData\Local\Temp\cc42HZSo.s 			page 25


 395:Drivers/STM32C0xx_HAL_Driver/Src/stm32c0xx_hal_gpio.c ****   }
 396:Drivers/STM32C0xx_HAL_Driver/Src/stm32c0xx_hal_gpio.c ****   return bitstatus;
 820              		.loc 1 396 3 is_stmt 1 view .LVU273
 397:Drivers/STM32C0xx_HAL_Driver/Src/stm32c0xx_hal_gpio.c **** }
 821              		.loc 1 397 1 is_stmt 0 view .LVU274
 822              		@ sp needed
 823 0008 7047     		bx	lr
 824              	.LVL70:
 825              	.L47:
 394:Drivers/STM32C0xx_HAL_Driver/Src/stm32c0xx_hal_gpio.c ****   }
 826              		.loc 1 394 15 view .LVU275
 827 000a 0020     		movs	r0, #0
 828              	.LVL71:
 394:Drivers/STM32C0xx_HAL_Driver/Src/stm32c0xx_hal_gpio.c ****   }
 829              		.loc 1 394 15 view .LVU276
 830 000c FCE7     		b	.L46
 831              		.cfi_endproc
 832              	.LFE216:
 834              		.section	.text.HAL_GPIO_WritePin,"ax",%progbits
 835              		.align	1
 836              		.global	HAL_GPIO_WritePin
 837              		.syntax unified
 838              		.code	16
 839              		.thumb_func
 841              	HAL_GPIO_WritePin:
 842              	.LVL72:
 843              	.LFB217:
 398:Drivers/STM32C0xx_HAL_Driver/Src/stm32c0xx_hal_gpio.c **** 
 399:Drivers/STM32C0xx_HAL_Driver/Src/stm32c0xx_hal_gpio.c **** /**
 400:Drivers/STM32C0xx_HAL_Driver/Src/stm32c0xx_hal_gpio.c ****   * @brief  Set or clear the selected data port bit.
 401:Drivers/STM32C0xx_HAL_Driver/Src/stm32c0xx_hal_gpio.c ****   * @note   This function uses GPIOx_BSRR and GPIOx_BRR registers to allow atomic read/modify
 402:Drivers/STM32C0xx_HAL_Driver/Src/stm32c0xx_hal_gpio.c ****   *         accesses. In this way, there is no risk of an IRQ occurring between
 403:Drivers/STM32C0xx_HAL_Driver/Src/stm32c0xx_hal_gpio.c ****   *         the read and the modify access.
 404:Drivers/STM32C0xx_HAL_Driver/Src/stm32c0xx_hal_gpio.c ****   * @param  GPIOx where x can be (A..F) to select the GPIO peripheral for STM32C0xx family
 405:Drivers/STM32C0xx_HAL_Driver/Src/stm32c0xx_hal_gpio.c ****   * @param  GPIO_Pin specifies the port bit to be written.
 406:Drivers/STM32C0xx_HAL_Driver/Src/stm32c0xx_hal_gpio.c ****   *         This parameter can be any combination of GPIO_Pin_x where x can be (0..15).
 407:Drivers/STM32C0xx_HAL_Driver/Src/stm32c0xx_hal_gpio.c ****   * @param  PinState specifies the value to be written to the selected bit.
 408:Drivers/STM32C0xx_HAL_Driver/Src/stm32c0xx_hal_gpio.c ****   *         This parameter can be one of the GPIO_PinState enum values:
 409:Drivers/STM32C0xx_HAL_Driver/Src/stm32c0xx_hal_gpio.c ****   *            @arg GPIO_PIN_RESET: to clear the port pin
 410:Drivers/STM32C0xx_HAL_Driver/Src/stm32c0xx_hal_gpio.c ****   *            @arg GPIO_PIN_SET: to set the port pin
 411:Drivers/STM32C0xx_HAL_Driver/Src/stm32c0xx_hal_gpio.c ****   * @retval None
 412:Drivers/STM32C0xx_HAL_Driver/Src/stm32c0xx_hal_gpio.c ****   */
 413:Drivers/STM32C0xx_HAL_Driver/Src/stm32c0xx_hal_gpio.c **** void HAL_GPIO_WritePin(GPIO_TypeDef *GPIOx, uint16_t GPIO_Pin, GPIO_PinState PinState)
 414:Drivers/STM32C0xx_HAL_Driver/Src/stm32c0xx_hal_gpio.c **** {
 844              		.loc 1 414 1 is_stmt 1 view -0
 845              		.cfi_startproc
 846              		@ args = 0, pretend = 0, frame = 0
 847              		@ frame_needed = 0, uses_anonymous_args = 0
 848              		@ link register save eliminated.
 415:Drivers/STM32C0xx_HAL_Driver/Src/stm32c0xx_hal_gpio.c ****   /* Check the parameters */
 416:Drivers/STM32C0xx_HAL_Driver/Src/stm32c0xx_hal_gpio.c ****   assert_param(IS_GPIO_PIN(GPIO_Pin));
 849              		.loc 1 416 3 view .LVU278
 417:Drivers/STM32C0xx_HAL_Driver/Src/stm32c0xx_hal_gpio.c ****   assert_param(IS_GPIO_PIN_ACTION(PinState));
 850              		.loc 1 417 3 view .LVU279
 418:Drivers/STM32C0xx_HAL_Driver/Src/stm32c0xx_hal_gpio.c **** 
 419:Drivers/STM32C0xx_HAL_Driver/Src/stm32c0xx_hal_gpio.c ****   if (PinState != GPIO_PIN_RESET)
 851              		.loc 1 419 3 view .LVU280
ARM GAS  C:\Users\Yasi\AppData\Local\Temp\cc42HZSo.s 			page 26


 852              		.loc 1 419 6 is_stmt 0 view .LVU281
 853 0000 002A     		cmp	r2, #0
 854 0002 01D0     		beq	.L49
 420:Drivers/STM32C0xx_HAL_Driver/Src/stm32c0xx_hal_gpio.c ****   {
 421:Drivers/STM32C0xx_HAL_Driver/Src/stm32c0xx_hal_gpio.c ****     GPIOx->BSRR = (uint32_t)GPIO_Pin;
 855              		.loc 1 421 5 is_stmt 1 view .LVU282
 856              		.loc 1 421 17 is_stmt 0 view .LVU283
 857 0004 8161     		str	r1, [r0, #24]
 858              	.L48:
 422:Drivers/STM32C0xx_HAL_Driver/Src/stm32c0xx_hal_gpio.c ****   }
 423:Drivers/STM32C0xx_HAL_Driver/Src/stm32c0xx_hal_gpio.c ****   else
 424:Drivers/STM32C0xx_HAL_Driver/Src/stm32c0xx_hal_gpio.c ****   {
 425:Drivers/STM32C0xx_HAL_Driver/Src/stm32c0xx_hal_gpio.c ****     GPIOx->BRR = (uint32_t)GPIO_Pin;
 426:Drivers/STM32C0xx_HAL_Driver/Src/stm32c0xx_hal_gpio.c ****   }
 427:Drivers/STM32C0xx_HAL_Driver/Src/stm32c0xx_hal_gpio.c **** }
 859              		.loc 1 427 1 view .LVU284
 860              		@ sp needed
 861 0006 7047     		bx	lr
 862              	.L49:
 425:Drivers/STM32C0xx_HAL_Driver/Src/stm32c0xx_hal_gpio.c ****   }
 863              		.loc 1 425 5 is_stmt 1 view .LVU285
 425:Drivers/STM32C0xx_HAL_Driver/Src/stm32c0xx_hal_gpio.c ****   }
 864              		.loc 1 425 16 is_stmt 0 view .LVU286
 865 0008 8162     		str	r1, [r0, #40]
 866              		.loc 1 427 1 view .LVU287
 867 000a FCE7     		b	.L48
 868              		.cfi_endproc
 869              	.LFE217:
 871              		.section	.text.HAL_GPIO_WriteMultipleStatePin,"ax",%progbits
 872              		.align	1
 873              		.global	HAL_GPIO_WriteMultipleStatePin
 874              		.syntax unified
 875              		.code	16
 876              		.thumb_func
 878              	HAL_GPIO_WriteMultipleStatePin:
 879              	.LVL73:
 880              	.LFB218:
 428:Drivers/STM32C0xx_HAL_Driver/Src/stm32c0xx_hal_gpio.c **** 
 429:Drivers/STM32C0xx_HAL_Driver/Src/stm32c0xx_hal_gpio.c **** /**
 430:Drivers/STM32C0xx_HAL_Driver/Src/stm32c0xx_hal_gpio.c ****   * @brief  Set and clear several pins of a dedicated port in same cycle.
 431:Drivers/STM32C0xx_HAL_Driver/Src/stm32c0xx_hal_gpio.c ****   * @note   This function uses GPIOx_BSRR and GPIOx_BRR registers to allow atomic read/modify
 432:Drivers/STM32C0xx_HAL_Driver/Src/stm32c0xx_hal_gpio.c ****   *         accesses.
 433:Drivers/STM32C0xx_HAL_Driver/Src/stm32c0xx_hal_gpio.c ****   * @param  GPIOx where x can be (A..F) to select the GPIO peripheral for STM32C0xx family
 434:Drivers/STM32C0xx_HAL_Driver/Src/stm32c0xx_hal_gpio.c ****   * @param  PinReset specifies the port bits to be reset
 435:Drivers/STM32C0xx_HAL_Driver/Src/stm32c0xx_hal_gpio.c ****   *         This parameter can be any combination of GPIO_Pin_x where x can be (0..15) or zero.
 436:Drivers/STM32C0xx_HAL_Driver/Src/stm32c0xx_hal_gpio.c ****   * @param  PinSet specifies the port bits to be set
 437:Drivers/STM32C0xx_HAL_Driver/Src/stm32c0xx_hal_gpio.c ****   *         This parameter can be any combination of GPIO_Pin_x where x can be (0..15) or zero.
 438:Drivers/STM32C0xx_HAL_Driver/Src/stm32c0xx_hal_gpio.c ****   * @note   Both PinReset and PinSet combinations shall not get any common bit, else
 439:Drivers/STM32C0xx_HAL_Driver/Src/stm32c0xx_hal_gpio.c ****   *         assert would be triggered.
 440:Drivers/STM32C0xx_HAL_Driver/Src/stm32c0xx_hal_gpio.c ****   * @note   At least one of the two parameters used to set or reset shall be different from zero.
 441:Drivers/STM32C0xx_HAL_Driver/Src/stm32c0xx_hal_gpio.c ****   * @retval None
 442:Drivers/STM32C0xx_HAL_Driver/Src/stm32c0xx_hal_gpio.c ****   */
 443:Drivers/STM32C0xx_HAL_Driver/Src/stm32c0xx_hal_gpio.c **** void HAL_GPIO_WriteMultipleStatePin(GPIO_TypeDef *GPIOx, uint16_t PinReset, uint16_t PinSet)
 444:Drivers/STM32C0xx_HAL_Driver/Src/stm32c0xx_hal_gpio.c **** {
 881              		.loc 1 444 1 is_stmt 1 view -0
 882              		.cfi_startproc
 883              		@ args = 0, pretend = 0, frame = 0
ARM GAS  C:\Users\Yasi\AppData\Local\Temp\cc42HZSo.s 			page 27


 884              		@ frame_needed = 0, uses_anonymous_args = 0
 885              		@ link register save eliminated.
 445:Drivers/STM32C0xx_HAL_Driver/Src/stm32c0xx_hal_gpio.c ****   uint32_t tmp;
 886              		.loc 1 445 3 view .LVU289
 446:Drivers/STM32C0xx_HAL_Driver/Src/stm32c0xx_hal_gpio.c **** 
 447:Drivers/STM32C0xx_HAL_Driver/Src/stm32c0xx_hal_gpio.c ****   /* Check the parameters */
 448:Drivers/STM32C0xx_HAL_Driver/Src/stm32c0xx_hal_gpio.c ****   /* Make sure at least one parameter is different from zero and that there is no common pin */
 449:Drivers/STM32C0xx_HAL_Driver/Src/stm32c0xx_hal_gpio.c ****   assert_param(IS_GPIO_PIN((uint32_t)PinReset | (uint32_t)PinSet));
 887              		.loc 1 449 3 view .LVU290
 450:Drivers/STM32C0xx_HAL_Driver/Src/stm32c0xx_hal_gpio.c ****   assert_param(IS_GPIO_COMMON_PIN(PinReset, PinSet));
 888              		.loc 1 450 3 view .LVU291
 451:Drivers/STM32C0xx_HAL_Driver/Src/stm32c0xx_hal_gpio.c **** 
 452:Drivers/STM32C0xx_HAL_Driver/Src/stm32c0xx_hal_gpio.c ****   tmp = (((uint32_t)PinReset << 16) | PinSet);
 889              		.loc 1 452 3 view .LVU292
 890              		.loc 1 452 30 is_stmt 0 view .LVU293
 891 0000 0904     		lsls	r1, r1, #16
 892              	.LVL74:
 893              		.loc 1 452 7 view .LVU294
 894 0002 1143     		orrs	r1, r2
 895              	.LVL75:
 453:Drivers/STM32C0xx_HAL_Driver/Src/stm32c0xx_hal_gpio.c ****   GPIOx->BSRR = tmp;
 896              		.loc 1 453 3 is_stmt 1 view .LVU295
 897              		.loc 1 453 15 is_stmt 0 view .LVU296
 898 0004 8161     		str	r1, [r0, #24]
 454:Drivers/STM32C0xx_HAL_Driver/Src/stm32c0xx_hal_gpio.c **** }
 899              		.loc 1 454 1 view .LVU297
 900              		@ sp needed
 901 0006 7047     		bx	lr
 902              		.cfi_endproc
 903              	.LFE218:
 905              		.section	.text.HAL_GPIO_TogglePin,"ax",%progbits
 906              		.align	1
 907              		.global	HAL_GPIO_TogglePin
 908              		.syntax unified
 909              		.code	16
 910              		.thumb_func
 912              	HAL_GPIO_TogglePin:
 913              	.LVL76:
 914              	.LFB219:
 455:Drivers/STM32C0xx_HAL_Driver/Src/stm32c0xx_hal_gpio.c **** 
 456:Drivers/STM32C0xx_HAL_Driver/Src/stm32c0xx_hal_gpio.c **** /**
 457:Drivers/STM32C0xx_HAL_Driver/Src/stm32c0xx_hal_gpio.c ****   * @brief  Toggle the specified GPIO pin.
 458:Drivers/STM32C0xx_HAL_Driver/Src/stm32c0xx_hal_gpio.c ****   * @param  GPIOx: where x can be (A..I) to select the GPIO peripheral for STM32C0 family
 459:Drivers/STM32C0xx_HAL_Driver/Src/stm32c0xx_hal_gpio.c ****   * @param  GPIO_Pin: specifies the pin to be toggled.
 460:Drivers/STM32C0xx_HAL_Driver/Src/stm32c0xx_hal_gpio.c ****   * @retval None
 461:Drivers/STM32C0xx_HAL_Driver/Src/stm32c0xx_hal_gpio.c ****   */
 462:Drivers/STM32C0xx_HAL_Driver/Src/stm32c0xx_hal_gpio.c **** void HAL_GPIO_TogglePin(GPIO_TypeDef *GPIOx, uint16_t GPIO_Pin)
 463:Drivers/STM32C0xx_HAL_Driver/Src/stm32c0xx_hal_gpio.c **** {
 915              		.loc 1 463 1 is_stmt 1 view -0
 916              		.cfi_startproc
 917              		@ args = 0, pretend = 0, frame = 0
 918              		@ frame_needed = 0, uses_anonymous_args = 0
 919              		@ link register save eliminated.
 464:Drivers/STM32C0xx_HAL_Driver/Src/stm32c0xx_hal_gpio.c ****   uint32_t odr;
 920              		.loc 1 464 3 view .LVU299
 465:Drivers/STM32C0xx_HAL_Driver/Src/stm32c0xx_hal_gpio.c **** 
 466:Drivers/STM32C0xx_HAL_Driver/Src/stm32c0xx_hal_gpio.c ****   /* Check the parameters */
ARM GAS  C:\Users\Yasi\AppData\Local\Temp\cc42HZSo.s 			page 28


 467:Drivers/STM32C0xx_HAL_Driver/Src/stm32c0xx_hal_gpio.c ****   assert_param(IS_GPIO_PIN(GPIO_Pin));
 921              		.loc 1 467 3 view .LVU300
 468:Drivers/STM32C0xx_HAL_Driver/Src/stm32c0xx_hal_gpio.c **** 
 469:Drivers/STM32C0xx_HAL_Driver/Src/stm32c0xx_hal_gpio.c ****   /* get current Output Data Register value */
 470:Drivers/STM32C0xx_HAL_Driver/Src/stm32c0xx_hal_gpio.c ****   odr = GPIOx->ODR;
 922              		.loc 1 470 3 view .LVU301
 923              		.loc 1 470 7 is_stmt 0 view .LVU302
 924 0000 4269     		ldr	r2, [r0, #20]
 925              	.LVL77:
 471:Drivers/STM32C0xx_HAL_Driver/Src/stm32c0xx_hal_gpio.c **** 
 472:Drivers/STM32C0xx_HAL_Driver/Src/stm32c0xx_hal_gpio.c ****   /* Set selected pins that were at low level, and reset ones that were high */
 473:Drivers/STM32C0xx_HAL_Driver/Src/stm32c0xx_hal_gpio.c ****   GPIOx->BSRR = ((odr & GPIO_Pin) << GPIO_NUMBER) | (~odr & GPIO_Pin);
 926              		.loc 1 473 3 is_stmt 1 view .LVU303
 927              		.loc 1 473 23 is_stmt 0 view .LVU304
 928 0002 1300     		movs	r3, r2
 929 0004 0B40     		ands	r3, r1
 930              		.loc 1 473 35 view .LVU305
 931 0006 1B04     		lsls	r3, r3, #16
 932              		.loc 1 473 59 view .LVU306
 933 0008 9143     		bics	r1, r2
 934              	.LVL78:
 935              		.loc 1 473 51 view .LVU307
 936 000a 0B43     		orrs	r3, r1
 937              		.loc 1 473 15 view .LVU308
 938 000c 8361     		str	r3, [r0, #24]
 474:Drivers/STM32C0xx_HAL_Driver/Src/stm32c0xx_hal_gpio.c **** }
 939              		.loc 1 474 1 view .LVU309
 940              		@ sp needed
 941 000e 7047     		bx	lr
 942              		.cfi_endproc
 943              	.LFE219:
 945              		.section	.text.HAL_GPIO_LockPin,"ax",%progbits
 946              		.align	1
 947              		.global	HAL_GPIO_LockPin
 948              		.syntax unified
 949              		.code	16
 950              		.thumb_func
 952              	HAL_GPIO_LockPin:
 953              	.LVL79:
 954              	.LFB220:
 475:Drivers/STM32C0xx_HAL_Driver/Src/stm32c0xx_hal_gpio.c **** 
 476:Drivers/STM32C0xx_HAL_Driver/Src/stm32c0xx_hal_gpio.c **** /**
 477:Drivers/STM32C0xx_HAL_Driver/Src/stm32c0xx_hal_gpio.c ****   * @brief  Lock GPIO Pins configuration registers.
 478:Drivers/STM32C0xx_HAL_Driver/Src/stm32c0xx_hal_gpio.c ****   * @note   The locked registers are GPIOx_MODER, GPIOx_OTYPER, GPIOx_OSPEEDR,
 479:Drivers/STM32C0xx_HAL_Driver/Src/stm32c0xx_hal_gpio.c ****   *         GPIOx_PUPDR, GPIOx_AFRL and GPIOx_AFRH.
 480:Drivers/STM32C0xx_HAL_Driver/Src/stm32c0xx_hal_gpio.c ****   * @note   The configuration of the locked GPIO pins can no longer be modified
 481:Drivers/STM32C0xx_HAL_Driver/Src/stm32c0xx_hal_gpio.c ****   *         until the next reset.
 482:Drivers/STM32C0xx_HAL_Driver/Src/stm32c0xx_hal_gpio.c ****   * @param  GPIOx where x can be (A..F) to select the GPIO peripheral for STM32C0xx family
 483:Drivers/STM32C0xx_HAL_Driver/Src/stm32c0xx_hal_gpio.c ****   * @param  GPIO_Pin specifies the port bits to be locked.
 484:Drivers/STM32C0xx_HAL_Driver/Src/stm32c0xx_hal_gpio.c ****   *         This parameter can be any combination of GPIO_Pin_x where x can be (0..15).
 485:Drivers/STM32C0xx_HAL_Driver/Src/stm32c0xx_hal_gpio.c ****   * @retval None
 486:Drivers/STM32C0xx_HAL_Driver/Src/stm32c0xx_hal_gpio.c ****   */
 487:Drivers/STM32C0xx_HAL_Driver/Src/stm32c0xx_hal_gpio.c **** HAL_StatusTypeDef HAL_GPIO_LockPin(GPIO_TypeDef *GPIOx, uint16_t GPIO_Pin)
 488:Drivers/STM32C0xx_HAL_Driver/Src/stm32c0xx_hal_gpio.c **** {
 955              		.loc 1 488 1 is_stmt 1 view -0
 956              		.cfi_startproc
 957              		@ args = 0, pretend = 0, frame = 8
ARM GAS  C:\Users\Yasi\AppData\Local\Temp\cc42HZSo.s 			page 29


 958              		@ frame_needed = 0, uses_anonymous_args = 0
 959              		@ link register save eliminated.
 960              		.loc 1 488 1 is_stmt 0 view .LVU311
 961 0000 82B0     		sub	sp, sp, #8
 962              	.LCFI4:
 963              		.cfi_def_cfa_offset 8
 489:Drivers/STM32C0xx_HAL_Driver/Src/stm32c0xx_hal_gpio.c ****   __IO uint32_t tmp = GPIO_LCKR_LCKK;
 964              		.loc 1 489 3 is_stmt 1 view .LVU312
 965              		.loc 1 489 17 is_stmt 0 view .LVU313
 966 0002 8022     		movs	r2, #128
 967 0004 5202     		lsls	r2, r2, #9
 968 0006 0192     		str	r2, [sp, #4]
 490:Drivers/STM32C0xx_HAL_Driver/Src/stm32c0xx_hal_gpio.c **** 
 491:Drivers/STM32C0xx_HAL_Driver/Src/stm32c0xx_hal_gpio.c ****   /* Check the parameters */
 492:Drivers/STM32C0xx_HAL_Driver/Src/stm32c0xx_hal_gpio.c ****   assert_param(IS_GPIO_LOCK_INSTANCE(GPIOx));
 969              		.loc 1 492 3 is_stmt 1 view .LVU314
 493:Drivers/STM32C0xx_HAL_Driver/Src/stm32c0xx_hal_gpio.c ****   assert_param(IS_GPIO_PIN(GPIO_Pin));
 970              		.loc 1 493 3 view .LVU315
 494:Drivers/STM32C0xx_HAL_Driver/Src/stm32c0xx_hal_gpio.c **** 
 495:Drivers/STM32C0xx_HAL_Driver/Src/stm32c0xx_hal_gpio.c ****   /* Apply lock key write sequence */
 496:Drivers/STM32C0xx_HAL_Driver/Src/stm32c0xx_hal_gpio.c ****   tmp |= GPIO_Pin;
 971              		.loc 1 496 3 view .LVU316
 972              		.loc 1 496 7 is_stmt 0 view .LVU317
 973 0008 019B     		ldr	r3, [sp, #4]
 974 000a 0B43     		orrs	r3, r1
 975 000c 0193     		str	r3, [sp, #4]
 497:Drivers/STM32C0xx_HAL_Driver/Src/stm32c0xx_hal_gpio.c ****   /* Set LCKx bit(s): LCKK='1' + LCK[15-0] */
 498:Drivers/STM32C0xx_HAL_Driver/Src/stm32c0xx_hal_gpio.c ****   GPIOx->LCKR = tmp;
 976              		.loc 1 498 3 is_stmt 1 view .LVU318
 977              		.loc 1 498 15 is_stmt 0 view .LVU319
 978 000e 019B     		ldr	r3, [sp, #4]
 979 0010 C361     		str	r3, [r0, #28]
 499:Drivers/STM32C0xx_HAL_Driver/Src/stm32c0xx_hal_gpio.c ****   /* Reset LCKx bit(s): LCKK='0' + LCK[15-0] */
 500:Drivers/STM32C0xx_HAL_Driver/Src/stm32c0xx_hal_gpio.c ****   GPIOx->LCKR = GPIO_Pin;
 980              		.loc 1 500 3 is_stmt 1 view .LVU320
 981              		.loc 1 500 15 is_stmt 0 view .LVU321
 982 0012 C161     		str	r1, [r0, #28]
 501:Drivers/STM32C0xx_HAL_Driver/Src/stm32c0xx_hal_gpio.c ****   /* Set LCKx bit(s): LCKK='1' + LCK[15-0] */
 502:Drivers/STM32C0xx_HAL_Driver/Src/stm32c0xx_hal_gpio.c ****   GPIOx->LCKR = tmp;
 983              		.loc 1 502 3 is_stmt 1 view .LVU322
 984              		.loc 1 502 15 is_stmt 0 view .LVU323
 985 0014 019B     		ldr	r3, [sp, #4]
 986 0016 C361     		str	r3, [r0, #28]
 503:Drivers/STM32C0xx_HAL_Driver/Src/stm32c0xx_hal_gpio.c ****   /* Read LCKK bit*/
 504:Drivers/STM32C0xx_HAL_Driver/Src/stm32c0xx_hal_gpio.c ****   tmp = GPIOx->LCKR;
 987              		.loc 1 504 3 is_stmt 1 view .LVU324
 988              		.loc 1 504 14 is_stmt 0 view .LVU325
 989 0018 C369     		ldr	r3, [r0, #28]
 990              		.loc 1 504 7 view .LVU326
 991 001a 0193     		str	r3, [sp, #4]
 505:Drivers/STM32C0xx_HAL_Driver/Src/stm32c0xx_hal_gpio.c **** 
 506:Drivers/STM32C0xx_HAL_Driver/Src/stm32c0xx_hal_gpio.c ****   /* read again in order to confirm lock is active */
 507:Drivers/STM32C0xx_HAL_Driver/Src/stm32c0xx_hal_gpio.c ****   if ((GPIOx->LCKR & GPIO_LCKR_LCKK) != GPIO_LCKR_LCKK)
 992              		.loc 1 507 3 is_stmt 1 view .LVU327
 993              		.loc 1 507 13 is_stmt 0 view .LVU328
 994 001c C369     		ldr	r3, [r0, #28]
 995              		.loc 1 507 6 view .LVU329
ARM GAS  C:\Users\Yasi\AppData\Local\Temp\cc42HZSo.s 			page 30


 996 001e 1342     		tst	r3, r2
 997 0020 02D0     		beq	.L55
 508:Drivers/STM32C0xx_HAL_Driver/Src/stm32c0xx_hal_gpio.c ****   {
 509:Drivers/STM32C0xx_HAL_Driver/Src/stm32c0xx_hal_gpio.c ****     return HAL_ERROR;
 510:Drivers/STM32C0xx_HAL_Driver/Src/stm32c0xx_hal_gpio.c ****   }
 511:Drivers/STM32C0xx_HAL_Driver/Src/stm32c0xx_hal_gpio.c ****   return HAL_OK;
 998              		.loc 1 511 10 view .LVU330
 999 0022 0020     		movs	r0, #0
 1000              	.LVL80:
 1001              	.L54:
 512:Drivers/STM32C0xx_HAL_Driver/Src/stm32c0xx_hal_gpio.c **** }
 1002              		.loc 1 512 1 view .LVU331
 1003 0024 02B0     		add	sp, sp, #8
 1004              		@ sp needed
 1005 0026 7047     		bx	lr
 1006              	.LVL81:
 1007              	.L55:
 509:Drivers/STM32C0xx_HAL_Driver/Src/stm32c0xx_hal_gpio.c ****   }
 1008              		.loc 1 509 12 view .LVU332
 1009 0028 0120     		movs	r0, #1
 1010              	.LVL82:
 509:Drivers/STM32C0xx_HAL_Driver/Src/stm32c0xx_hal_gpio.c ****   }
 1011              		.loc 1 509 12 view .LVU333
 1012 002a FBE7     		b	.L54
 1013              		.cfi_endproc
 1014              	.LFE220:
 1016              		.section	.text.HAL_GPIO_EXTI_Rising_Callback,"ax",%progbits
 1017              		.align	1
 1018              		.weak	HAL_GPIO_EXTI_Rising_Callback
 1019              		.syntax unified
 1020              		.code	16
 1021              		.thumb_func
 1023              	HAL_GPIO_EXTI_Rising_Callback:
 1024              	.LVL83:
 1025              	.LFB222:
 513:Drivers/STM32C0xx_HAL_Driver/Src/stm32c0xx_hal_gpio.c **** 
 514:Drivers/STM32C0xx_HAL_Driver/Src/stm32c0xx_hal_gpio.c **** /**
 515:Drivers/STM32C0xx_HAL_Driver/Src/stm32c0xx_hal_gpio.c ****   * @brief  Handle EXTI interrupt request.
 516:Drivers/STM32C0xx_HAL_Driver/Src/stm32c0xx_hal_gpio.c ****   * @param  GPIO_Pin Specifies the port pin connected to corresponding EXTI line.
 517:Drivers/STM32C0xx_HAL_Driver/Src/stm32c0xx_hal_gpio.c ****   * @retval None
 518:Drivers/STM32C0xx_HAL_Driver/Src/stm32c0xx_hal_gpio.c ****   */
 519:Drivers/STM32C0xx_HAL_Driver/Src/stm32c0xx_hal_gpio.c **** void HAL_GPIO_EXTI_IRQHandler(uint16_t GPIO_Pin)
 520:Drivers/STM32C0xx_HAL_Driver/Src/stm32c0xx_hal_gpio.c **** {
 521:Drivers/STM32C0xx_HAL_Driver/Src/stm32c0xx_hal_gpio.c ****   /* EXTI line interrupt detected */
 522:Drivers/STM32C0xx_HAL_Driver/Src/stm32c0xx_hal_gpio.c ****   if (__HAL_GPIO_EXTI_GET_RISING_IT(GPIO_Pin) != 0U)
 523:Drivers/STM32C0xx_HAL_Driver/Src/stm32c0xx_hal_gpio.c ****   {
 524:Drivers/STM32C0xx_HAL_Driver/Src/stm32c0xx_hal_gpio.c ****     __HAL_GPIO_EXTI_CLEAR_RISING_IT(GPIO_Pin);
 525:Drivers/STM32C0xx_HAL_Driver/Src/stm32c0xx_hal_gpio.c ****     HAL_GPIO_EXTI_Rising_Callback(GPIO_Pin);
 526:Drivers/STM32C0xx_HAL_Driver/Src/stm32c0xx_hal_gpio.c ****   }
 527:Drivers/STM32C0xx_HAL_Driver/Src/stm32c0xx_hal_gpio.c **** 
 528:Drivers/STM32C0xx_HAL_Driver/Src/stm32c0xx_hal_gpio.c ****   if (__HAL_GPIO_EXTI_GET_FALLING_IT(GPIO_Pin) != 0U)
 529:Drivers/STM32C0xx_HAL_Driver/Src/stm32c0xx_hal_gpio.c ****   {
 530:Drivers/STM32C0xx_HAL_Driver/Src/stm32c0xx_hal_gpio.c ****     __HAL_GPIO_EXTI_CLEAR_FALLING_IT(GPIO_Pin);
 531:Drivers/STM32C0xx_HAL_Driver/Src/stm32c0xx_hal_gpio.c ****     HAL_GPIO_EXTI_Falling_Callback(GPIO_Pin);
 532:Drivers/STM32C0xx_HAL_Driver/Src/stm32c0xx_hal_gpio.c ****   }
 533:Drivers/STM32C0xx_HAL_Driver/Src/stm32c0xx_hal_gpio.c **** }
 534:Drivers/STM32C0xx_HAL_Driver/Src/stm32c0xx_hal_gpio.c **** 
ARM GAS  C:\Users\Yasi\AppData\Local\Temp\cc42HZSo.s 			page 31


 535:Drivers/STM32C0xx_HAL_Driver/Src/stm32c0xx_hal_gpio.c **** /**
 536:Drivers/STM32C0xx_HAL_Driver/Src/stm32c0xx_hal_gpio.c ****   * @brief  EXTI line detection callback.
 537:Drivers/STM32C0xx_HAL_Driver/Src/stm32c0xx_hal_gpio.c ****   * @param  GPIO_Pin Specifies the port pin connected to corresponding EXTI line.
 538:Drivers/STM32C0xx_HAL_Driver/Src/stm32c0xx_hal_gpio.c ****   * @retval None
 539:Drivers/STM32C0xx_HAL_Driver/Src/stm32c0xx_hal_gpio.c ****   */
 540:Drivers/STM32C0xx_HAL_Driver/Src/stm32c0xx_hal_gpio.c **** __weak void HAL_GPIO_EXTI_Rising_Callback(uint16_t GPIO_Pin)
 541:Drivers/STM32C0xx_HAL_Driver/Src/stm32c0xx_hal_gpio.c **** {
 1026              		.loc 1 541 1 is_stmt 1 view -0
 1027              		.cfi_startproc
 1028              		@ args = 0, pretend = 0, frame = 0
 1029              		@ frame_needed = 0, uses_anonymous_args = 0
 1030              		@ link register save eliminated.
 542:Drivers/STM32C0xx_HAL_Driver/Src/stm32c0xx_hal_gpio.c ****   /* Prevent unused argument(s) compilation warning */
 543:Drivers/STM32C0xx_HAL_Driver/Src/stm32c0xx_hal_gpio.c ****   UNUSED(GPIO_Pin);
 1031              		.loc 1 543 3 view .LVU335
 544:Drivers/STM32C0xx_HAL_Driver/Src/stm32c0xx_hal_gpio.c **** 
 545:Drivers/STM32C0xx_HAL_Driver/Src/stm32c0xx_hal_gpio.c ****   /* NOTE: This function should not be modified, when the callback is needed,
 546:Drivers/STM32C0xx_HAL_Driver/Src/stm32c0xx_hal_gpio.c ****            the HAL_GPIO_EXTI_Rising_Callback could be implemented in the user file
 547:Drivers/STM32C0xx_HAL_Driver/Src/stm32c0xx_hal_gpio.c ****    */
 548:Drivers/STM32C0xx_HAL_Driver/Src/stm32c0xx_hal_gpio.c **** }
 1032              		.loc 1 548 1 is_stmt 0 view .LVU336
 1033              		@ sp needed
 1034 0000 7047     		bx	lr
 1035              		.cfi_endproc
 1036              	.LFE222:
 1038              		.section	.text.HAL_GPIO_EXTI_Falling_Callback,"ax",%progbits
 1039              		.align	1
 1040              		.weak	HAL_GPIO_EXTI_Falling_Callback
 1041              		.syntax unified
 1042              		.code	16
 1043              		.thumb_func
 1045              	HAL_GPIO_EXTI_Falling_Callback:
 1046              	.LVL84:
 1047              	.LFB223:
 549:Drivers/STM32C0xx_HAL_Driver/Src/stm32c0xx_hal_gpio.c **** 
 550:Drivers/STM32C0xx_HAL_Driver/Src/stm32c0xx_hal_gpio.c **** /**
 551:Drivers/STM32C0xx_HAL_Driver/Src/stm32c0xx_hal_gpio.c ****   * @brief  EXTI line detection callback.
 552:Drivers/STM32C0xx_HAL_Driver/Src/stm32c0xx_hal_gpio.c ****   * @param  GPIO_Pin Specifies the port pin connected to corresponding EXTI line.
 553:Drivers/STM32C0xx_HAL_Driver/Src/stm32c0xx_hal_gpio.c ****   * @retval None
 554:Drivers/STM32C0xx_HAL_Driver/Src/stm32c0xx_hal_gpio.c ****   */
 555:Drivers/STM32C0xx_HAL_Driver/Src/stm32c0xx_hal_gpio.c **** __weak void HAL_GPIO_EXTI_Falling_Callback(uint16_t GPIO_Pin)
 556:Drivers/STM32C0xx_HAL_Driver/Src/stm32c0xx_hal_gpio.c **** {
 1048              		.loc 1 556 1 is_stmt 1 view -0
 1049              		.cfi_startproc
 1050              		@ args = 0, pretend = 0, frame = 0
 1051              		@ frame_needed = 0, uses_anonymous_args = 0
 1052              		@ link register save eliminated.
 557:Drivers/STM32C0xx_HAL_Driver/Src/stm32c0xx_hal_gpio.c ****   /* Prevent unused argument(s) compilation warning */
 558:Drivers/STM32C0xx_HAL_Driver/Src/stm32c0xx_hal_gpio.c ****   UNUSED(GPIO_Pin);
 1053              		.loc 1 558 3 view .LVU338
 559:Drivers/STM32C0xx_HAL_Driver/Src/stm32c0xx_hal_gpio.c **** 
 560:Drivers/STM32C0xx_HAL_Driver/Src/stm32c0xx_hal_gpio.c ****   /* NOTE: This function should not be modified, when the callback is needed,
 561:Drivers/STM32C0xx_HAL_Driver/Src/stm32c0xx_hal_gpio.c ****            the HAL_GPIO_EXTI_Falling_Callback could be implemented in the user file
 562:Drivers/STM32C0xx_HAL_Driver/Src/stm32c0xx_hal_gpio.c ****    */
 563:Drivers/STM32C0xx_HAL_Driver/Src/stm32c0xx_hal_gpio.c **** }
 1054              		.loc 1 563 1 is_stmt 0 view .LVU339
 1055              		@ sp needed
ARM GAS  C:\Users\Yasi\AppData\Local\Temp\cc42HZSo.s 			page 32


 1056 0000 7047     		bx	lr
 1057              		.cfi_endproc
 1058              	.LFE223:
 1060              		.section	.text.HAL_GPIO_EXTI_IRQHandler,"ax",%progbits
 1061              		.align	1
 1062              		.global	HAL_GPIO_EXTI_IRQHandler
 1063              		.syntax unified
 1064              		.code	16
 1065              		.thumb_func
 1067              	HAL_GPIO_EXTI_IRQHandler:
 1068              	.LVL85:
 1069              	.LFB221:
 520:Drivers/STM32C0xx_HAL_Driver/Src/stm32c0xx_hal_gpio.c ****   /* EXTI line interrupt detected */
 1070              		.loc 1 520 1 is_stmt 1 view -0
 1071              		.cfi_startproc
 1072              		@ args = 0, pretend = 0, frame = 0
 1073              		@ frame_needed = 0, uses_anonymous_args = 0
 520:Drivers/STM32C0xx_HAL_Driver/Src/stm32c0xx_hal_gpio.c ****   /* EXTI line interrupt detected */
 1074              		.loc 1 520 1 is_stmt 0 view .LVU341
 1075 0000 10B5     		push	{r4, lr}
 1076              	.LCFI5:
 1077              		.cfi_def_cfa_offset 8
 1078              		.cfi_offset 4, -8
 1079              		.cfi_offset 14, -4
 1080 0002 0400     		movs	r4, r0
 522:Drivers/STM32C0xx_HAL_Driver/Src/stm32c0xx_hal_gpio.c ****   {
 1081              		.loc 1 522 3 is_stmt 1 view .LVU342
 522:Drivers/STM32C0xx_HAL_Driver/Src/stm32c0xx_hal_gpio.c ****   {
 1082              		.loc 1 522 7 is_stmt 0 view .LVU343
 1083 0004 094B     		ldr	r3, .L63
 1084 0006 DB68     		ldr	r3, [r3, #12]
 522:Drivers/STM32C0xx_HAL_Driver/Src/stm32c0xx_hal_gpio.c ****   {
 1085              		.loc 1 522 6 view .LVU344
 1086 0008 1842     		tst	r0, r3
 1087 000a 04D1     		bne	.L61
 1088              	.LVL86:
 1089              	.L59:
 528:Drivers/STM32C0xx_HAL_Driver/Src/stm32c0xx_hal_gpio.c ****   {
 1090              		.loc 1 528 3 is_stmt 1 view .LVU345
 528:Drivers/STM32C0xx_HAL_Driver/Src/stm32c0xx_hal_gpio.c ****   {
 1091              		.loc 1 528 7 is_stmt 0 view .LVU346
 1092 000c 074B     		ldr	r3, .L63
 1093 000e 1B69     		ldr	r3, [r3, #16]
 528:Drivers/STM32C0xx_HAL_Driver/Src/stm32c0xx_hal_gpio.c ****   {
 1094              		.loc 1 528 6 view .LVU347
 1095 0010 2342     		tst	r3, r4
 1096 0012 05D1     		bne	.L62
 1097              	.L58:
 533:Drivers/STM32C0xx_HAL_Driver/Src/stm32c0xx_hal_gpio.c **** 
 1098              		.loc 1 533 1 view .LVU348
 1099              		@ sp needed
 1100              	.LVL87:
 533:Drivers/STM32C0xx_HAL_Driver/Src/stm32c0xx_hal_gpio.c **** 
 1101              		.loc 1 533 1 view .LVU349
 1102 0014 10BD     		pop	{r4, pc}
 1103              	.LVL88:
 1104              	.L61:
ARM GAS  C:\Users\Yasi\AppData\Local\Temp\cc42HZSo.s 			page 33


 524:Drivers/STM32C0xx_HAL_Driver/Src/stm32c0xx_hal_gpio.c ****     HAL_GPIO_EXTI_Rising_Callback(GPIO_Pin);
 1105              		.loc 1 524 5 is_stmt 1 view .LVU350
 1106 0016 054B     		ldr	r3, .L63
 1107 0018 D860     		str	r0, [r3, #12]
 525:Drivers/STM32C0xx_HAL_Driver/Src/stm32c0xx_hal_gpio.c ****   }
 1108              		.loc 1 525 5 view .LVU351
 1109 001a FFF7FEFF 		bl	HAL_GPIO_EXTI_Rising_Callback
 1110              	.LVL89:
 525:Drivers/STM32C0xx_HAL_Driver/Src/stm32c0xx_hal_gpio.c ****   }
 1111              		.loc 1 525 5 is_stmt 0 view .LVU352
 1112 001e F5E7     		b	.L59
 1113              	.L62:
 530:Drivers/STM32C0xx_HAL_Driver/Src/stm32c0xx_hal_gpio.c ****     HAL_GPIO_EXTI_Falling_Callback(GPIO_Pin);
 1114              		.loc 1 530 5 is_stmt 1 view .LVU353
 1115 0020 024B     		ldr	r3, .L63
 1116 0022 1C61     		str	r4, [r3, #16]
 531:Drivers/STM32C0xx_HAL_Driver/Src/stm32c0xx_hal_gpio.c ****   }
 1117              		.loc 1 531 5 view .LVU354
 1118 0024 2000     		movs	r0, r4
 1119 0026 FFF7FEFF 		bl	HAL_GPIO_EXTI_Falling_Callback
 1120              	.LVL90:
 533:Drivers/STM32C0xx_HAL_Driver/Src/stm32c0xx_hal_gpio.c **** 
 1121              		.loc 1 533 1 is_stmt 0 view .LVU355
 1122 002a F3E7     		b	.L58
 1123              	.L64:
 1124              		.align	2
 1125              	.L63:
 1126 002c 00180240 		.word	1073879040
 1127              		.cfi_endproc
 1128              	.LFE221:
 1130              		.text
 1131              	.Letext0:
 1132              		.file 2 "C:/Program Files (x86)/Arm GNU Toolchain arm-none-eabi/13.2 Rel1/arm-none-eabi/include/ma
 1133              		.file 3 "C:/Program Files (x86)/Arm GNU Toolchain arm-none-eabi/13.2 Rel1/arm-none-eabi/include/sy
 1134              		.file 4 "Drivers/CMSIS/Device/ST/STM32C0xx/Include/stm32c031xx.h"
 1135              		.file 5 "Drivers/STM32C0xx_HAL_Driver/Inc/stm32c0xx_hal_def.h"
 1136              		.file 6 "Drivers/STM32C0xx_HAL_Driver/Inc/stm32c0xx_hal_gpio.h"
ARM GAS  C:\Users\Yasi\AppData\Local\Temp\cc42HZSo.s 			page 34

