ARM GAS  C:\Users\Yasi\AppData\Local\Temp\cc6toQyB.s 			page 1


   1              		.cpu cortex-m0plus
   2              		.arch armv6s-m
   3              		.fpu softvfp
   4              		.eabi_attribute 20, 1
   5              		.eabi_attribute 21, 1
   6              		.eabi_attribute 23, 3
   7              		.eabi_attribute 24, 1
   8              		.eabi_attribute 25, 1
   9              		.eabi_attribute 26, 1
  10              		.eabi_attribute 30, 1
  11              		.eabi_attribute 34, 0
  12              		.eabi_attribute 18, 4
  13              		.file	"stm32c0xx_hal_dma.c"
  14              		.text
  15              	.Ltext0:
  16              		.cfi_sections	.debug_frame
  17              		.file 1 "Drivers/STM32C0xx_HAL_Driver/Src/stm32c0xx_hal_dma.c"
  18              		.section	.text.DMA_SetConfig,"ax",%progbits
  19              		.align	1
  20              		.syntax unified
  21              		.code	16
  22              		.thumb_func
  24              	DMA_SetConfig:
  25              	.LVL0:
  26              	.LFB226:
   1:Drivers/STM32C0xx_HAL_Driver/Src/stm32c0xx_hal_dma.c **** /**
   2:Drivers/STM32C0xx_HAL_Driver/Src/stm32c0xx_hal_dma.c ****   ******************************************************************************
   3:Drivers/STM32C0xx_HAL_Driver/Src/stm32c0xx_hal_dma.c ****   * @file    stm32c0xx_hal_dma.c
   4:Drivers/STM32C0xx_HAL_Driver/Src/stm32c0xx_hal_dma.c ****   * @author  MCD Application Team
   5:Drivers/STM32C0xx_HAL_Driver/Src/stm32c0xx_hal_dma.c ****   * @brief   DMA HAL module driver.
   6:Drivers/STM32C0xx_HAL_Driver/Src/stm32c0xx_hal_dma.c ****   *         This file provides firmware functions to manage the following
   7:Drivers/STM32C0xx_HAL_Driver/Src/stm32c0xx_hal_dma.c ****   *         functionalities of the Direct Memory Access (DMA) peripheral:
   8:Drivers/STM32C0xx_HAL_Driver/Src/stm32c0xx_hal_dma.c ****   *           + Initialization and de-initialization functions
   9:Drivers/STM32C0xx_HAL_Driver/Src/stm32c0xx_hal_dma.c ****   *           + IO operation functions
  10:Drivers/STM32C0xx_HAL_Driver/Src/stm32c0xx_hal_dma.c ****   *           + Peripheral State and errors functions
  11:Drivers/STM32C0xx_HAL_Driver/Src/stm32c0xx_hal_dma.c ****   ******************************************************************************
  12:Drivers/STM32C0xx_HAL_Driver/Src/stm32c0xx_hal_dma.c ****   * @attention
  13:Drivers/STM32C0xx_HAL_Driver/Src/stm32c0xx_hal_dma.c ****   *
  14:Drivers/STM32C0xx_HAL_Driver/Src/stm32c0xx_hal_dma.c ****   * Copyright (c) 2022 STMicroelectronics.
  15:Drivers/STM32C0xx_HAL_Driver/Src/stm32c0xx_hal_dma.c ****   * All rights reserved.
  16:Drivers/STM32C0xx_HAL_Driver/Src/stm32c0xx_hal_dma.c ****   *
  17:Drivers/STM32C0xx_HAL_Driver/Src/stm32c0xx_hal_dma.c ****   * This software is licensed under terms that can be found in the LICENSE file
  18:Drivers/STM32C0xx_HAL_Driver/Src/stm32c0xx_hal_dma.c ****   * in the root directory of this software component.
  19:Drivers/STM32C0xx_HAL_Driver/Src/stm32c0xx_hal_dma.c ****   * If no LICENSE file comes with this software, it is provided AS-IS.
  20:Drivers/STM32C0xx_HAL_Driver/Src/stm32c0xx_hal_dma.c ****   *
  21:Drivers/STM32C0xx_HAL_Driver/Src/stm32c0xx_hal_dma.c ****   ******************************************************************************
  22:Drivers/STM32C0xx_HAL_Driver/Src/stm32c0xx_hal_dma.c ****   @verbatim
  23:Drivers/STM32C0xx_HAL_Driver/Src/stm32c0xx_hal_dma.c ****   ==============================================================================
  24:Drivers/STM32C0xx_HAL_Driver/Src/stm32c0xx_hal_dma.c ****                         ##### How to use this driver #####
  25:Drivers/STM32C0xx_HAL_Driver/Src/stm32c0xx_hal_dma.c ****   ==============================================================================
  26:Drivers/STM32C0xx_HAL_Driver/Src/stm32c0xx_hal_dma.c ****   [..]
  27:Drivers/STM32C0xx_HAL_Driver/Src/stm32c0xx_hal_dma.c ****    (#) Enable and configure the peripheral to be connected to the DMA Channel
  28:Drivers/STM32C0xx_HAL_Driver/Src/stm32c0xx_hal_dma.c ****        (except for internal SRAM / FLASH memories: no initialization is
  29:Drivers/STM32C0xx_HAL_Driver/Src/stm32c0xx_hal_dma.c ****        necessary). Please refer to the Reference manual for connection between peripherals
  30:Drivers/STM32C0xx_HAL_Driver/Src/stm32c0xx_hal_dma.c ****        and DMA requests.
  31:Drivers/STM32C0xx_HAL_Driver/Src/stm32c0xx_hal_dma.c **** 
  32:Drivers/STM32C0xx_HAL_Driver/Src/stm32c0xx_hal_dma.c ****    (#) For a given Channel, program the required configuration through the following parameters:
ARM GAS  C:\Users\Yasi\AppData\Local\Temp\cc6toQyB.s 			page 2


  33:Drivers/STM32C0xx_HAL_Driver/Src/stm32c0xx_hal_dma.c ****        Channel request, Transfer Direction, Source and Destination data formats,
  34:Drivers/STM32C0xx_HAL_Driver/Src/stm32c0xx_hal_dma.c ****        Circular or Normal mode, Channel Priority level, Source and Destination Increment mode
  35:Drivers/STM32C0xx_HAL_Driver/Src/stm32c0xx_hal_dma.c ****        using HAL_DMA_Init() function.
  36:Drivers/STM32C0xx_HAL_Driver/Src/stm32c0xx_hal_dma.c **** 
  37:Drivers/STM32C0xx_HAL_Driver/Src/stm32c0xx_hal_dma.c ****        Prior to HAL_DMA_Init the CLK shall be enabled for both DMA & DMAMUX
  38:Drivers/STM32C0xx_HAL_Driver/Src/stm32c0xx_hal_dma.c ****        thanks to:
  39:Drivers/STM32C0xx_HAL_Driver/Src/stm32c0xx_hal_dma.c ****        DMA1   :       __HAL_RCC_DMA1_CLK_ENABLE();
  40:Drivers/STM32C0xx_HAL_Driver/Src/stm32c0xx_hal_dma.c **** 
  41:Drivers/STM32C0xx_HAL_Driver/Src/stm32c0xx_hal_dma.c ****    (#) Use HAL_DMA_GetState() function to return the DMA state and HAL_DMA_GetError() in case of er
  42:Drivers/STM32C0xx_HAL_Driver/Src/stm32c0xx_hal_dma.c ****        detection.
  43:Drivers/STM32C0xx_HAL_Driver/Src/stm32c0xx_hal_dma.c **** 
  44:Drivers/STM32C0xx_HAL_Driver/Src/stm32c0xx_hal_dma.c ****    (#) Use HAL_DMA_Abort() function to abort the current transfer
  45:Drivers/STM32C0xx_HAL_Driver/Src/stm32c0xx_hal_dma.c **** 
  46:Drivers/STM32C0xx_HAL_Driver/Src/stm32c0xx_hal_dma.c ****      -@-   In Memory-to-Memory transfer mode, Circular mode is not allowed.
  47:Drivers/STM32C0xx_HAL_Driver/Src/stm32c0xx_hal_dma.c ****      *** Polling mode IO operation ***
  48:Drivers/STM32C0xx_HAL_Driver/Src/stm32c0xx_hal_dma.c ****      =================================
  49:Drivers/STM32C0xx_HAL_Driver/Src/stm32c0xx_hal_dma.c ****     [..]
  50:Drivers/STM32C0xx_HAL_Driver/Src/stm32c0xx_hal_dma.c ****           (+) Use HAL_DMA_Start() to start DMA transfer after the configuration of Source
  51:Drivers/STM32C0xx_HAL_Driver/Src/stm32c0xx_hal_dma.c ****               address and destination address and the Length of data to be transferred
  52:Drivers/STM32C0xx_HAL_Driver/Src/stm32c0xx_hal_dma.c ****           (+) Use HAL_DMA_PollForTransfer() to poll for the end of current transfer, in this
  53:Drivers/STM32C0xx_HAL_Driver/Src/stm32c0xx_hal_dma.c ****               case a fixed Timeout can be configured by User depending from his application.
  54:Drivers/STM32C0xx_HAL_Driver/Src/stm32c0xx_hal_dma.c **** 
  55:Drivers/STM32C0xx_HAL_Driver/Src/stm32c0xx_hal_dma.c ****      *** Interrupt mode IO operation ***
  56:Drivers/STM32C0xx_HAL_Driver/Src/stm32c0xx_hal_dma.c ****      ===================================
  57:Drivers/STM32C0xx_HAL_Driver/Src/stm32c0xx_hal_dma.c ****     [..]
  58:Drivers/STM32C0xx_HAL_Driver/Src/stm32c0xx_hal_dma.c ****           (+) Configure the DMA interrupt priority using HAL_NVIC_SetPriority()
  59:Drivers/STM32C0xx_HAL_Driver/Src/stm32c0xx_hal_dma.c ****           (+) Enable the DMA IRQ handler using HAL_NVIC_EnableIRQ()
  60:Drivers/STM32C0xx_HAL_Driver/Src/stm32c0xx_hal_dma.c ****           (+) Use HAL_DMA_Start_IT() to start DMA transfer after the configuration of
  61:Drivers/STM32C0xx_HAL_Driver/Src/stm32c0xx_hal_dma.c ****               Source address and destination address and the Length of data to be transferred.
  62:Drivers/STM32C0xx_HAL_Driver/Src/stm32c0xx_hal_dma.c ****               In this case the DMA interrupt is configured
  63:Drivers/STM32C0xx_HAL_Driver/Src/stm32c0xx_hal_dma.c ****           (+) Use HAL_DMA_IRQHandler() called under DMA_IRQHandler() Interrupt subroutine
  64:Drivers/STM32C0xx_HAL_Driver/Src/stm32c0xx_hal_dma.c ****           (+) At the end of data transfer HAL_DMA_IRQHandler() function is executed and user can
  65:Drivers/STM32C0xx_HAL_Driver/Src/stm32c0xx_hal_dma.c ****               add his own function by customization of function pointer XferCpltCallback and
  66:Drivers/STM32C0xx_HAL_Driver/Src/stm32c0xx_hal_dma.c ****               XferErrorCallback (i.e. a member of DMA handle structure).
  67:Drivers/STM32C0xx_HAL_Driver/Src/stm32c0xx_hal_dma.c **** 
  68:Drivers/STM32C0xx_HAL_Driver/Src/stm32c0xx_hal_dma.c ****      *** DMA HAL driver macros list ***
  69:Drivers/STM32C0xx_HAL_Driver/Src/stm32c0xx_hal_dma.c ****      =============================================
  70:Drivers/STM32C0xx_HAL_Driver/Src/stm32c0xx_hal_dma.c ****       [..]
  71:Drivers/STM32C0xx_HAL_Driver/Src/stm32c0xx_hal_dma.c ****        Below the list of most used macros in DMA HAL driver.
  72:Drivers/STM32C0xx_HAL_Driver/Src/stm32c0xx_hal_dma.c **** 
  73:Drivers/STM32C0xx_HAL_Driver/Src/stm32c0xx_hal_dma.c ****        (+) __HAL_DMA_ENABLE: Enable the specified DMA Channel.
  74:Drivers/STM32C0xx_HAL_Driver/Src/stm32c0xx_hal_dma.c ****        (+) __HAL_DMA_DISABLE: Disable the specified DMA Channel.
  75:Drivers/STM32C0xx_HAL_Driver/Src/stm32c0xx_hal_dma.c ****        (+) __HAL_DMA_GET_FLAG: Get the DMA Channel pending flags.
  76:Drivers/STM32C0xx_HAL_Driver/Src/stm32c0xx_hal_dma.c ****        (+) __HAL_DMA_CLEAR_FLAG: Clear the DMA Channel pending flags.
  77:Drivers/STM32C0xx_HAL_Driver/Src/stm32c0xx_hal_dma.c ****        (+) __HAL_DMA_ENABLE_IT: Enable the specified DMA Channel interrupts.
  78:Drivers/STM32C0xx_HAL_Driver/Src/stm32c0xx_hal_dma.c ****        (+) __HAL_DMA_DISABLE_IT: Disable the specified DMA Channel interrupts.
  79:Drivers/STM32C0xx_HAL_Driver/Src/stm32c0xx_hal_dma.c ****        (+) __HAL_DMA_GET_IT_SOURCE: Check whether the specified DMA Channel interrupt has occurred 
  80:Drivers/STM32C0xx_HAL_Driver/Src/stm32c0xx_hal_dma.c **** 
  81:Drivers/STM32C0xx_HAL_Driver/Src/stm32c0xx_hal_dma.c ****      [..]
  82:Drivers/STM32C0xx_HAL_Driver/Src/stm32c0xx_hal_dma.c ****       (@) You can refer to the DMA HAL driver header file for more useful macros
  83:Drivers/STM32C0xx_HAL_Driver/Src/stm32c0xx_hal_dma.c **** 
  84:Drivers/STM32C0xx_HAL_Driver/Src/stm32c0xx_hal_dma.c ****   @endverbatim
  85:Drivers/STM32C0xx_HAL_Driver/Src/stm32c0xx_hal_dma.c ****   ******************************************************************************
  86:Drivers/STM32C0xx_HAL_Driver/Src/stm32c0xx_hal_dma.c ****   */
  87:Drivers/STM32C0xx_HAL_Driver/Src/stm32c0xx_hal_dma.c **** 
  88:Drivers/STM32C0xx_HAL_Driver/Src/stm32c0xx_hal_dma.c **** /* Includes ------------------------------------------------------------------*/
  89:Drivers/STM32C0xx_HAL_Driver/Src/stm32c0xx_hal_dma.c **** #include "stm32c0xx_hal.h"
ARM GAS  C:\Users\Yasi\AppData\Local\Temp\cc6toQyB.s 			page 3


  90:Drivers/STM32C0xx_HAL_Driver/Src/stm32c0xx_hal_dma.c **** 
  91:Drivers/STM32C0xx_HAL_Driver/Src/stm32c0xx_hal_dma.c **** /** @addtogroup STM32C0xx_HAL_Driver
  92:Drivers/STM32C0xx_HAL_Driver/Src/stm32c0xx_hal_dma.c ****   * @{
  93:Drivers/STM32C0xx_HAL_Driver/Src/stm32c0xx_hal_dma.c ****   */
  94:Drivers/STM32C0xx_HAL_Driver/Src/stm32c0xx_hal_dma.c **** 
  95:Drivers/STM32C0xx_HAL_Driver/Src/stm32c0xx_hal_dma.c **** /** @defgroup DMA DMA
  96:Drivers/STM32C0xx_HAL_Driver/Src/stm32c0xx_hal_dma.c ****   * @brief DMA HAL module driver
  97:Drivers/STM32C0xx_HAL_Driver/Src/stm32c0xx_hal_dma.c ****   * @{
  98:Drivers/STM32C0xx_HAL_Driver/Src/stm32c0xx_hal_dma.c ****   */
  99:Drivers/STM32C0xx_HAL_Driver/Src/stm32c0xx_hal_dma.c **** 
 100:Drivers/STM32C0xx_HAL_Driver/Src/stm32c0xx_hal_dma.c **** #ifdef HAL_DMA_MODULE_ENABLED
 101:Drivers/STM32C0xx_HAL_Driver/Src/stm32c0xx_hal_dma.c **** 
 102:Drivers/STM32C0xx_HAL_Driver/Src/stm32c0xx_hal_dma.c **** /* Private typedef -----------------------------------------------------------*/
 103:Drivers/STM32C0xx_HAL_Driver/Src/stm32c0xx_hal_dma.c **** /* Private define ------------------------------------------------------------*/
 104:Drivers/STM32C0xx_HAL_Driver/Src/stm32c0xx_hal_dma.c **** /* Private macro -------------------------------------------------------------*/
 105:Drivers/STM32C0xx_HAL_Driver/Src/stm32c0xx_hal_dma.c **** /* Private variables ---------------------------------------------------------*/
 106:Drivers/STM32C0xx_HAL_Driver/Src/stm32c0xx_hal_dma.c **** /* Private function prototypes -----------------------------------------------*/
 107:Drivers/STM32C0xx_HAL_Driver/Src/stm32c0xx_hal_dma.c **** 
 108:Drivers/STM32C0xx_HAL_Driver/Src/stm32c0xx_hal_dma.c **** /** @defgroup DMA_Private_Functions DMA Private Functions
 109:Drivers/STM32C0xx_HAL_Driver/Src/stm32c0xx_hal_dma.c ****   * @{
 110:Drivers/STM32C0xx_HAL_Driver/Src/stm32c0xx_hal_dma.c ****   */
 111:Drivers/STM32C0xx_HAL_Driver/Src/stm32c0xx_hal_dma.c **** static void DMA_SetConfig(DMA_HandleTypeDef *hdma, uint32_t SrcAddress, uint32_t DstAddress, uint32
 112:Drivers/STM32C0xx_HAL_Driver/Src/stm32c0xx_hal_dma.c **** static void DMA_CalcDMAMUXChannelBaseAndMask(DMA_HandleTypeDef *hdma);
 113:Drivers/STM32C0xx_HAL_Driver/Src/stm32c0xx_hal_dma.c **** static void DMA_CalcDMAMUXRequestGenBaseAndMask(DMA_HandleTypeDef *hdma);
 114:Drivers/STM32C0xx_HAL_Driver/Src/stm32c0xx_hal_dma.c **** 
 115:Drivers/STM32C0xx_HAL_Driver/Src/stm32c0xx_hal_dma.c **** /**
 116:Drivers/STM32C0xx_HAL_Driver/Src/stm32c0xx_hal_dma.c ****   * @}
 117:Drivers/STM32C0xx_HAL_Driver/Src/stm32c0xx_hal_dma.c ****   */
 118:Drivers/STM32C0xx_HAL_Driver/Src/stm32c0xx_hal_dma.c **** 
 119:Drivers/STM32C0xx_HAL_Driver/Src/stm32c0xx_hal_dma.c **** /* Exported functions ---------------------------------------------------------*/
 120:Drivers/STM32C0xx_HAL_Driver/Src/stm32c0xx_hal_dma.c **** 
 121:Drivers/STM32C0xx_HAL_Driver/Src/stm32c0xx_hal_dma.c **** /** @defgroup DMA_Exported_Functions DMA Exported Functions
 122:Drivers/STM32C0xx_HAL_Driver/Src/stm32c0xx_hal_dma.c ****   * @{
 123:Drivers/STM32C0xx_HAL_Driver/Src/stm32c0xx_hal_dma.c ****   */
 124:Drivers/STM32C0xx_HAL_Driver/Src/stm32c0xx_hal_dma.c **** 
 125:Drivers/STM32C0xx_HAL_Driver/Src/stm32c0xx_hal_dma.c **** /** @defgroup DMA_Exported_Functions_Group1 Initialization and de-initialization functions
 126:Drivers/STM32C0xx_HAL_Driver/Src/stm32c0xx_hal_dma.c ****   *  @brief   Initialization and de-initialization functions
 127:Drivers/STM32C0xx_HAL_Driver/Src/stm32c0xx_hal_dma.c ****   *
 128:Drivers/STM32C0xx_HAL_Driver/Src/stm32c0xx_hal_dma.c **** @verbatim
 129:Drivers/STM32C0xx_HAL_Driver/Src/stm32c0xx_hal_dma.c ****  ===============================================================================
 130:Drivers/STM32C0xx_HAL_Driver/Src/stm32c0xx_hal_dma.c ****              ##### Initialization and de-initialization functions  #####
 131:Drivers/STM32C0xx_HAL_Driver/Src/stm32c0xx_hal_dma.c ****  ===============================================================================
 132:Drivers/STM32C0xx_HAL_Driver/Src/stm32c0xx_hal_dma.c ****     [..]
 133:Drivers/STM32C0xx_HAL_Driver/Src/stm32c0xx_hal_dma.c ****     This section provides functions allowing to initialize the DMA Channel source
 134:Drivers/STM32C0xx_HAL_Driver/Src/stm32c0xx_hal_dma.c ****     and destination addresses, incrementation and data sizes, transfer direction,
 135:Drivers/STM32C0xx_HAL_Driver/Src/stm32c0xx_hal_dma.c ****     circular/normal mode selection, memory-to-memory mode selection and Channel priority value.
 136:Drivers/STM32C0xx_HAL_Driver/Src/stm32c0xx_hal_dma.c ****     [..]
 137:Drivers/STM32C0xx_HAL_Driver/Src/stm32c0xx_hal_dma.c ****     The HAL_DMA_Init() function follows the DMA configuration procedures as described in
 138:Drivers/STM32C0xx_HAL_Driver/Src/stm32c0xx_hal_dma.c ****     reference manual.
 139:Drivers/STM32C0xx_HAL_Driver/Src/stm32c0xx_hal_dma.c **** 
 140:Drivers/STM32C0xx_HAL_Driver/Src/stm32c0xx_hal_dma.c **** @endverbatim
 141:Drivers/STM32C0xx_HAL_Driver/Src/stm32c0xx_hal_dma.c ****   * @{
 142:Drivers/STM32C0xx_HAL_Driver/Src/stm32c0xx_hal_dma.c ****   */
 143:Drivers/STM32C0xx_HAL_Driver/Src/stm32c0xx_hal_dma.c **** 
 144:Drivers/STM32C0xx_HAL_Driver/Src/stm32c0xx_hal_dma.c **** /**
 145:Drivers/STM32C0xx_HAL_Driver/Src/stm32c0xx_hal_dma.c ****   * @brief  Initialize the DMA according to the specified
 146:Drivers/STM32C0xx_HAL_Driver/Src/stm32c0xx_hal_dma.c ****   *         parameters in the DMA_InitTypeDef and initialize the associated handle.
ARM GAS  C:\Users\Yasi\AppData\Local\Temp\cc6toQyB.s 			page 4


 147:Drivers/STM32C0xx_HAL_Driver/Src/stm32c0xx_hal_dma.c ****   * @param  hdma  Pointer to a DMA_HandleTypeDef structure that contains
 148:Drivers/STM32C0xx_HAL_Driver/Src/stm32c0xx_hal_dma.c ****   *               the configuration information for the specified DMA Channel.
 149:Drivers/STM32C0xx_HAL_Driver/Src/stm32c0xx_hal_dma.c ****   * @retval HAL status
 150:Drivers/STM32C0xx_HAL_Driver/Src/stm32c0xx_hal_dma.c ****   */
 151:Drivers/STM32C0xx_HAL_Driver/Src/stm32c0xx_hal_dma.c **** HAL_StatusTypeDef HAL_DMA_Init(DMA_HandleTypeDef *hdma)
 152:Drivers/STM32C0xx_HAL_Driver/Src/stm32c0xx_hal_dma.c **** {
 153:Drivers/STM32C0xx_HAL_Driver/Src/stm32c0xx_hal_dma.c ****   /* Check the DMA handle allocation */
 154:Drivers/STM32C0xx_HAL_Driver/Src/stm32c0xx_hal_dma.c ****   if (hdma == NULL)
 155:Drivers/STM32C0xx_HAL_Driver/Src/stm32c0xx_hal_dma.c ****   {
 156:Drivers/STM32C0xx_HAL_Driver/Src/stm32c0xx_hal_dma.c ****     return HAL_ERROR;
 157:Drivers/STM32C0xx_HAL_Driver/Src/stm32c0xx_hal_dma.c ****   }
 158:Drivers/STM32C0xx_HAL_Driver/Src/stm32c0xx_hal_dma.c **** 
 159:Drivers/STM32C0xx_HAL_Driver/Src/stm32c0xx_hal_dma.c ****   /* Check the parameters */
 160:Drivers/STM32C0xx_HAL_Driver/Src/stm32c0xx_hal_dma.c ****   assert_param(IS_DMA_ALL_INSTANCE(hdma->Instance));
 161:Drivers/STM32C0xx_HAL_Driver/Src/stm32c0xx_hal_dma.c ****   assert_param(IS_DMA_DIRECTION(hdma->Init.Direction));
 162:Drivers/STM32C0xx_HAL_Driver/Src/stm32c0xx_hal_dma.c ****   assert_param(IS_DMA_PERIPHERAL_INC_STATE(hdma->Init.PeriphInc));
 163:Drivers/STM32C0xx_HAL_Driver/Src/stm32c0xx_hal_dma.c ****   assert_param(IS_DMA_MEMORY_INC_STATE(hdma->Init.MemInc));
 164:Drivers/STM32C0xx_HAL_Driver/Src/stm32c0xx_hal_dma.c ****   assert_param(IS_DMA_PERIPHERAL_DATA_SIZE(hdma->Init.PeriphDataAlignment));
 165:Drivers/STM32C0xx_HAL_Driver/Src/stm32c0xx_hal_dma.c ****   assert_param(IS_DMA_MEMORY_DATA_SIZE(hdma->Init.MemDataAlignment));
 166:Drivers/STM32C0xx_HAL_Driver/Src/stm32c0xx_hal_dma.c ****   assert_param(IS_DMA_MODE(hdma->Init.Mode));
 167:Drivers/STM32C0xx_HAL_Driver/Src/stm32c0xx_hal_dma.c ****   assert_param(IS_DMA_PRIORITY(hdma->Init.Priority));
 168:Drivers/STM32C0xx_HAL_Driver/Src/stm32c0xx_hal_dma.c **** 
 169:Drivers/STM32C0xx_HAL_Driver/Src/stm32c0xx_hal_dma.c ****   /* calculation of the channel index */
 170:Drivers/STM32C0xx_HAL_Driver/Src/stm32c0xx_hal_dma.c ****   hdma->ChannelIndex = (((uint32_t)hdma->Instance - (uint32_t)DMA1_Channel1) / ((uint32_t)DMA1_Chan
 171:Drivers/STM32C0xx_HAL_Driver/Src/stm32c0xx_hal_dma.c ****                                                                                 (uint32_t)DMA1_Chan
 172:Drivers/STM32C0xx_HAL_Driver/Src/stm32c0xx_hal_dma.c **** 
 173:Drivers/STM32C0xx_HAL_Driver/Src/stm32c0xx_hal_dma.c ****   /* Change DMA peripheral state */
 174:Drivers/STM32C0xx_HAL_Driver/Src/stm32c0xx_hal_dma.c ****   hdma->State = HAL_DMA_STATE_BUSY;
 175:Drivers/STM32C0xx_HAL_Driver/Src/stm32c0xx_hal_dma.c **** 
 176:Drivers/STM32C0xx_HAL_Driver/Src/stm32c0xx_hal_dma.c ****   /* Clear PL, MSIZE, PSIZE, MINC, PINC, CIRC, DIR and MEM2MEM bits */
 177:Drivers/STM32C0xx_HAL_Driver/Src/stm32c0xx_hal_dma.c ****   CLEAR_BIT(hdma->Instance->CCR, (DMA_CCR_PL    | DMA_CCR_MSIZE  | DMA_CCR_PSIZE  | \
 178:Drivers/STM32C0xx_HAL_Driver/Src/stm32c0xx_hal_dma.c ****                                   DMA_CCR_MINC  | DMA_CCR_PINC   | DMA_CCR_CIRC   | \
 179:Drivers/STM32C0xx_HAL_Driver/Src/stm32c0xx_hal_dma.c ****                                   DMA_CCR_DIR   | DMA_CCR_MEM2MEM));
 180:Drivers/STM32C0xx_HAL_Driver/Src/stm32c0xx_hal_dma.c **** 
 181:Drivers/STM32C0xx_HAL_Driver/Src/stm32c0xx_hal_dma.c ****   /* Set the DMA Channel configuration */
 182:Drivers/STM32C0xx_HAL_Driver/Src/stm32c0xx_hal_dma.c ****   SET_BIT(hdma->Instance->CCR, (hdma->Init.Direction           |                               \
 183:Drivers/STM32C0xx_HAL_Driver/Src/stm32c0xx_hal_dma.c ****                                 hdma->Init.PeriphInc           | hdma->Init.MemInc           | \
 184:Drivers/STM32C0xx_HAL_Driver/Src/stm32c0xx_hal_dma.c ****                                 hdma->Init.PeriphDataAlignment | hdma->Init.MemDataAlignment | \
 185:Drivers/STM32C0xx_HAL_Driver/Src/stm32c0xx_hal_dma.c ****                                 hdma->Init.Mode                | hdma->Init.Priority));
 186:Drivers/STM32C0xx_HAL_Driver/Src/stm32c0xx_hal_dma.c **** 
 187:Drivers/STM32C0xx_HAL_Driver/Src/stm32c0xx_hal_dma.c ****   /* Initialize parameters for DMAMUX channel :
 188:Drivers/STM32C0xx_HAL_Driver/Src/stm32c0xx_hal_dma.c ****      DMAmuxChannel, DMAmuxChannelStatus and DMAmuxChannelStatusMask
 189:Drivers/STM32C0xx_HAL_Driver/Src/stm32c0xx_hal_dma.c ****   */
 190:Drivers/STM32C0xx_HAL_Driver/Src/stm32c0xx_hal_dma.c ****   DMA_CalcDMAMUXChannelBaseAndMask(hdma);
 191:Drivers/STM32C0xx_HAL_Driver/Src/stm32c0xx_hal_dma.c **** 
 192:Drivers/STM32C0xx_HAL_Driver/Src/stm32c0xx_hal_dma.c ****   if (hdma->Init.Direction == DMA_MEMORY_TO_MEMORY)
 193:Drivers/STM32C0xx_HAL_Driver/Src/stm32c0xx_hal_dma.c ****   {
 194:Drivers/STM32C0xx_HAL_Driver/Src/stm32c0xx_hal_dma.c ****     /* if memory to memory force the request to 0*/
 195:Drivers/STM32C0xx_HAL_Driver/Src/stm32c0xx_hal_dma.c ****     hdma->Init.Request = DMA_REQUEST_MEM2MEM;
 196:Drivers/STM32C0xx_HAL_Driver/Src/stm32c0xx_hal_dma.c ****   }
 197:Drivers/STM32C0xx_HAL_Driver/Src/stm32c0xx_hal_dma.c **** 
 198:Drivers/STM32C0xx_HAL_Driver/Src/stm32c0xx_hal_dma.c ****   /* Set peripheral request  to DMAMUX channel */
 199:Drivers/STM32C0xx_HAL_Driver/Src/stm32c0xx_hal_dma.c ****   hdma->DMAmuxChannel->CCR = (hdma->Init.Request & DMAMUX_CxCR_DMAREQ_ID);
 200:Drivers/STM32C0xx_HAL_Driver/Src/stm32c0xx_hal_dma.c **** 
 201:Drivers/STM32C0xx_HAL_Driver/Src/stm32c0xx_hal_dma.c ****   /* Clear the DMAMUX synchro overrun flag */
 202:Drivers/STM32C0xx_HAL_Driver/Src/stm32c0xx_hal_dma.c ****   hdma->DMAmuxChannelStatus->CFR = hdma->DMAmuxChannelStatusMask;
 203:Drivers/STM32C0xx_HAL_Driver/Src/stm32c0xx_hal_dma.c **** 
ARM GAS  C:\Users\Yasi\AppData\Local\Temp\cc6toQyB.s 			page 5


 204:Drivers/STM32C0xx_HAL_Driver/Src/stm32c0xx_hal_dma.c ****   if (((hdma->Init.Request >  0UL) && (hdma->Init.Request <= DMA_REQUEST_GENERATOR3)))
 205:Drivers/STM32C0xx_HAL_Driver/Src/stm32c0xx_hal_dma.c ****   {
 206:Drivers/STM32C0xx_HAL_Driver/Src/stm32c0xx_hal_dma.c ****     /* Initialize parameters for DMAMUX request generator :
 207:Drivers/STM32C0xx_HAL_Driver/Src/stm32c0xx_hal_dma.c ****        DMAmuxRequestGen, DMAmuxRequestGenStatus and DMAmuxRequestGenStatusMask
 208:Drivers/STM32C0xx_HAL_Driver/Src/stm32c0xx_hal_dma.c ****     */
 209:Drivers/STM32C0xx_HAL_Driver/Src/stm32c0xx_hal_dma.c ****     DMA_CalcDMAMUXRequestGenBaseAndMask(hdma);
 210:Drivers/STM32C0xx_HAL_Driver/Src/stm32c0xx_hal_dma.c **** 
 211:Drivers/STM32C0xx_HAL_Driver/Src/stm32c0xx_hal_dma.c ****     /* Reset the DMAMUX request generator register*/
 212:Drivers/STM32C0xx_HAL_Driver/Src/stm32c0xx_hal_dma.c ****     hdma->DMAmuxRequestGen->RGCR = 0U;
 213:Drivers/STM32C0xx_HAL_Driver/Src/stm32c0xx_hal_dma.c **** 
 214:Drivers/STM32C0xx_HAL_Driver/Src/stm32c0xx_hal_dma.c ****     /* Clear the DMAMUX request generator overrun flag */
 215:Drivers/STM32C0xx_HAL_Driver/Src/stm32c0xx_hal_dma.c ****     hdma->DMAmuxRequestGenStatus->RGCFR = hdma->DMAmuxRequestGenStatusMask;
 216:Drivers/STM32C0xx_HAL_Driver/Src/stm32c0xx_hal_dma.c ****   }
 217:Drivers/STM32C0xx_HAL_Driver/Src/stm32c0xx_hal_dma.c ****   else
 218:Drivers/STM32C0xx_HAL_Driver/Src/stm32c0xx_hal_dma.c ****   {
 219:Drivers/STM32C0xx_HAL_Driver/Src/stm32c0xx_hal_dma.c ****     hdma->DMAmuxRequestGen = 0U;
 220:Drivers/STM32C0xx_HAL_Driver/Src/stm32c0xx_hal_dma.c ****     hdma->DMAmuxRequestGenStatus = 0U;
 221:Drivers/STM32C0xx_HAL_Driver/Src/stm32c0xx_hal_dma.c ****     hdma->DMAmuxRequestGenStatusMask = 0U;
 222:Drivers/STM32C0xx_HAL_Driver/Src/stm32c0xx_hal_dma.c ****   }
 223:Drivers/STM32C0xx_HAL_Driver/Src/stm32c0xx_hal_dma.c **** 
 224:Drivers/STM32C0xx_HAL_Driver/Src/stm32c0xx_hal_dma.c ****   /* Initialize the error code */
 225:Drivers/STM32C0xx_HAL_Driver/Src/stm32c0xx_hal_dma.c ****   hdma->ErrorCode = HAL_DMA_ERROR_NONE;
 226:Drivers/STM32C0xx_HAL_Driver/Src/stm32c0xx_hal_dma.c **** 
 227:Drivers/STM32C0xx_HAL_Driver/Src/stm32c0xx_hal_dma.c ****   /* Initialize the DMA state*/
 228:Drivers/STM32C0xx_HAL_Driver/Src/stm32c0xx_hal_dma.c ****   hdma->State  = HAL_DMA_STATE_READY;
 229:Drivers/STM32C0xx_HAL_Driver/Src/stm32c0xx_hal_dma.c **** 
 230:Drivers/STM32C0xx_HAL_Driver/Src/stm32c0xx_hal_dma.c ****   /* Release Lock */
 231:Drivers/STM32C0xx_HAL_Driver/Src/stm32c0xx_hal_dma.c ****   __HAL_UNLOCK(hdma);
 232:Drivers/STM32C0xx_HAL_Driver/Src/stm32c0xx_hal_dma.c **** 
 233:Drivers/STM32C0xx_HAL_Driver/Src/stm32c0xx_hal_dma.c ****   return HAL_OK;
 234:Drivers/STM32C0xx_HAL_Driver/Src/stm32c0xx_hal_dma.c **** }
 235:Drivers/STM32C0xx_HAL_Driver/Src/stm32c0xx_hal_dma.c **** 
 236:Drivers/STM32C0xx_HAL_Driver/Src/stm32c0xx_hal_dma.c **** /**
 237:Drivers/STM32C0xx_HAL_Driver/Src/stm32c0xx_hal_dma.c ****   * @brief  DeInitialize the DMA peripheral.
 238:Drivers/STM32C0xx_HAL_Driver/Src/stm32c0xx_hal_dma.c ****   * @param  hdma  pointer to a DMA_HandleTypeDef structure that contains
 239:Drivers/STM32C0xx_HAL_Driver/Src/stm32c0xx_hal_dma.c ****   *               the configuration information for the specified DMA Channel.
 240:Drivers/STM32C0xx_HAL_Driver/Src/stm32c0xx_hal_dma.c ****   * @retval HAL status
 241:Drivers/STM32C0xx_HAL_Driver/Src/stm32c0xx_hal_dma.c ****   */
 242:Drivers/STM32C0xx_HAL_Driver/Src/stm32c0xx_hal_dma.c **** HAL_StatusTypeDef HAL_DMA_DeInit(DMA_HandleTypeDef *hdma)
 243:Drivers/STM32C0xx_HAL_Driver/Src/stm32c0xx_hal_dma.c **** {
 244:Drivers/STM32C0xx_HAL_Driver/Src/stm32c0xx_hal_dma.c ****   /* Check the DMA handle allocation */
 245:Drivers/STM32C0xx_HAL_Driver/Src/stm32c0xx_hal_dma.c ****   if (NULL == hdma)
 246:Drivers/STM32C0xx_HAL_Driver/Src/stm32c0xx_hal_dma.c ****   {
 247:Drivers/STM32C0xx_HAL_Driver/Src/stm32c0xx_hal_dma.c ****     return HAL_ERROR;
 248:Drivers/STM32C0xx_HAL_Driver/Src/stm32c0xx_hal_dma.c ****   }
 249:Drivers/STM32C0xx_HAL_Driver/Src/stm32c0xx_hal_dma.c **** 
 250:Drivers/STM32C0xx_HAL_Driver/Src/stm32c0xx_hal_dma.c ****   /* Check the parameters */
 251:Drivers/STM32C0xx_HAL_Driver/Src/stm32c0xx_hal_dma.c ****   assert_param(IS_DMA_ALL_INSTANCE(hdma->Instance));
 252:Drivers/STM32C0xx_HAL_Driver/Src/stm32c0xx_hal_dma.c **** 
 253:Drivers/STM32C0xx_HAL_Driver/Src/stm32c0xx_hal_dma.c ****   /* Disable the selected DMA Channelx */
 254:Drivers/STM32C0xx_HAL_Driver/Src/stm32c0xx_hal_dma.c ****   __HAL_DMA_DISABLE(hdma);
 255:Drivers/STM32C0xx_HAL_Driver/Src/stm32c0xx_hal_dma.c **** 
 256:Drivers/STM32C0xx_HAL_Driver/Src/stm32c0xx_hal_dma.c ****   /* calculation of the channel index */
 257:Drivers/STM32C0xx_HAL_Driver/Src/stm32c0xx_hal_dma.c ****   hdma->ChannelIndex = (((uint32_t)hdma->Instance - (uint32_t)DMA1_Channel1) / ((uint32_t)DMA1_Chan
 258:Drivers/STM32C0xx_HAL_Driver/Src/stm32c0xx_hal_dma.c ****                                                                                 (uint32_t)DMA1_Chan
 259:Drivers/STM32C0xx_HAL_Driver/Src/stm32c0xx_hal_dma.c **** 
 260:Drivers/STM32C0xx_HAL_Driver/Src/stm32c0xx_hal_dma.c ****   /* Reset DMA Channel control register */
ARM GAS  C:\Users\Yasi\AppData\Local\Temp\cc6toQyB.s 			page 6


 261:Drivers/STM32C0xx_HAL_Driver/Src/stm32c0xx_hal_dma.c ****   hdma->Instance->CCR  = 0U;
 262:Drivers/STM32C0xx_HAL_Driver/Src/stm32c0xx_hal_dma.c **** 
 263:Drivers/STM32C0xx_HAL_Driver/Src/stm32c0xx_hal_dma.c ****   /* Clear all flags */
 264:Drivers/STM32C0xx_HAL_Driver/Src/stm32c0xx_hal_dma.c ****   __HAL_DMA_CLEAR_FLAG(hdma, (DMA_FLAG_GI1 << (hdma->ChannelIndex & 0x1cU)));
 265:Drivers/STM32C0xx_HAL_Driver/Src/stm32c0xx_hal_dma.c **** 
 266:Drivers/STM32C0xx_HAL_Driver/Src/stm32c0xx_hal_dma.c ****   /* Initialize parameters for DMAMUX channel :
 267:Drivers/STM32C0xx_HAL_Driver/Src/stm32c0xx_hal_dma.c ****      DMAmuxChannel, DMAmuxChannelStatus and DMAmuxChannelStatusMask */
 268:Drivers/STM32C0xx_HAL_Driver/Src/stm32c0xx_hal_dma.c **** 
 269:Drivers/STM32C0xx_HAL_Driver/Src/stm32c0xx_hal_dma.c ****   DMA_CalcDMAMUXChannelBaseAndMask(hdma);
 270:Drivers/STM32C0xx_HAL_Driver/Src/stm32c0xx_hal_dma.c **** 
 271:Drivers/STM32C0xx_HAL_Driver/Src/stm32c0xx_hal_dma.c ****   /* Reset the DMAMUX channel that corresponds to the DMA channel */
 272:Drivers/STM32C0xx_HAL_Driver/Src/stm32c0xx_hal_dma.c ****   hdma->DMAmuxChannel->CCR = 0U;
 273:Drivers/STM32C0xx_HAL_Driver/Src/stm32c0xx_hal_dma.c **** 
 274:Drivers/STM32C0xx_HAL_Driver/Src/stm32c0xx_hal_dma.c ****   /* Clear the DMAMUX synchro overrun flag */
 275:Drivers/STM32C0xx_HAL_Driver/Src/stm32c0xx_hal_dma.c ****   hdma->DMAmuxChannelStatus->CFR = hdma->DMAmuxChannelStatusMask;
 276:Drivers/STM32C0xx_HAL_Driver/Src/stm32c0xx_hal_dma.c **** 
 277:Drivers/STM32C0xx_HAL_Driver/Src/stm32c0xx_hal_dma.c ****   /* Reset Request generator parameters if any */
 278:Drivers/STM32C0xx_HAL_Driver/Src/stm32c0xx_hal_dma.c ****   if (((hdma->Init.Request >  0UL) && (hdma->Init.Request <= DMA_REQUEST_GENERATOR3)))
 279:Drivers/STM32C0xx_HAL_Driver/Src/stm32c0xx_hal_dma.c ****   {
 280:Drivers/STM32C0xx_HAL_Driver/Src/stm32c0xx_hal_dma.c ****     /* Initialize parameters for DMAMUX request generator :
 281:Drivers/STM32C0xx_HAL_Driver/Src/stm32c0xx_hal_dma.c ****        DMAmuxRequestGen, DMAmuxRequestGenStatus and DMAmuxRequestGenStatusMask
 282:Drivers/STM32C0xx_HAL_Driver/Src/stm32c0xx_hal_dma.c ****     */
 283:Drivers/STM32C0xx_HAL_Driver/Src/stm32c0xx_hal_dma.c ****     DMA_CalcDMAMUXRequestGenBaseAndMask(hdma);
 284:Drivers/STM32C0xx_HAL_Driver/Src/stm32c0xx_hal_dma.c **** 
 285:Drivers/STM32C0xx_HAL_Driver/Src/stm32c0xx_hal_dma.c ****     /* Reset the DMAMUX request generator register*/
 286:Drivers/STM32C0xx_HAL_Driver/Src/stm32c0xx_hal_dma.c ****     hdma->DMAmuxRequestGen->RGCR = 0U;
 287:Drivers/STM32C0xx_HAL_Driver/Src/stm32c0xx_hal_dma.c **** 
 288:Drivers/STM32C0xx_HAL_Driver/Src/stm32c0xx_hal_dma.c ****     /* Clear the DMAMUX request generator overrun flag */
 289:Drivers/STM32C0xx_HAL_Driver/Src/stm32c0xx_hal_dma.c ****     hdma->DMAmuxRequestGenStatus->RGCFR = hdma->DMAmuxRequestGenStatusMask;
 290:Drivers/STM32C0xx_HAL_Driver/Src/stm32c0xx_hal_dma.c ****   }
 291:Drivers/STM32C0xx_HAL_Driver/Src/stm32c0xx_hal_dma.c **** 
 292:Drivers/STM32C0xx_HAL_Driver/Src/stm32c0xx_hal_dma.c ****   /* Clean callbacks */
 293:Drivers/STM32C0xx_HAL_Driver/Src/stm32c0xx_hal_dma.c ****   hdma->XferCpltCallback = NULL;
 294:Drivers/STM32C0xx_HAL_Driver/Src/stm32c0xx_hal_dma.c ****   hdma->XferHalfCpltCallback = NULL;
 295:Drivers/STM32C0xx_HAL_Driver/Src/stm32c0xx_hal_dma.c ****   hdma->XferErrorCallback = NULL;
 296:Drivers/STM32C0xx_HAL_Driver/Src/stm32c0xx_hal_dma.c ****   hdma->XferAbortCallback = NULL;
 297:Drivers/STM32C0xx_HAL_Driver/Src/stm32c0xx_hal_dma.c **** 
 298:Drivers/STM32C0xx_HAL_Driver/Src/stm32c0xx_hal_dma.c ****   hdma->DMAmuxRequestGen = 0U;
 299:Drivers/STM32C0xx_HAL_Driver/Src/stm32c0xx_hal_dma.c ****   hdma->DMAmuxRequestGenStatus = 0U;
 300:Drivers/STM32C0xx_HAL_Driver/Src/stm32c0xx_hal_dma.c ****   hdma->DMAmuxRequestGenStatusMask = 0U;
 301:Drivers/STM32C0xx_HAL_Driver/Src/stm32c0xx_hal_dma.c **** 
 302:Drivers/STM32C0xx_HAL_Driver/Src/stm32c0xx_hal_dma.c ****   /* Initialize the error code */
 303:Drivers/STM32C0xx_HAL_Driver/Src/stm32c0xx_hal_dma.c ****   hdma->ErrorCode = HAL_DMA_ERROR_NONE;
 304:Drivers/STM32C0xx_HAL_Driver/Src/stm32c0xx_hal_dma.c **** 
 305:Drivers/STM32C0xx_HAL_Driver/Src/stm32c0xx_hal_dma.c ****   /* Initialize the DMA state */
 306:Drivers/STM32C0xx_HAL_Driver/Src/stm32c0xx_hal_dma.c ****   hdma->State = HAL_DMA_STATE_RESET;
 307:Drivers/STM32C0xx_HAL_Driver/Src/stm32c0xx_hal_dma.c **** 
 308:Drivers/STM32C0xx_HAL_Driver/Src/stm32c0xx_hal_dma.c ****   /* Release Lock */
 309:Drivers/STM32C0xx_HAL_Driver/Src/stm32c0xx_hal_dma.c ****   __HAL_UNLOCK(hdma);
 310:Drivers/STM32C0xx_HAL_Driver/Src/stm32c0xx_hal_dma.c **** 
 311:Drivers/STM32C0xx_HAL_Driver/Src/stm32c0xx_hal_dma.c ****   return HAL_OK;
 312:Drivers/STM32C0xx_HAL_Driver/Src/stm32c0xx_hal_dma.c **** }
 313:Drivers/STM32C0xx_HAL_Driver/Src/stm32c0xx_hal_dma.c **** 
 314:Drivers/STM32C0xx_HAL_Driver/Src/stm32c0xx_hal_dma.c **** /**
 315:Drivers/STM32C0xx_HAL_Driver/Src/stm32c0xx_hal_dma.c ****   * @}
 316:Drivers/STM32C0xx_HAL_Driver/Src/stm32c0xx_hal_dma.c ****   */
 317:Drivers/STM32C0xx_HAL_Driver/Src/stm32c0xx_hal_dma.c **** 
ARM GAS  C:\Users\Yasi\AppData\Local\Temp\cc6toQyB.s 			page 7


 318:Drivers/STM32C0xx_HAL_Driver/Src/stm32c0xx_hal_dma.c **** /** @defgroup DMA_Exported_Functions_Group2 Input and Output operation functions
 319:Drivers/STM32C0xx_HAL_Driver/Src/stm32c0xx_hal_dma.c ****   *  @brief   Input and Output operation functions
 320:Drivers/STM32C0xx_HAL_Driver/Src/stm32c0xx_hal_dma.c ****   *
 321:Drivers/STM32C0xx_HAL_Driver/Src/stm32c0xx_hal_dma.c **** @verbatim
 322:Drivers/STM32C0xx_HAL_Driver/Src/stm32c0xx_hal_dma.c ****  ===============================================================================
 323:Drivers/STM32C0xx_HAL_Driver/Src/stm32c0xx_hal_dma.c ****                       #####  IO operation functions  #####
 324:Drivers/STM32C0xx_HAL_Driver/Src/stm32c0xx_hal_dma.c ****  ===============================================================================
 325:Drivers/STM32C0xx_HAL_Driver/Src/stm32c0xx_hal_dma.c ****     [..]  This section provides functions allowing to:
 326:Drivers/STM32C0xx_HAL_Driver/Src/stm32c0xx_hal_dma.c ****       (+) Configure the source, destination address and data length and Start DMA transfer
 327:Drivers/STM32C0xx_HAL_Driver/Src/stm32c0xx_hal_dma.c ****       (+) Configure the source, destination address and data length and
 328:Drivers/STM32C0xx_HAL_Driver/Src/stm32c0xx_hal_dma.c ****           Start DMA transfer with interrupt
 329:Drivers/STM32C0xx_HAL_Driver/Src/stm32c0xx_hal_dma.c ****       (+) Abort DMA transfer
 330:Drivers/STM32C0xx_HAL_Driver/Src/stm32c0xx_hal_dma.c ****       (+) Poll for transfer complete
 331:Drivers/STM32C0xx_HAL_Driver/Src/stm32c0xx_hal_dma.c ****       (+) Handle DMA interrupt request
 332:Drivers/STM32C0xx_HAL_Driver/Src/stm32c0xx_hal_dma.c **** 
 333:Drivers/STM32C0xx_HAL_Driver/Src/stm32c0xx_hal_dma.c **** @endverbatim
 334:Drivers/STM32C0xx_HAL_Driver/Src/stm32c0xx_hal_dma.c ****   * @{
 335:Drivers/STM32C0xx_HAL_Driver/Src/stm32c0xx_hal_dma.c ****   */
 336:Drivers/STM32C0xx_HAL_Driver/Src/stm32c0xx_hal_dma.c **** 
 337:Drivers/STM32C0xx_HAL_Driver/Src/stm32c0xx_hal_dma.c **** /**
 338:Drivers/STM32C0xx_HAL_Driver/Src/stm32c0xx_hal_dma.c ****   * @brief  Start the DMA Transfer.
 339:Drivers/STM32C0xx_HAL_Driver/Src/stm32c0xx_hal_dma.c ****   * @param hdma Pointer to a DMA_HandleTypeDef structure that contains
 340:Drivers/STM32C0xx_HAL_Driver/Src/stm32c0xx_hal_dma.c ****   *               the configuration information for the specified DMA Channel.
 341:Drivers/STM32C0xx_HAL_Driver/Src/stm32c0xx_hal_dma.c ****   * @param SrcAddress The source memory Buffer address
 342:Drivers/STM32C0xx_HAL_Driver/Src/stm32c0xx_hal_dma.c ****   * @param DstAddress The destination memory Buffer address
 343:Drivers/STM32C0xx_HAL_Driver/Src/stm32c0xx_hal_dma.c ****   * @param DataLength The length of data to be transferred from source to destination
 344:Drivers/STM32C0xx_HAL_Driver/Src/stm32c0xx_hal_dma.c ****   * @retval HAL status
 345:Drivers/STM32C0xx_HAL_Driver/Src/stm32c0xx_hal_dma.c ****   */
 346:Drivers/STM32C0xx_HAL_Driver/Src/stm32c0xx_hal_dma.c **** HAL_StatusTypeDef HAL_DMA_Start(DMA_HandleTypeDef *hdma, uint32_t SrcAddress, uint32_t DstAddress, 
 347:Drivers/STM32C0xx_HAL_Driver/Src/stm32c0xx_hal_dma.c **** {
 348:Drivers/STM32C0xx_HAL_Driver/Src/stm32c0xx_hal_dma.c ****   HAL_StatusTypeDef status = HAL_OK;
 349:Drivers/STM32C0xx_HAL_Driver/Src/stm32c0xx_hal_dma.c **** 
 350:Drivers/STM32C0xx_HAL_Driver/Src/stm32c0xx_hal_dma.c ****   /* Check the parameters */
 351:Drivers/STM32C0xx_HAL_Driver/Src/stm32c0xx_hal_dma.c ****   assert_param(IS_DMA_BUFFER_SIZE(DataLength));
 352:Drivers/STM32C0xx_HAL_Driver/Src/stm32c0xx_hal_dma.c **** 
 353:Drivers/STM32C0xx_HAL_Driver/Src/stm32c0xx_hal_dma.c ****   /* Process locked */
 354:Drivers/STM32C0xx_HAL_Driver/Src/stm32c0xx_hal_dma.c ****   __HAL_LOCK(hdma);
 355:Drivers/STM32C0xx_HAL_Driver/Src/stm32c0xx_hal_dma.c **** 
 356:Drivers/STM32C0xx_HAL_Driver/Src/stm32c0xx_hal_dma.c ****   if (HAL_DMA_STATE_READY == hdma->State)
 357:Drivers/STM32C0xx_HAL_Driver/Src/stm32c0xx_hal_dma.c ****   {
 358:Drivers/STM32C0xx_HAL_Driver/Src/stm32c0xx_hal_dma.c ****     /* Change DMA peripheral state */
 359:Drivers/STM32C0xx_HAL_Driver/Src/stm32c0xx_hal_dma.c ****     hdma->State = HAL_DMA_STATE_BUSY;
 360:Drivers/STM32C0xx_HAL_Driver/Src/stm32c0xx_hal_dma.c ****     hdma->ErrorCode = HAL_DMA_ERROR_NONE;
 361:Drivers/STM32C0xx_HAL_Driver/Src/stm32c0xx_hal_dma.c **** 
 362:Drivers/STM32C0xx_HAL_Driver/Src/stm32c0xx_hal_dma.c ****     /* Disable the peripheral */
 363:Drivers/STM32C0xx_HAL_Driver/Src/stm32c0xx_hal_dma.c ****     __HAL_DMA_DISABLE(hdma);
 364:Drivers/STM32C0xx_HAL_Driver/Src/stm32c0xx_hal_dma.c **** 
 365:Drivers/STM32C0xx_HAL_Driver/Src/stm32c0xx_hal_dma.c ****     /* Configure the source, destination address and the data length & clear flags*/
 366:Drivers/STM32C0xx_HAL_Driver/Src/stm32c0xx_hal_dma.c ****     DMA_SetConfig(hdma, SrcAddress, DstAddress, DataLength);
 367:Drivers/STM32C0xx_HAL_Driver/Src/stm32c0xx_hal_dma.c **** 
 368:Drivers/STM32C0xx_HAL_Driver/Src/stm32c0xx_hal_dma.c ****     /* Enable the Peripheral */
 369:Drivers/STM32C0xx_HAL_Driver/Src/stm32c0xx_hal_dma.c ****     __HAL_DMA_ENABLE(hdma);
 370:Drivers/STM32C0xx_HAL_Driver/Src/stm32c0xx_hal_dma.c ****   }
 371:Drivers/STM32C0xx_HAL_Driver/Src/stm32c0xx_hal_dma.c ****   else
 372:Drivers/STM32C0xx_HAL_Driver/Src/stm32c0xx_hal_dma.c ****   {
 373:Drivers/STM32C0xx_HAL_Driver/Src/stm32c0xx_hal_dma.c ****     /* Process Unlocked */
 374:Drivers/STM32C0xx_HAL_Driver/Src/stm32c0xx_hal_dma.c ****     __HAL_UNLOCK(hdma);
ARM GAS  C:\Users\Yasi\AppData\Local\Temp\cc6toQyB.s 			page 8


 375:Drivers/STM32C0xx_HAL_Driver/Src/stm32c0xx_hal_dma.c ****     status = HAL_BUSY;
 376:Drivers/STM32C0xx_HAL_Driver/Src/stm32c0xx_hal_dma.c ****   }
 377:Drivers/STM32C0xx_HAL_Driver/Src/stm32c0xx_hal_dma.c **** 
 378:Drivers/STM32C0xx_HAL_Driver/Src/stm32c0xx_hal_dma.c ****   /* Process locked */
 379:Drivers/STM32C0xx_HAL_Driver/Src/stm32c0xx_hal_dma.c ****   __HAL_UNLOCK(hdma);
 380:Drivers/STM32C0xx_HAL_Driver/Src/stm32c0xx_hal_dma.c **** 
 381:Drivers/STM32C0xx_HAL_Driver/Src/stm32c0xx_hal_dma.c ****   return status;
 382:Drivers/STM32C0xx_HAL_Driver/Src/stm32c0xx_hal_dma.c **** }
 383:Drivers/STM32C0xx_HAL_Driver/Src/stm32c0xx_hal_dma.c **** 
 384:Drivers/STM32C0xx_HAL_Driver/Src/stm32c0xx_hal_dma.c **** /**
 385:Drivers/STM32C0xx_HAL_Driver/Src/stm32c0xx_hal_dma.c ****   * @brief  Start the DMA Transfer with interrupt enabled.
 386:Drivers/STM32C0xx_HAL_Driver/Src/stm32c0xx_hal_dma.c ****   * @param hdma Pointer to a DMA_HandleTypeDef structure that contains
 387:Drivers/STM32C0xx_HAL_Driver/Src/stm32c0xx_hal_dma.c ****   *               the configuration information for the specified DMA Channel.
 388:Drivers/STM32C0xx_HAL_Driver/Src/stm32c0xx_hal_dma.c ****   * @param SrcAddress The source memory Buffer address
 389:Drivers/STM32C0xx_HAL_Driver/Src/stm32c0xx_hal_dma.c ****   * @param DstAddress The destination memory Buffer address
 390:Drivers/STM32C0xx_HAL_Driver/Src/stm32c0xx_hal_dma.c ****   * @param DataLength The length of data to be transferred from source to destination
 391:Drivers/STM32C0xx_HAL_Driver/Src/stm32c0xx_hal_dma.c ****   * @retval HAL status
 392:Drivers/STM32C0xx_HAL_Driver/Src/stm32c0xx_hal_dma.c ****   */
 393:Drivers/STM32C0xx_HAL_Driver/Src/stm32c0xx_hal_dma.c **** HAL_StatusTypeDef HAL_DMA_Start_IT(DMA_HandleTypeDef *hdma, uint32_t SrcAddress, uint32_t DstAddres
 394:Drivers/STM32C0xx_HAL_Driver/Src/stm32c0xx_hal_dma.c ****                                    uint32_t DataLength)
 395:Drivers/STM32C0xx_HAL_Driver/Src/stm32c0xx_hal_dma.c **** {
 396:Drivers/STM32C0xx_HAL_Driver/Src/stm32c0xx_hal_dma.c ****   HAL_StatusTypeDef status = HAL_OK;
 397:Drivers/STM32C0xx_HAL_Driver/Src/stm32c0xx_hal_dma.c **** 
 398:Drivers/STM32C0xx_HAL_Driver/Src/stm32c0xx_hal_dma.c ****   /* Check the parameters */
 399:Drivers/STM32C0xx_HAL_Driver/Src/stm32c0xx_hal_dma.c ****   assert_param(IS_DMA_BUFFER_SIZE(DataLength));
 400:Drivers/STM32C0xx_HAL_Driver/Src/stm32c0xx_hal_dma.c **** 
 401:Drivers/STM32C0xx_HAL_Driver/Src/stm32c0xx_hal_dma.c ****   /* Process locked */
 402:Drivers/STM32C0xx_HAL_Driver/Src/stm32c0xx_hal_dma.c ****   __HAL_LOCK(hdma);
 403:Drivers/STM32C0xx_HAL_Driver/Src/stm32c0xx_hal_dma.c **** 
 404:Drivers/STM32C0xx_HAL_Driver/Src/stm32c0xx_hal_dma.c ****   if (HAL_DMA_STATE_READY == hdma->State)
 405:Drivers/STM32C0xx_HAL_Driver/Src/stm32c0xx_hal_dma.c ****   {
 406:Drivers/STM32C0xx_HAL_Driver/Src/stm32c0xx_hal_dma.c ****     /* Change DMA peripheral state */
 407:Drivers/STM32C0xx_HAL_Driver/Src/stm32c0xx_hal_dma.c ****     hdma->State = HAL_DMA_STATE_BUSY;
 408:Drivers/STM32C0xx_HAL_Driver/Src/stm32c0xx_hal_dma.c ****     hdma->ErrorCode = HAL_DMA_ERROR_NONE;
 409:Drivers/STM32C0xx_HAL_Driver/Src/stm32c0xx_hal_dma.c **** 
 410:Drivers/STM32C0xx_HAL_Driver/Src/stm32c0xx_hal_dma.c ****     /* Disable the peripheral */
 411:Drivers/STM32C0xx_HAL_Driver/Src/stm32c0xx_hal_dma.c ****     __HAL_DMA_DISABLE(hdma);
 412:Drivers/STM32C0xx_HAL_Driver/Src/stm32c0xx_hal_dma.c **** 
 413:Drivers/STM32C0xx_HAL_Driver/Src/stm32c0xx_hal_dma.c ****     /* Configure the source, destination address and the data length & clear flags*/
 414:Drivers/STM32C0xx_HAL_Driver/Src/stm32c0xx_hal_dma.c ****     DMA_SetConfig(hdma, SrcAddress, DstAddress, DataLength);
 415:Drivers/STM32C0xx_HAL_Driver/Src/stm32c0xx_hal_dma.c **** 
 416:Drivers/STM32C0xx_HAL_Driver/Src/stm32c0xx_hal_dma.c ****     /* Enable the transfer complete interrupt */
 417:Drivers/STM32C0xx_HAL_Driver/Src/stm32c0xx_hal_dma.c ****     /* Enable the transfer Error interrupt */
 418:Drivers/STM32C0xx_HAL_Driver/Src/stm32c0xx_hal_dma.c ****     if (NULL != hdma->XferHalfCpltCallback)
 419:Drivers/STM32C0xx_HAL_Driver/Src/stm32c0xx_hal_dma.c ****     {
 420:Drivers/STM32C0xx_HAL_Driver/Src/stm32c0xx_hal_dma.c ****       /* Enable the Half transfer complete interrupt as well */
 421:Drivers/STM32C0xx_HAL_Driver/Src/stm32c0xx_hal_dma.c ****       __HAL_DMA_ENABLE_IT(hdma, (DMA_IT_TC | DMA_IT_HT | DMA_IT_TE));
 422:Drivers/STM32C0xx_HAL_Driver/Src/stm32c0xx_hal_dma.c ****     }
 423:Drivers/STM32C0xx_HAL_Driver/Src/stm32c0xx_hal_dma.c ****     else
 424:Drivers/STM32C0xx_HAL_Driver/Src/stm32c0xx_hal_dma.c ****     {
 425:Drivers/STM32C0xx_HAL_Driver/Src/stm32c0xx_hal_dma.c ****       __HAL_DMA_DISABLE_IT(hdma, DMA_IT_HT);
 426:Drivers/STM32C0xx_HAL_Driver/Src/stm32c0xx_hal_dma.c ****       __HAL_DMA_ENABLE_IT(hdma, (DMA_IT_TC | DMA_IT_TE));
 427:Drivers/STM32C0xx_HAL_Driver/Src/stm32c0xx_hal_dma.c ****     }
 428:Drivers/STM32C0xx_HAL_Driver/Src/stm32c0xx_hal_dma.c **** 
 429:Drivers/STM32C0xx_HAL_Driver/Src/stm32c0xx_hal_dma.c ****     /* Check if DMAMUX Synchronization is enabled*/
 430:Drivers/STM32C0xx_HAL_Driver/Src/stm32c0xx_hal_dma.c ****     if ((hdma->DMAmuxChannel->CCR & DMAMUX_CxCR_SE) != 0U)
 431:Drivers/STM32C0xx_HAL_Driver/Src/stm32c0xx_hal_dma.c ****     {
ARM GAS  C:\Users\Yasi\AppData\Local\Temp\cc6toQyB.s 			page 9


 432:Drivers/STM32C0xx_HAL_Driver/Src/stm32c0xx_hal_dma.c ****       /* Enable DMAMUX sync overrun IT*/
 433:Drivers/STM32C0xx_HAL_Driver/Src/stm32c0xx_hal_dma.c ****       hdma->DMAmuxChannel->CCR |= DMAMUX_CxCR_SOIE;
 434:Drivers/STM32C0xx_HAL_Driver/Src/stm32c0xx_hal_dma.c ****     }
 435:Drivers/STM32C0xx_HAL_Driver/Src/stm32c0xx_hal_dma.c **** 
 436:Drivers/STM32C0xx_HAL_Driver/Src/stm32c0xx_hal_dma.c ****     if (hdma->DMAmuxRequestGen != 0U)
 437:Drivers/STM32C0xx_HAL_Driver/Src/stm32c0xx_hal_dma.c ****     {
 438:Drivers/STM32C0xx_HAL_Driver/Src/stm32c0xx_hal_dma.c ****       /* if using DMAMUX request generator, enable the DMAMUX request generator overrun IT*/
 439:Drivers/STM32C0xx_HAL_Driver/Src/stm32c0xx_hal_dma.c ****       /* enable the request gen overrun IT*/
 440:Drivers/STM32C0xx_HAL_Driver/Src/stm32c0xx_hal_dma.c ****       hdma->DMAmuxRequestGen->RGCR |= DMAMUX_RGxCR_OIE;
 441:Drivers/STM32C0xx_HAL_Driver/Src/stm32c0xx_hal_dma.c ****     }
 442:Drivers/STM32C0xx_HAL_Driver/Src/stm32c0xx_hal_dma.c **** 
 443:Drivers/STM32C0xx_HAL_Driver/Src/stm32c0xx_hal_dma.c ****     /* Enable the Peripheral */
 444:Drivers/STM32C0xx_HAL_Driver/Src/stm32c0xx_hal_dma.c ****     __HAL_DMA_ENABLE(hdma);
 445:Drivers/STM32C0xx_HAL_Driver/Src/stm32c0xx_hal_dma.c ****   }
 446:Drivers/STM32C0xx_HAL_Driver/Src/stm32c0xx_hal_dma.c ****   else
 447:Drivers/STM32C0xx_HAL_Driver/Src/stm32c0xx_hal_dma.c ****   {
 448:Drivers/STM32C0xx_HAL_Driver/Src/stm32c0xx_hal_dma.c ****     /* Process Unlocked */
 449:Drivers/STM32C0xx_HAL_Driver/Src/stm32c0xx_hal_dma.c ****     __HAL_UNLOCK(hdma);
 450:Drivers/STM32C0xx_HAL_Driver/Src/stm32c0xx_hal_dma.c **** 
 451:Drivers/STM32C0xx_HAL_Driver/Src/stm32c0xx_hal_dma.c ****     /* Remain BUSY */
 452:Drivers/STM32C0xx_HAL_Driver/Src/stm32c0xx_hal_dma.c ****     status = HAL_BUSY;
 453:Drivers/STM32C0xx_HAL_Driver/Src/stm32c0xx_hal_dma.c ****   }
 454:Drivers/STM32C0xx_HAL_Driver/Src/stm32c0xx_hal_dma.c **** 
 455:Drivers/STM32C0xx_HAL_Driver/Src/stm32c0xx_hal_dma.c ****   /* Process unlocked */
 456:Drivers/STM32C0xx_HAL_Driver/Src/stm32c0xx_hal_dma.c ****   __HAL_UNLOCK(hdma);
 457:Drivers/STM32C0xx_HAL_Driver/Src/stm32c0xx_hal_dma.c **** 
 458:Drivers/STM32C0xx_HAL_Driver/Src/stm32c0xx_hal_dma.c ****   return status;
 459:Drivers/STM32C0xx_HAL_Driver/Src/stm32c0xx_hal_dma.c **** }
 460:Drivers/STM32C0xx_HAL_Driver/Src/stm32c0xx_hal_dma.c **** 
 461:Drivers/STM32C0xx_HAL_Driver/Src/stm32c0xx_hal_dma.c **** /**
 462:Drivers/STM32C0xx_HAL_Driver/Src/stm32c0xx_hal_dma.c ****   * @brief  Abort the DMA Transfer.
 463:Drivers/STM32C0xx_HAL_Driver/Src/stm32c0xx_hal_dma.c ****   * @param hdma Pointer to a DMA_HandleTypeDef structure that contains
 464:Drivers/STM32C0xx_HAL_Driver/Src/stm32c0xx_hal_dma.c ****   *               the configuration information for the specified DMA Channel.
 465:Drivers/STM32C0xx_HAL_Driver/Src/stm32c0xx_hal_dma.c ****     * @retval HAL status
 466:Drivers/STM32C0xx_HAL_Driver/Src/stm32c0xx_hal_dma.c ****   */
 467:Drivers/STM32C0xx_HAL_Driver/Src/stm32c0xx_hal_dma.c **** HAL_StatusTypeDef HAL_DMA_Abort(DMA_HandleTypeDef *hdma)
 468:Drivers/STM32C0xx_HAL_Driver/Src/stm32c0xx_hal_dma.c **** {
 469:Drivers/STM32C0xx_HAL_Driver/Src/stm32c0xx_hal_dma.c ****   /* Check the DMA peripheral handle */
 470:Drivers/STM32C0xx_HAL_Driver/Src/stm32c0xx_hal_dma.c ****   if (NULL == hdma)
 471:Drivers/STM32C0xx_HAL_Driver/Src/stm32c0xx_hal_dma.c ****   {
 472:Drivers/STM32C0xx_HAL_Driver/Src/stm32c0xx_hal_dma.c ****     return HAL_ERROR;
 473:Drivers/STM32C0xx_HAL_Driver/Src/stm32c0xx_hal_dma.c ****   }
 474:Drivers/STM32C0xx_HAL_Driver/Src/stm32c0xx_hal_dma.c **** 
 475:Drivers/STM32C0xx_HAL_Driver/Src/stm32c0xx_hal_dma.c ****   /* Check the DMA peripheral state */
 476:Drivers/STM32C0xx_HAL_Driver/Src/stm32c0xx_hal_dma.c ****   if (hdma->State != HAL_DMA_STATE_BUSY)
 477:Drivers/STM32C0xx_HAL_Driver/Src/stm32c0xx_hal_dma.c ****   {
 478:Drivers/STM32C0xx_HAL_Driver/Src/stm32c0xx_hal_dma.c ****     hdma->ErrorCode = HAL_DMA_ERROR_NO_XFER;
 479:Drivers/STM32C0xx_HAL_Driver/Src/stm32c0xx_hal_dma.c **** 
 480:Drivers/STM32C0xx_HAL_Driver/Src/stm32c0xx_hal_dma.c ****     /* Process Unlocked */
 481:Drivers/STM32C0xx_HAL_Driver/Src/stm32c0xx_hal_dma.c ****     __HAL_UNLOCK(hdma);
 482:Drivers/STM32C0xx_HAL_Driver/Src/stm32c0xx_hal_dma.c **** 
 483:Drivers/STM32C0xx_HAL_Driver/Src/stm32c0xx_hal_dma.c ****     return HAL_ERROR;
 484:Drivers/STM32C0xx_HAL_Driver/Src/stm32c0xx_hal_dma.c ****   }
 485:Drivers/STM32C0xx_HAL_Driver/Src/stm32c0xx_hal_dma.c ****   else
 486:Drivers/STM32C0xx_HAL_Driver/Src/stm32c0xx_hal_dma.c ****   {
 487:Drivers/STM32C0xx_HAL_Driver/Src/stm32c0xx_hal_dma.c ****     /* Disable DMA IT */
 488:Drivers/STM32C0xx_HAL_Driver/Src/stm32c0xx_hal_dma.c ****     __HAL_DMA_DISABLE_IT(hdma, (DMA_IT_TC | DMA_IT_HT | DMA_IT_TE));
ARM GAS  C:\Users\Yasi\AppData\Local\Temp\cc6toQyB.s 			page 10


 489:Drivers/STM32C0xx_HAL_Driver/Src/stm32c0xx_hal_dma.c **** 
 490:Drivers/STM32C0xx_HAL_Driver/Src/stm32c0xx_hal_dma.c ****     /* disable the DMAMUX sync overrun IT*/
 491:Drivers/STM32C0xx_HAL_Driver/Src/stm32c0xx_hal_dma.c ****     hdma->DMAmuxChannel->CCR &= ~DMAMUX_CxCR_SOIE;
 492:Drivers/STM32C0xx_HAL_Driver/Src/stm32c0xx_hal_dma.c **** 
 493:Drivers/STM32C0xx_HAL_Driver/Src/stm32c0xx_hal_dma.c ****     /* Disable the channel */
 494:Drivers/STM32C0xx_HAL_Driver/Src/stm32c0xx_hal_dma.c ****     __HAL_DMA_DISABLE(hdma);
 495:Drivers/STM32C0xx_HAL_Driver/Src/stm32c0xx_hal_dma.c **** 
 496:Drivers/STM32C0xx_HAL_Driver/Src/stm32c0xx_hal_dma.c ****     /* Clear all flags */
 497:Drivers/STM32C0xx_HAL_Driver/Src/stm32c0xx_hal_dma.c ****     __HAL_DMA_CLEAR_FLAG(hdma, ((DMA_FLAG_GI1) << (hdma->ChannelIndex  & 0x1cU)));
 498:Drivers/STM32C0xx_HAL_Driver/Src/stm32c0xx_hal_dma.c **** 
 499:Drivers/STM32C0xx_HAL_Driver/Src/stm32c0xx_hal_dma.c ****     /* Clear the DMAMUX synchro overrun flag */
 500:Drivers/STM32C0xx_HAL_Driver/Src/stm32c0xx_hal_dma.c ****     hdma->DMAmuxChannelStatus->CFR = hdma->DMAmuxChannelStatusMask;
 501:Drivers/STM32C0xx_HAL_Driver/Src/stm32c0xx_hal_dma.c **** 
 502:Drivers/STM32C0xx_HAL_Driver/Src/stm32c0xx_hal_dma.c ****     if (hdma->DMAmuxRequestGen != 0U)
 503:Drivers/STM32C0xx_HAL_Driver/Src/stm32c0xx_hal_dma.c ****     {
 504:Drivers/STM32C0xx_HAL_Driver/Src/stm32c0xx_hal_dma.c ****       /* if using DMAMUX request generator, disable the DMAMUX request generator overrun IT*/
 505:Drivers/STM32C0xx_HAL_Driver/Src/stm32c0xx_hal_dma.c ****       /* disable the request gen overrun IT*/
 506:Drivers/STM32C0xx_HAL_Driver/Src/stm32c0xx_hal_dma.c ****       hdma->DMAmuxRequestGen->RGCR &= ~DMAMUX_RGxCR_OIE;
 507:Drivers/STM32C0xx_HAL_Driver/Src/stm32c0xx_hal_dma.c **** 
 508:Drivers/STM32C0xx_HAL_Driver/Src/stm32c0xx_hal_dma.c ****       /* Clear the DMAMUX request generator overrun flag */
 509:Drivers/STM32C0xx_HAL_Driver/Src/stm32c0xx_hal_dma.c ****       hdma->DMAmuxRequestGenStatus->RGCFR = hdma->DMAmuxRequestGenStatusMask;
 510:Drivers/STM32C0xx_HAL_Driver/Src/stm32c0xx_hal_dma.c ****     }
 511:Drivers/STM32C0xx_HAL_Driver/Src/stm32c0xx_hal_dma.c **** 
 512:Drivers/STM32C0xx_HAL_Driver/Src/stm32c0xx_hal_dma.c ****     /* Change the DMA state */
 513:Drivers/STM32C0xx_HAL_Driver/Src/stm32c0xx_hal_dma.c ****     hdma->State = HAL_DMA_STATE_READY;
 514:Drivers/STM32C0xx_HAL_Driver/Src/stm32c0xx_hal_dma.c **** 
 515:Drivers/STM32C0xx_HAL_Driver/Src/stm32c0xx_hal_dma.c ****     /* Process Unlocked */
 516:Drivers/STM32C0xx_HAL_Driver/Src/stm32c0xx_hal_dma.c ****     __HAL_UNLOCK(hdma);
 517:Drivers/STM32C0xx_HAL_Driver/Src/stm32c0xx_hal_dma.c ****   }
 518:Drivers/STM32C0xx_HAL_Driver/Src/stm32c0xx_hal_dma.c **** 
 519:Drivers/STM32C0xx_HAL_Driver/Src/stm32c0xx_hal_dma.c ****   return HAL_OK;
 520:Drivers/STM32C0xx_HAL_Driver/Src/stm32c0xx_hal_dma.c **** }
 521:Drivers/STM32C0xx_HAL_Driver/Src/stm32c0xx_hal_dma.c **** 
 522:Drivers/STM32C0xx_HAL_Driver/Src/stm32c0xx_hal_dma.c **** /**
 523:Drivers/STM32C0xx_HAL_Driver/Src/stm32c0xx_hal_dma.c ****   * @brief  Aborts the DMA Transfer in Interrupt mode.
 524:Drivers/STM32C0xx_HAL_Driver/Src/stm32c0xx_hal_dma.c ****   * @param  hdma    pointer to a DMA_HandleTypeDef structure that contains
 525:Drivers/STM32C0xx_HAL_Driver/Src/stm32c0xx_hal_dma.c ****   *                 the configuration information for the specified DMA Stream.
 526:Drivers/STM32C0xx_HAL_Driver/Src/stm32c0xx_hal_dma.c ****   * @retval HAL status
 527:Drivers/STM32C0xx_HAL_Driver/Src/stm32c0xx_hal_dma.c ****   */
 528:Drivers/STM32C0xx_HAL_Driver/Src/stm32c0xx_hal_dma.c **** HAL_StatusTypeDef HAL_DMA_Abort_IT(DMA_HandleTypeDef *hdma)
 529:Drivers/STM32C0xx_HAL_Driver/Src/stm32c0xx_hal_dma.c **** {
 530:Drivers/STM32C0xx_HAL_Driver/Src/stm32c0xx_hal_dma.c ****   HAL_StatusTypeDef status = HAL_OK;
 531:Drivers/STM32C0xx_HAL_Driver/Src/stm32c0xx_hal_dma.c **** 
 532:Drivers/STM32C0xx_HAL_Driver/Src/stm32c0xx_hal_dma.c ****   /* Process Unlocked/locked */
 533:Drivers/STM32C0xx_HAL_Driver/Src/stm32c0xx_hal_dma.c ****   __HAL_UNLOCK(hdma);
 534:Drivers/STM32C0xx_HAL_Driver/Src/stm32c0xx_hal_dma.c ****   __HAL_LOCK(hdma);
 535:Drivers/STM32C0xx_HAL_Driver/Src/stm32c0xx_hal_dma.c **** 
 536:Drivers/STM32C0xx_HAL_Driver/Src/stm32c0xx_hal_dma.c ****   if (HAL_DMA_STATE_BUSY != hdma->State)
 537:Drivers/STM32C0xx_HAL_Driver/Src/stm32c0xx_hal_dma.c ****   {
 538:Drivers/STM32C0xx_HAL_Driver/Src/stm32c0xx_hal_dma.c ****     /* no transfer ongoing */
 539:Drivers/STM32C0xx_HAL_Driver/Src/stm32c0xx_hal_dma.c ****     hdma->ErrorCode = HAL_DMA_ERROR_NO_XFER;
 540:Drivers/STM32C0xx_HAL_Driver/Src/stm32c0xx_hal_dma.c **** 
 541:Drivers/STM32C0xx_HAL_Driver/Src/stm32c0xx_hal_dma.c ****     status = HAL_ERROR;
 542:Drivers/STM32C0xx_HAL_Driver/Src/stm32c0xx_hal_dma.c ****   }
 543:Drivers/STM32C0xx_HAL_Driver/Src/stm32c0xx_hal_dma.c ****   else
 544:Drivers/STM32C0xx_HAL_Driver/Src/stm32c0xx_hal_dma.c ****   {
 545:Drivers/STM32C0xx_HAL_Driver/Src/stm32c0xx_hal_dma.c ****     /* Disable DMA IT */
ARM GAS  C:\Users\Yasi\AppData\Local\Temp\cc6toQyB.s 			page 11


 546:Drivers/STM32C0xx_HAL_Driver/Src/stm32c0xx_hal_dma.c ****     __HAL_DMA_DISABLE_IT(hdma, (DMA_IT_TC | DMA_IT_HT | DMA_IT_TE));
 547:Drivers/STM32C0xx_HAL_Driver/Src/stm32c0xx_hal_dma.c **** 
 548:Drivers/STM32C0xx_HAL_Driver/Src/stm32c0xx_hal_dma.c ****     /* Disable the channel */
 549:Drivers/STM32C0xx_HAL_Driver/Src/stm32c0xx_hal_dma.c ****     __HAL_DMA_DISABLE(hdma);
 550:Drivers/STM32C0xx_HAL_Driver/Src/stm32c0xx_hal_dma.c **** 
 551:Drivers/STM32C0xx_HAL_Driver/Src/stm32c0xx_hal_dma.c ****     /* disable the DMAMUX sync overrun IT*/
 552:Drivers/STM32C0xx_HAL_Driver/Src/stm32c0xx_hal_dma.c ****     hdma->DMAmuxChannel->CCR &= ~DMAMUX_CxCR_SOIE;
 553:Drivers/STM32C0xx_HAL_Driver/Src/stm32c0xx_hal_dma.c **** 
 554:Drivers/STM32C0xx_HAL_Driver/Src/stm32c0xx_hal_dma.c ****     /* Clear all flags */
 555:Drivers/STM32C0xx_HAL_Driver/Src/stm32c0xx_hal_dma.c ****     __HAL_DMA_CLEAR_FLAG(hdma, ((DMA_FLAG_GI1) << (hdma->ChannelIndex & 0x1cU)));
 556:Drivers/STM32C0xx_HAL_Driver/Src/stm32c0xx_hal_dma.c **** 
 557:Drivers/STM32C0xx_HAL_Driver/Src/stm32c0xx_hal_dma.c ****     /* Clear the DMAMUX synchro overrun flag */
 558:Drivers/STM32C0xx_HAL_Driver/Src/stm32c0xx_hal_dma.c ****     hdma->DMAmuxChannelStatus->CFR = hdma->DMAmuxChannelStatusMask;
 559:Drivers/STM32C0xx_HAL_Driver/Src/stm32c0xx_hal_dma.c **** 
 560:Drivers/STM32C0xx_HAL_Driver/Src/stm32c0xx_hal_dma.c ****     if (hdma->DMAmuxRequestGen != 0U)
 561:Drivers/STM32C0xx_HAL_Driver/Src/stm32c0xx_hal_dma.c ****     {
 562:Drivers/STM32C0xx_HAL_Driver/Src/stm32c0xx_hal_dma.c ****       /* if using DMAMUX request generator, disable the DMAMUX request generator overrun IT*/
 563:Drivers/STM32C0xx_HAL_Driver/Src/stm32c0xx_hal_dma.c ****       /* disable the request gen overrun IT*/
 564:Drivers/STM32C0xx_HAL_Driver/Src/stm32c0xx_hal_dma.c ****       hdma->DMAmuxRequestGen->RGCR &= ~DMAMUX_RGxCR_OIE;
 565:Drivers/STM32C0xx_HAL_Driver/Src/stm32c0xx_hal_dma.c **** 
 566:Drivers/STM32C0xx_HAL_Driver/Src/stm32c0xx_hal_dma.c ****       /* Clear the DMAMUX request generator overrun flag */
 567:Drivers/STM32C0xx_HAL_Driver/Src/stm32c0xx_hal_dma.c ****       hdma->DMAmuxRequestGenStatus->RGCFR = hdma->DMAmuxRequestGenStatusMask;
 568:Drivers/STM32C0xx_HAL_Driver/Src/stm32c0xx_hal_dma.c ****     }
 569:Drivers/STM32C0xx_HAL_Driver/Src/stm32c0xx_hal_dma.c **** 
 570:Drivers/STM32C0xx_HAL_Driver/Src/stm32c0xx_hal_dma.c ****     /* Change the DMA state */
 571:Drivers/STM32C0xx_HAL_Driver/Src/stm32c0xx_hal_dma.c ****     hdma->State = HAL_DMA_STATE_READY;
 572:Drivers/STM32C0xx_HAL_Driver/Src/stm32c0xx_hal_dma.c **** 
 573:Drivers/STM32C0xx_HAL_Driver/Src/stm32c0xx_hal_dma.c ****     /* Process Unlocked */
 574:Drivers/STM32C0xx_HAL_Driver/Src/stm32c0xx_hal_dma.c ****     __HAL_UNLOCK(hdma);
 575:Drivers/STM32C0xx_HAL_Driver/Src/stm32c0xx_hal_dma.c **** 
 576:Drivers/STM32C0xx_HAL_Driver/Src/stm32c0xx_hal_dma.c ****     /* Call User Abort callback */
 577:Drivers/STM32C0xx_HAL_Driver/Src/stm32c0xx_hal_dma.c ****     if (hdma->XferAbortCallback != NULL)
 578:Drivers/STM32C0xx_HAL_Driver/Src/stm32c0xx_hal_dma.c ****     {
 579:Drivers/STM32C0xx_HAL_Driver/Src/stm32c0xx_hal_dma.c ****       hdma->XferAbortCallback(hdma);
 580:Drivers/STM32C0xx_HAL_Driver/Src/stm32c0xx_hal_dma.c ****     }
 581:Drivers/STM32C0xx_HAL_Driver/Src/stm32c0xx_hal_dma.c ****   }
 582:Drivers/STM32C0xx_HAL_Driver/Src/stm32c0xx_hal_dma.c ****   return status;
 583:Drivers/STM32C0xx_HAL_Driver/Src/stm32c0xx_hal_dma.c **** }
 584:Drivers/STM32C0xx_HAL_Driver/Src/stm32c0xx_hal_dma.c **** 
 585:Drivers/STM32C0xx_HAL_Driver/Src/stm32c0xx_hal_dma.c **** /**
 586:Drivers/STM32C0xx_HAL_Driver/Src/stm32c0xx_hal_dma.c ****   * @brief  Polling for transfer complete.
 587:Drivers/STM32C0xx_HAL_Driver/Src/stm32c0xx_hal_dma.c ****   * @param hdma Pointer to a DMA_HandleTypeDef structure that contains
 588:Drivers/STM32C0xx_HAL_Driver/Src/stm32c0xx_hal_dma.c ****   *                  the configuration information for the specified DMA Channel.
 589:Drivers/STM32C0xx_HAL_Driver/Src/stm32c0xx_hal_dma.c ****   * @param CompleteLevel Specifies the DMA level complete.
 590:Drivers/STM32C0xx_HAL_Driver/Src/stm32c0xx_hal_dma.c ****   * @param Timeout Timeout duration.
 591:Drivers/STM32C0xx_HAL_Driver/Src/stm32c0xx_hal_dma.c ****   * @retval HAL status
 592:Drivers/STM32C0xx_HAL_Driver/Src/stm32c0xx_hal_dma.c ****   */
 593:Drivers/STM32C0xx_HAL_Driver/Src/stm32c0xx_hal_dma.c **** HAL_StatusTypeDef HAL_DMA_PollForTransfer(DMA_HandleTypeDef *hdma, HAL_DMA_LevelCompleteTypeDef Com
 594:Drivers/STM32C0xx_HAL_Driver/Src/stm32c0xx_hal_dma.c ****                                           uint32_t Timeout)
 595:Drivers/STM32C0xx_HAL_Driver/Src/stm32c0xx_hal_dma.c **** {
 596:Drivers/STM32C0xx_HAL_Driver/Src/stm32c0xx_hal_dma.c ****   uint32_t temp;
 597:Drivers/STM32C0xx_HAL_Driver/Src/stm32c0xx_hal_dma.c ****   uint32_t tickstart;
 598:Drivers/STM32C0xx_HAL_Driver/Src/stm32c0xx_hal_dma.c **** 
 599:Drivers/STM32C0xx_HAL_Driver/Src/stm32c0xx_hal_dma.c ****   /* Process unlocked */
 600:Drivers/STM32C0xx_HAL_Driver/Src/stm32c0xx_hal_dma.c ****   __HAL_UNLOCK(hdma);
 601:Drivers/STM32C0xx_HAL_Driver/Src/stm32c0xx_hal_dma.c **** 
 602:Drivers/STM32C0xx_HAL_Driver/Src/stm32c0xx_hal_dma.c ****   if (HAL_DMA_STATE_BUSY != hdma->State)
ARM GAS  C:\Users\Yasi\AppData\Local\Temp\cc6toQyB.s 			page 12


 603:Drivers/STM32C0xx_HAL_Driver/Src/stm32c0xx_hal_dma.c ****   {
 604:Drivers/STM32C0xx_HAL_Driver/Src/stm32c0xx_hal_dma.c ****     /* no transfer ongoing */
 605:Drivers/STM32C0xx_HAL_Driver/Src/stm32c0xx_hal_dma.c ****     hdma->ErrorCode = HAL_DMA_ERROR_NO_XFER;
 606:Drivers/STM32C0xx_HAL_Driver/Src/stm32c0xx_hal_dma.c ****     __HAL_UNLOCK(hdma);
 607:Drivers/STM32C0xx_HAL_Driver/Src/stm32c0xx_hal_dma.c ****     return HAL_ERROR;
 608:Drivers/STM32C0xx_HAL_Driver/Src/stm32c0xx_hal_dma.c ****   }
 609:Drivers/STM32C0xx_HAL_Driver/Src/stm32c0xx_hal_dma.c **** 
 610:Drivers/STM32C0xx_HAL_Driver/Src/stm32c0xx_hal_dma.c ****   /* Polling mode not supported in circular mode */
 611:Drivers/STM32C0xx_HAL_Driver/Src/stm32c0xx_hal_dma.c ****   if ((hdma->Instance->CCR & DMA_CCR_CIRC) != 0U)
 612:Drivers/STM32C0xx_HAL_Driver/Src/stm32c0xx_hal_dma.c ****   {
 613:Drivers/STM32C0xx_HAL_Driver/Src/stm32c0xx_hal_dma.c ****     hdma->ErrorCode = HAL_DMA_ERROR_NOT_SUPPORTED;
 614:Drivers/STM32C0xx_HAL_Driver/Src/stm32c0xx_hal_dma.c ****     return HAL_ERROR;
 615:Drivers/STM32C0xx_HAL_Driver/Src/stm32c0xx_hal_dma.c ****   }
 616:Drivers/STM32C0xx_HAL_Driver/Src/stm32c0xx_hal_dma.c **** 
 617:Drivers/STM32C0xx_HAL_Driver/Src/stm32c0xx_hal_dma.c ****   /* Get the level transfer complete flag */
 618:Drivers/STM32C0xx_HAL_Driver/Src/stm32c0xx_hal_dma.c ****   if (HAL_DMA_FULL_TRANSFER == CompleteLevel)
 619:Drivers/STM32C0xx_HAL_Driver/Src/stm32c0xx_hal_dma.c ****   {
 620:Drivers/STM32C0xx_HAL_Driver/Src/stm32c0xx_hal_dma.c ****     /* Transfer Complete flag */
 621:Drivers/STM32C0xx_HAL_Driver/Src/stm32c0xx_hal_dma.c ****     temp = DMA_FLAG_TC1 << (hdma->ChannelIndex & 0x1cU);
 622:Drivers/STM32C0xx_HAL_Driver/Src/stm32c0xx_hal_dma.c ****   }
 623:Drivers/STM32C0xx_HAL_Driver/Src/stm32c0xx_hal_dma.c ****   else
 624:Drivers/STM32C0xx_HAL_Driver/Src/stm32c0xx_hal_dma.c ****   {
 625:Drivers/STM32C0xx_HAL_Driver/Src/stm32c0xx_hal_dma.c ****     /* Half Transfer Complete flag */
 626:Drivers/STM32C0xx_HAL_Driver/Src/stm32c0xx_hal_dma.c ****     temp = DMA_FLAG_HT1 << (hdma->ChannelIndex  & 0x1cU);
 627:Drivers/STM32C0xx_HAL_Driver/Src/stm32c0xx_hal_dma.c ****   }
 628:Drivers/STM32C0xx_HAL_Driver/Src/stm32c0xx_hal_dma.c **** 
 629:Drivers/STM32C0xx_HAL_Driver/Src/stm32c0xx_hal_dma.c ****   /* Get tick */
 630:Drivers/STM32C0xx_HAL_Driver/Src/stm32c0xx_hal_dma.c ****   tickstart = HAL_GetTick();
 631:Drivers/STM32C0xx_HAL_Driver/Src/stm32c0xx_hal_dma.c **** 
 632:Drivers/STM32C0xx_HAL_Driver/Src/stm32c0xx_hal_dma.c ****   while (0U == __HAL_DMA_GET_FLAG(hdma, temp))
 633:Drivers/STM32C0xx_HAL_Driver/Src/stm32c0xx_hal_dma.c ****   {
 634:Drivers/STM32C0xx_HAL_Driver/Src/stm32c0xx_hal_dma.c ****     if (0U != __HAL_DMA_GET_FLAG(hdma, (DMA_FLAG_TE1 << (hdma->ChannelIndex & 0x1cU))))
 635:Drivers/STM32C0xx_HAL_Driver/Src/stm32c0xx_hal_dma.c ****     {
 636:Drivers/STM32C0xx_HAL_Driver/Src/stm32c0xx_hal_dma.c ****       /* When a DMA transfer error occurs */
 637:Drivers/STM32C0xx_HAL_Driver/Src/stm32c0xx_hal_dma.c ****       /* A hardware clear of its EN bits is performed */
 638:Drivers/STM32C0xx_HAL_Driver/Src/stm32c0xx_hal_dma.c ****       /* Clear all flags */
 639:Drivers/STM32C0xx_HAL_Driver/Src/stm32c0xx_hal_dma.c ****       __HAL_DMA_CLEAR_FLAG(hdma, ((DMA_FLAG_GI1) << (hdma->ChannelIndex & 0x1cU)));
 640:Drivers/STM32C0xx_HAL_Driver/Src/stm32c0xx_hal_dma.c **** 
 641:Drivers/STM32C0xx_HAL_Driver/Src/stm32c0xx_hal_dma.c ****       /* Update error code */
 642:Drivers/STM32C0xx_HAL_Driver/Src/stm32c0xx_hal_dma.c ****       hdma->ErrorCode = HAL_DMA_ERROR_TE;
 643:Drivers/STM32C0xx_HAL_Driver/Src/stm32c0xx_hal_dma.c **** 
 644:Drivers/STM32C0xx_HAL_Driver/Src/stm32c0xx_hal_dma.c ****       /* Change the DMA state */
 645:Drivers/STM32C0xx_HAL_Driver/Src/stm32c0xx_hal_dma.c ****       hdma->State = HAL_DMA_STATE_READY;
 646:Drivers/STM32C0xx_HAL_Driver/Src/stm32c0xx_hal_dma.c **** 
 647:Drivers/STM32C0xx_HAL_Driver/Src/stm32c0xx_hal_dma.c ****       /* Process Unlocked */
 648:Drivers/STM32C0xx_HAL_Driver/Src/stm32c0xx_hal_dma.c ****       __HAL_UNLOCK(hdma);
 649:Drivers/STM32C0xx_HAL_Driver/Src/stm32c0xx_hal_dma.c **** 
 650:Drivers/STM32C0xx_HAL_Driver/Src/stm32c0xx_hal_dma.c ****       return HAL_ERROR;
 651:Drivers/STM32C0xx_HAL_Driver/Src/stm32c0xx_hal_dma.c ****     }
 652:Drivers/STM32C0xx_HAL_Driver/Src/stm32c0xx_hal_dma.c ****     /* Check for the Timeout */
 653:Drivers/STM32C0xx_HAL_Driver/Src/stm32c0xx_hal_dma.c ****     if (Timeout != HAL_MAX_DELAY)
 654:Drivers/STM32C0xx_HAL_Driver/Src/stm32c0xx_hal_dma.c ****     {
 655:Drivers/STM32C0xx_HAL_Driver/Src/stm32c0xx_hal_dma.c ****       if (((HAL_GetTick() - tickstart) > Timeout) || (Timeout == 0U))
 656:Drivers/STM32C0xx_HAL_Driver/Src/stm32c0xx_hal_dma.c ****       {
 657:Drivers/STM32C0xx_HAL_Driver/Src/stm32c0xx_hal_dma.c ****         /* Update error code */
 658:Drivers/STM32C0xx_HAL_Driver/Src/stm32c0xx_hal_dma.c ****         hdma->ErrorCode = HAL_DMA_ERROR_TIMEOUT;
 659:Drivers/STM32C0xx_HAL_Driver/Src/stm32c0xx_hal_dma.c **** 
ARM GAS  C:\Users\Yasi\AppData\Local\Temp\cc6toQyB.s 			page 13


 660:Drivers/STM32C0xx_HAL_Driver/Src/stm32c0xx_hal_dma.c ****         /* Change the DMA state */
 661:Drivers/STM32C0xx_HAL_Driver/Src/stm32c0xx_hal_dma.c ****         hdma->State = HAL_DMA_STATE_READY;
 662:Drivers/STM32C0xx_HAL_Driver/Src/stm32c0xx_hal_dma.c **** 
 663:Drivers/STM32C0xx_HAL_Driver/Src/stm32c0xx_hal_dma.c ****         /* Process Unlocked */
 664:Drivers/STM32C0xx_HAL_Driver/Src/stm32c0xx_hal_dma.c ****         __HAL_UNLOCK(hdma);
 665:Drivers/STM32C0xx_HAL_Driver/Src/stm32c0xx_hal_dma.c **** 
 666:Drivers/STM32C0xx_HAL_Driver/Src/stm32c0xx_hal_dma.c ****         return HAL_ERROR;
 667:Drivers/STM32C0xx_HAL_Driver/Src/stm32c0xx_hal_dma.c ****       }
 668:Drivers/STM32C0xx_HAL_Driver/Src/stm32c0xx_hal_dma.c ****     }
 669:Drivers/STM32C0xx_HAL_Driver/Src/stm32c0xx_hal_dma.c ****   }
 670:Drivers/STM32C0xx_HAL_Driver/Src/stm32c0xx_hal_dma.c **** 
 671:Drivers/STM32C0xx_HAL_Driver/Src/stm32c0xx_hal_dma.c ****   /*Check for DMAMUX Request generator (if used) overrun status */
 672:Drivers/STM32C0xx_HAL_Driver/Src/stm32c0xx_hal_dma.c ****   if (hdma->DMAmuxRequestGen != 0U)
 673:Drivers/STM32C0xx_HAL_Driver/Src/stm32c0xx_hal_dma.c ****   {
 674:Drivers/STM32C0xx_HAL_Driver/Src/stm32c0xx_hal_dma.c ****     /* if using DMAMUX request generator Check for DMAMUX request generator overrun */
 675:Drivers/STM32C0xx_HAL_Driver/Src/stm32c0xx_hal_dma.c ****     if ((hdma->DMAmuxRequestGenStatus->RGSR & hdma->DMAmuxRequestGenStatusMask) != 0U)
 676:Drivers/STM32C0xx_HAL_Driver/Src/stm32c0xx_hal_dma.c ****     {
 677:Drivers/STM32C0xx_HAL_Driver/Src/stm32c0xx_hal_dma.c ****       /* Disable the request gen overrun interrupt */
 678:Drivers/STM32C0xx_HAL_Driver/Src/stm32c0xx_hal_dma.c ****       hdma->DMAmuxRequestGen->RGCR |= DMAMUX_RGxCR_OIE;
 679:Drivers/STM32C0xx_HAL_Driver/Src/stm32c0xx_hal_dma.c **** 
 680:Drivers/STM32C0xx_HAL_Driver/Src/stm32c0xx_hal_dma.c ****       /* Clear the DMAMUX request generator overrun flag */
 681:Drivers/STM32C0xx_HAL_Driver/Src/stm32c0xx_hal_dma.c ****       hdma->DMAmuxRequestGenStatus->RGCFR = hdma->DMAmuxRequestGenStatusMask;
 682:Drivers/STM32C0xx_HAL_Driver/Src/stm32c0xx_hal_dma.c **** 
 683:Drivers/STM32C0xx_HAL_Driver/Src/stm32c0xx_hal_dma.c ****       /* Update error code */
 684:Drivers/STM32C0xx_HAL_Driver/Src/stm32c0xx_hal_dma.c ****       hdma->ErrorCode |= HAL_DMA_ERROR_REQGEN;
 685:Drivers/STM32C0xx_HAL_Driver/Src/stm32c0xx_hal_dma.c ****     }
 686:Drivers/STM32C0xx_HAL_Driver/Src/stm32c0xx_hal_dma.c ****   }
 687:Drivers/STM32C0xx_HAL_Driver/Src/stm32c0xx_hal_dma.c **** 
 688:Drivers/STM32C0xx_HAL_Driver/Src/stm32c0xx_hal_dma.c ****   /* Check for DMAMUX Synchronization overrun */
 689:Drivers/STM32C0xx_HAL_Driver/Src/stm32c0xx_hal_dma.c ****   if ((hdma->DMAmuxChannelStatus->CSR & hdma->DMAmuxChannelStatusMask) != 0U)
 690:Drivers/STM32C0xx_HAL_Driver/Src/stm32c0xx_hal_dma.c ****   {
 691:Drivers/STM32C0xx_HAL_Driver/Src/stm32c0xx_hal_dma.c ****     /* Clear the DMAMUX synchro overrun flag */
 692:Drivers/STM32C0xx_HAL_Driver/Src/stm32c0xx_hal_dma.c ****     hdma->DMAmuxChannelStatus->CFR = hdma->DMAmuxChannelStatusMask;
 693:Drivers/STM32C0xx_HAL_Driver/Src/stm32c0xx_hal_dma.c **** 
 694:Drivers/STM32C0xx_HAL_Driver/Src/stm32c0xx_hal_dma.c ****     /* Update error code */
 695:Drivers/STM32C0xx_HAL_Driver/Src/stm32c0xx_hal_dma.c ****     hdma->ErrorCode |= HAL_DMA_ERROR_SYNC;
 696:Drivers/STM32C0xx_HAL_Driver/Src/stm32c0xx_hal_dma.c ****   }
 697:Drivers/STM32C0xx_HAL_Driver/Src/stm32c0xx_hal_dma.c **** 
 698:Drivers/STM32C0xx_HAL_Driver/Src/stm32c0xx_hal_dma.c ****   if (HAL_DMA_FULL_TRANSFER == CompleteLevel)
 699:Drivers/STM32C0xx_HAL_Driver/Src/stm32c0xx_hal_dma.c ****   {
 700:Drivers/STM32C0xx_HAL_Driver/Src/stm32c0xx_hal_dma.c ****     /* Clear the transfer complete flag */
 701:Drivers/STM32C0xx_HAL_Driver/Src/stm32c0xx_hal_dma.c ****     __HAL_DMA_CLEAR_FLAG(hdma, (DMA_FLAG_TC1 << (hdma->ChannelIndex & 0x1cU)));
 702:Drivers/STM32C0xx_HAL_Driver/Src/stm32c0xx_hal_dma.c **** 
 703:Drivers/STM32C0xx_HAL_Driver/Src/stm32c0xx_hal_dma.c ****     /* The selected Channelx EN bit is cleared (DMA is disabled and
 704:Drivers/STM32C0xx_HAL_Driver/Src/stm32c0xx_hal_dma.c ****     all transfers are complete) */
 705:Drivers/STM32C0xx_HAL_Driver/Src/stm32c0xx_hal_dma.c ****     hdma->State = HAL_DMA_STATE_READY;
 706:Drivers/STM32C0xx_HAL_Driver/Src/stm32c0xx_hal_dma.c ****   }
 707:Drivers/STM32C0xx_HAL_Driver/Src/stm32c0xx_hal_dma.c ****   else
 708:Drivers/STM32C0xx_HAL_Driver/Src/stm32c0xx_hal_dma.c ****   {
 709:Drivers/STM32C0xx_HAL_Driver/Src/stm32c0xx_hal_dma.c ****     /* Clear the half transfer complete flag */
 710:Drivers/STM32C0xx_HAL_Driver/Src/stm32c0xx_hal_dma.c ****     __HAL_DMA_CLEAR_FLAG(hdma, (DMA_FLAG_HT1 << (hdma->ChannelIndex & 0x1cU)));
 711:Drivers/STM32C0xx_HAL_Driver/Src/stm32c0xx_hal_dma.c ****   }
 712:Drivers/STM32C0xx_HAL_Driver/Src/stm32c0xx_hal_dma.c **** 
 713:Drivers/STM32C0xx_HAL_Driver/Src/stm32c0xx_hal_dma.c ****   /* Process unlocked */
 714:Drivers/STM32C0xx_HAL_Driver/Src/stm32c0xx_hal_dma.c ****   __HAL_UNLOCK(hdma);
 715:Drivers/STM32C0xx_HAL_Driver/Src/stm32c0xx_hal_dma.c **** 
 716:Drivers/STM32C0xx_HAL_Driver/Src/stm32c0xx_hal_dma.c ****   return HAL_OK;
ARM GAS  C:\Users\Yasi\AppData\Local\Temp\cc6toQyB.s 			page 14


 717:Drivers/STM32C0xx_HAL_Driver/Src/stm32c0xx_hal_dma.c **** }
 718:Drivers/STM32C0xx_HAL_Driver/Src/stm32c0xx_hal_dma.c **** 
 719:Drivers/STM32C0xx_HAL_Driver/Src/stm32c0xx_hal_dma.c **** /**
 720:Drivers/STM32C0xx_HAL_Driver/Src/stm32c0xx_hal_dma.c ****   * @brief  Handle DMA interrupt request.
 721:Drivers/STM32C0xx_HAL_Driver/Src/stm32c0xx_hal_dma.c ****   * @param  hdma: pointer to a DMA_HandleTypeDef structure that contains
 722:Drivers/STM32C0xx_HAL_Driver/Src/stm32c0xx_hal_dma.c ****   *               the configuration information for the specified DMA Channel.
 723:Drivers/STM32C0xx_HAL_Driver/Src/stm32c0xx_hal_dma.c ****   * @retval None
 724:Drivers/STM32C0xx_HAL_Driver/Src/stm32c0xx_hal_dma.c ****   */
 725:Drivers/STM32C0xx_HAL_Driver/Src/stm32c0xx_hal_dma.c **** void HAL_DMA_IRQHandler(DMA_HandleTypeDef *hdma)
 726:Drivers/STM32C0xx_HAL_Driver/Src/stm32c0xx_hal_dma.c **** {
 727:Drivers/STM32C0xx_HAL_Driver/Src/stm32c0xx_hal_dma.c ****   uint32_t flag_it = DMA1->ISR;
 728:Drivers/STM32C0xx_HAL_Driver/Src/stm32c0xx_hal_dma.c ****   uint32_t source_it = hdma->Instance->CCR;
 729:Drivers/STM32C0xx_HAL_Driver/Src/stm32c0xx_hal_dma.c **** 
 730:Drivers/STM32C0xx_HAL_Driver/Src/stm32c0xx_hal_dma.c ****   /* Half Transfer Complete Interrupt management ******************************/
 731:Drivers/STM32C0xx_HAL_Driver/Src/stm32c0xx_hal_dma.c ****   if (((flag_it & (DMA_FLAG_HT1 << (hdma->ChannelIndex & 0x1cU))) != 0U) && ((source_it & DMA_IT_HT
 732:Drivers/STM32C0xx_HAL_Driver/Src/stm32c0xx_hal_dma.c ****   {
 733:Drivers/STM32C0xx_HAL_Driver/Src/stm32c0xx_hal_dma.c ****     /* Disable the half transfer interrupt if the DMA mode is not CIRCULAR */
 734:Drivers/STM32C0xx_HAL_Driver/Src/stm32c0xx_hal_dma.c ****     if ((hdma->Instance->CCR & DMA_CCR_CIRC) == 0U)
 735:Drivers/STM32C0xx_HAL_Driver/Src/stm32c0xx_hal_dma.c ****     {
 736:Drivers/STM32C0xx_HAL_Driver/Src/stm32c0xx_hal_dma.c ****       /* Disable the half transfer interrupt */
 737:Drivers/STM32C0xx_HAL_Driver/Src/stm32c0xx_hal_dma.c ****       __HAL_DMA_DISABLE_IT(hdma, DMA_IT_HT);
 738:Drivers/STM32C0xx_HAL_Driver/Src/stm32c0xx_hal_dma.c ****     }
 739:Drivers/STM32C0xx_HAL_Driver/Src/stm32c0xx_hal_dma.c ****     /* Clear the half transfer complete flag */
 740:Drivers/STM32C0xx_HAL_Driver/Src/stm32c0xx_hal_dma.c ****     __HAL_DMA_CLEAR_FLAG(hdma, (DMA_FLAG_HT1 << (hdma->ChannelIndex & 0x1cU)));
 741:Drivers/STM32C0xx_HAL_Driver/Src/stm32c0xx_hal_dma.c **** 
 742:Drivers/STM32C0xx_HAL_Driver/Src/stm32c0xx_hal_dma.c ****     /* DMA peripheral state is not updated in Half Transfer */
 743:Drivers/STM32C0xx_HAL_Driver/Src/stm32c0xx_hal_dma.c ****     /* but in Transfer Complete case */
 744:Drivers/STM32C0xx_HAL_Driver/Src/stm32c0xx_hal_dma.c **** 
 745:Drivers/STM32C0xx_HAL_Driver/Src/stm32c0xx_hal_dma.c ****     if (hdma->XferHalfCpltCallback != NULL)
 746:Drivers/STM32C0xx_HAL_Driver/Src/stm32c0xx_hal_dma.c ****     {
 747:Drivers/STM32C0xx_HAL_Driver/Src/stm32c0xx_hal_dma.c ****       /* Half transfer callback */
 748:Drivers/STM32C0xx_HAL_Driver/Src/stm32c0xx_hal_dma.c ****       hdma->XferHalfCpltCallback(hdma);
 749:Drivers/STM32C0xx_HAL_Driver/Src/stm32c0xx_hal_dma.c ****     }
 750:Drivers/STM32C0xx_HAL_Driver/Src/stm32c0xx_hal_dma.c ****   }
 751:Drivers/STM32C0xx_HAL_Driver/Src/stm32c0xx_hal_dma.c **** 
 752:Drivers/STM32C0xx_HAL_Driver/Src/stm32c0xx_hal_dma.c ****   /* Transfer Complete Interrupt management ***********************************/
 753:Drivers/STM32C0xx_HAL_Driver/Src/stm32c0xx_hal_dma.c ****   else if ((0U != (flag_it & (DMA_FLAG_TC1 << (hdma->ChannelIndex & 0x1cU)))) && (0U != (source_it 
 754:Drivers/STM32C0xx_HAL_Driver/Src/stm32c0xx_hal_dma.c ****   {
 755:Drivers/STM32C0xx_HAL_Driver/Src/stm32c0xx_hal_dma.c ****     if ((hdma->Instance->CCR & DMA_CCR_CIRC) == 0U)
 756:Drivers/STM32C0xx_HAL_Driver/Src/stm32c0xx_hal_dma.c ****     {
 757:Drivers/STM32C0xx_HAL_Driver/Src/stm32c0xx_hal_dma.c ****       /* Disable the transfer complete and error interrupt */
 758:Drivers/STM32C0xx_HAL_Driver/Src/stm32c0xx_hal_dma.c ****       __HAL_DMA_DISABLE_IT(hdma, DMA_IT_TE | DMA_IT_TC);
 759:Drivers/STM32C0xx_HAL_Driver/Src/stm32c0xx_hal_dma.c **** 
 760:Drivers/STM32C0xx_HAL_Driver/Src/stm32c0xx_hal_dma.c ****       /* Change the DMA state */
 761:Drivers/STM32C0xx_HAL_Driver/Src/stm32c0xx_hal_dma.c ****       hdma->State = HAL_DMA_STATE_READY;
 762:Drivers/STM32C0xx_HAL_Driver/Src/stm32c0xx_hal_dma.c ****     }
 763:Drivers/STM32C0xx_HAL_Driver/Src/stm32c0xx_hal_dma.c ****     /* Clear the transfer complete flag */
 764:Drivers/STM32C0xx_HAL_Driver/Src/stm32c0xx_hal_dma.c ****     __HAL_DMA_CLEAR_FLAG(hdma, (DMA_FLAG_TC1 << (hdma->ChannelIndex & 0x1cU)));
 765:Drivers/STM32C0xx_HAL_Driver/Src/stm32c0xx_hal_dma.c **** 
 766:Drivers/STM32C0xx_HAL_Driver/Src/stm32c0xx_hal_dma.c ****     /* Process Unlocked */
 767:Drivers/STM32C0xx_HAL_Driver/Src/stm32c0xx_hal_dma.c ****     __HAL_UNLOCK(hdma);
 768:Drivers/STM32C0xx_HAL_Driver/Src/stm32c0xx_hal_dma.c **** 
 769:Drivers/STM32C0xx_HAL_Driver/Src/stm32c0xx_hal_dma.c ****     if (hdma->XferCpltCallback != NULL)
 770:Drivers/STM32C0xx_HAL_Driver/Src/stm32c0xx_hal_dma.c ****     {
 771:Drivers/STM32C0xx_HAL_Driver/Src/stm32c0xx_hal_dma.c ****       /* Transfer complete callback */
 772:Drivers/STM32C0xx_HAL_Driver/Src/stm32c0xx_hal_dma.c ****       hdma->XferCpltCallback(hdma);
 773:Drivers/STM32C0xx_HAL_Driver/Src/stm32c0xx_hal_dma.c ****     }
ARM GAS  C:\Users\Yasi\AppData\Local\Temp\cc6toQyB.s 			page 15


 774:Drivers/STM32C0xx_HAL_Driver/Src/stm32c0xx_hal_dma.c ****   }
 775:Drivers/STM32C0xx_HAL_Driver/Src/stm32c0xx_hal_dma.c **** 
 776:Drivers/STM32C0xx_HAL_Driver/Src/stm32c0xx_hal_dma.c ****   /* Transfer Error Interrupt management **************************************/
 777:Drivers/STM32C0xx_HAL_Driver/Src/stm32c0xx_hal_dma.c ****   else if (((flag_it & (DMA_FLAG_TE1 << (hdma->ChannelIndex & 0x1cU))) != 0U) && ((source_it & DMA_
 778:Drivers/STM32C0xx_HAL_Driver/Src/stm32c0xx_hal_dma.c ****   {
 779:Drivers/STM32C0xx_HAL_Driver/Src/stm32c0xx_hal_dma.c ****     /* When a DMA transfer error occurs */
 780:Drivers/STM32C0xx_HAL_Driver/Src/stm32c0xx_hal_dma.c ****     /* A hardware clear of its EN bits is performed */
 781:Drivers/STM32C0xx_HAL_Driver/Src/stm32c0xx_hal_dma.c ****     /* Disable ALL DMA IT */
 782:Drivers/STM32C0xx_HAL_Driver/Src/stm32c0xx_hal_dma.c ****     __HAL_DMA_DISABLE_IT(hdma, (DMA_IT_TC | DMA_IT_HT | DMA_IT_TE));
 783:Drivers/STM32C0xx_HAL_Driver/Src/stm32c0xx_hal_dma.c **** 
 784:Drivers/STM32C0xx_HAL_Driver/Src/stm32c0xx_hal_dma.c ****     /* Clear all flags */
 785:Drivers/STM32C0xx_HAL_Driver/Src/stm32c0xx_hal_dma.c ****     __HAL_DMA_CLEAR_FLAG(hdma, (DMA_FLAG_GI1 << (hdma->ChannelIndex & 0x1cU)));
 786:Drivers/STM32C0xx_HAL_Driver/Src/stm32c0xx_hal_dma.c **** 
 787:Drivers/STM32C0xx_HAL_Driver/Src/stm32c0xx_hal_dma.c ****     /* Update error code */
 788:Drivers/STM32C0xx_HAL_Driver/Src/stm32c0xx_hal_dma.c ****     hdma->ErrorCode = HAL_DMA_ERROR_TE;
 789:Drivers/STM32C0xx_HAL_Driver/Src/stm32c0xx_hal_dma.c **** 
 790:Drivers/STM32C0xx_HAL_Driver/Src/stm32c0xx_hal_dma.c ****     /* Change the DMA state */
 791:Drivers/STM32C0xx_HAL_Driver/Src/stm32c0xx_hal_dma.c ****     hdma->State = HAL_DMA_STATE_READY;
 792:Drivers/STM32C0xx_HAL_Driver/Src/stm32c0xx_hal_dma.c **** 
 793:Drivers/STM32C0xx_HAL_Driver/Src/stm32c0xx_hal_dma.c ****     /* Process Unlocked */
 794:Drivers/STM32C0xx_HAL_Driver/Src/stm32c0xx_hal_dma.c ****     __HAL_UNLOCK(hdma);
 795:Drivers/STM32C0xx_HAL_Driver/Src/stm32c0xx_hal_dma.c **** 
 796:Drivers/STM32C0xx_HAL_Driver/Src/stm32c0xx_hal_dma.c ****     if (hdma->XferErrorCallback != NULL)
 797:Drivers/STM32C0xx_HAL_Driver/Src/stm32c0xx_hal_dma.c ****     {
 798:Drivers/STM32C0xx_HAL_Driver/Src/stm32c0xx_hal_dma.c ****       /* Transfer error callback */
 799:Drivers/STM32C0xx_HAL_Driver/Src/stm32c0xx_hal_dma.c ****       hdma->XferErrorCallback(hdma);
 800:Drivers/STM32C0xx_HAL_Driver/Src/stm32c0xx_hal_dma.c ****     }
 801:Drivers/STM32C0xx_HAL_Driver/Src/stm32c0xx_hal_dma.c ****   }
 802:Drivers/STM32C0xx_HAL_Driver/Src/stm32c0xx_hal_dma.c ****   else
 803:Drivers/STM32C0xx_HAL_Driver/Src/stm32c0xx_hal_dma.c ****   {
 804:Drivers/STM32C0xx_HAL_Driver/Src/stm32c0xx_hal_dma.c ****     /* Nothing To Do */
 805:Drivers/STM32C0xx_HAL_Driver/Src/stm32c0xx_hal_dma.c ****   }
 806:Drivers/STM32C0xx_HAL_Driver/Src/stm32c0xx_hal_dma.c ****   return;
 807:Drivers/STM32C0xx_HAL_Driver/Src/stm32c0xx_hal_dma.c **** }
 808:Drivers/STM32C0xx_HAL_Driver/Src/stm32c0xx_hal_dma.c **** 
 809:Drivers/STM32C0xx_HAL_Driver/Src/stm32c0xx_hal_dma.c **** /**
 810:Drivers/STM32C0xx_HAL_Driver/Src/stm32c0xx_hal_dma.c ****   * @brief  Register callbacks
 811:Drivers/STM32C0xx_HAL_Driver/Src/stm32c0xx_hal_dma.c ****   * @param  hdma                  pointer to a DMA_HandleTypeDef structure that contains
 812:Drivers/STM32C0xx_HAL_Driver/Src/stm32c0xx_hal_dma.c ****   *                               the configuration information for the specified DMA Stream.
 813:Drivers/STM32C0xx_HAL_Driver/Src/stm32c0xx_hal_dma.c ****   * @param  CallbackID            User Callback identifier
 814:Drivers/STM32C0xx_HAL_Driver/Src/stm32c0xx_hal_dma.c ****   *                               a HAL_DMA_CallbackIDTypeDef ENUM as parameter.
 815:Drivers/STM32C0xx_HAL_Driver/Src/stm32c0xx_hal_dma.c ****   * @param  pCallback             pointer to private callback function which has pointer to
 816:Drivers/STM32C0xx_HAL_Driver/Src/stm32c0xx_hal_dma.c ****   *                               a DMA_HandleTypeDef structure as parameter.
 817:Drivers/STM32C0xx_HAL_Driver/Src/stm32c0xx_hal_dma.c ****   * @retval HAL status
 818:Drivers/STM32C0xx_HAL_Driver/Src/stm32c0xx_hal_dma.c ****   */
 819:Drivers/STM32C0xx_HAL_Driver/Src/stm32c0xx_hal_dma.c **** HAL_StatusTypeDef HAL_DMA_RegisterCallback(DMA_HandleTypeDef *hdma, HAL_DMA_CallbackIDTypeDef Callb
 820:Drivers/STM32C0xx_HAL_Driver/Src/stm32c0xx_hal_dma.c ****                                            void (* pCallback)(DMA_HandleTypeDef *_hdma))
 821:Drivers/STM32C0xx_HAL_Driver/Src/stm32c0xx_hal_dma.c **** {
 822:Drivers/STM32C0xx_HAL_Driver/Src/stm32c0xx_hal_dma.c ****   HAL_StatusTypeDef status = HAL_OK;
 823:Drivers/STM32C0xx_HAL_Driver/Src/stm32c0xx_hal_dma.c **** 
 824:Drivers/STM32C0xx_HAL_Driver/Src/stm32c0xx_hal_dma.c ****   /* Process locked */
 825:Drivers/STM32C0xx_HAL_Driver/Src/stm32c0xx_hal_dma.c ****   __HAL_LOCK(hdma);
 826:Drivers/STM32C0xx_HAL_Driver/Src/stm32c0xx_hal_dma.c **** 
 827:Drivers/STM32C0xx_HAL_Driver/Src/stm32c0xx_hal_dma.c ****   if (HAL_DMA_STATE_READY == hdma->State)
 828:Drivers/STM32C0xx_HAL_Driver/Src/stm32c0xx_hal_dma.c ****   {
 829:Drivers/STM32C0xx_HAL_Driver/Src/stm32c0xx_hal_dma.c ****     switch (CallbackID)
 830:Drivers/STM32C0xx_HAL_Driver/Src/stm32c0xx_hal_dma.c ****     {
ARM GAS  C:\Users\Yasi\AppData\Local\Temp\cc6toQyB.s 			page 16


 831:Drivers/STM32C0xx_HAL_Driver/Src/stm32c0xx_hal_dma.c ****       case  HAL_DMA_XFER_CPLT_CB_ID:
 832:Drivers/STM32C0xx_HAL_Driver/Src/stm32c0xx_hal_dma.c ****         hdma->XferCpltCallback = pCallback;
 833:Drivers/STM32C0xx_HAL_Driver/Src/stm32c0xx_hal_dma.c ****         break;
 834:Drivers/STM32C0xx_HAL_Driver/Src/stm32c0xx_hal_dma.c **** 
 835:Drivers/STM32C0xx_HAL_Driver/Src/stm32c0xx_hal_dma.c ****       case  HAL_DMA_XFER_HALFCPLT_CB_ID:
 836:Drivers/STM32C0xx_HAL_Driver/Src/stm32c0xx_hal_dma.c ****         hdma->XferHalfCpltCallback = pCallback;
 837:Drivers/STM32C0xx_HAL_Driver/Src/stm32c0xx_hal_dma.c ****         break;
 838:Drivers/STM32C0xx_HAL_Driver/Src/stm32c0xx_hal_dma.c **** 
 839:Drivers/STM32C0xx_HAL_Driver/Src/stm32c0xx_hal_dma.c ****       case  HAL_DMA_XFER_ERROR_CB_ID:
 840:Drivers/STM32C0xx_HAL_Driver/Src/stm32c0xx_hal_dma.c ****         hdma->XferErrorCallback = pCallback;
 841:Drivers/STM32C0xx_HAL_Driver/Src/stm32c0xx_hal_dma.c ****         break;
 842:Drivers/STM32C0xx_HAL_Driver/Src/stm32c0xx_hal_dma.c **** 
 843:Drivers/STM32C0xx_HAL_Driver/Src/stm32c0xx_hal_dma.c ****       case  HAL_DMA_XFER_ABORT_CB_ID:
 844:Drivers/STM32C0xx_HAL_Driver/Src/stm32c0xx_hal_dma.c ****         hdma->XferAbortCallback = pCallback;
 845:Drivers/STM32C0xx_HAL_Driver/Src/stm32c0xx_hal_dma.c ****         break;
 846:Drivers/STM32C0xx_HAL_Driver/Src/stm32c0xx_hal_dma.c **** 
 847:Drivers/STM32C0xx_HAL_Driver/Src/stm32c0xx_hal_dma.c ****       default:
 848:Drivers/STM32C0xx_HAL_Driver/Src/stm32c0xx_hal_dma.c ****         status = HAL_ERROR;
 849:Drivers/STM32C0xx_HAL_Driver/Src/stm32c0xx_hal_dma.c ****         break;
 850:Drivers/STM32C0xx_HAL_Driver/Src/stm32c0xx_hal_dma.c ****     }
 851:Drivers/STM32C0xx_HAL_Driver/Src/stm32c0xx_hal_dma.c ****   }
 852:Drivers/STM32C0xx_HAL_Driver/Src/stm32c0xx_hal_dma.c ****   else
 853:Drivers/STM32C0xx_HAL_Driver/Src/stm32c0xx_hal_dma.c ****   {
 854:Drivers/STM32C0xx_HAL_Driver/Src/stm32c0xx_hal_dma.c ****     status = HAL_ERROR;
 855:Drivers/STM32C0xx_HAL_Driver/Src/stm32c0xx_hal_dma.c ****   }
 856:Drivers/STM32C0xx_HAL_Driver/Src/stm32c0xx_hal_dma.c **** 
 857:Drivers/STM32C0xx_HAL_Driver/Src/stm32c0xx_hal_dma.c ****   /* Release Lock */
 858:Drivers/STM32C0xx_HAL_Driver/Src/stm32c0xx_hal_dma.c ****   __HAL_UNLOCK(hdma);
 859:Drivers/STM32C0xx_HAL_Driver/Src/stm32c0xx_hal_dma.c **** 
 860:Drivers/STM32C0xx_HAL_Driver/Src/stm32c0xx_hal_dma.c ****   return status;
 861:Drivers/STM32C0xx_HAL_Driver/Src/stm32c0xx_hal_dma.c **** }
 862:Drivers/STM32C0xx_HAL_Driver/Src/stm32c0xx_hal_dma.c **** 
 863:Drivers/STM32C0xx_HAL_Driver/Src/stm32c0xx_hal_dma.c **** /**
 864:Drivers/STM32C0xx_HAL_Driver/Src/stm32c0xx_hal_dma.c ****   * @brief  UnRegister callbacks
 865:Drivers/STM32C0xx_HAL_Driver/Src/stm32c0xx_hal_dma.c ****   * @param  hdma                  pointer to a DMA_HandleTypeDef structure that contains
 866:Drivers/STM32C0xx_HAL_Driver/Src/stm32c0xx_hal_dma.c ****   *                               the configuration information for the specified DMA Stream.
 867:Drivers/STM32C0xx_HAL_Driver/Src/stm32c0xx_hal_dma.c ****   * @param  CallbackID            User Callback identifier
 868:Drivers/STM32C0xx_HAL_Driver/Src/stm32c0xx_hal_dma.c ****   *                               a HAL_DMA_CallbackIDTypeDef ENUM as parameter.
 869:Drivers/STM32C0xx_HAL_Driver/Src/stm32c0xx_hal_dma.c ****   * @retval HAL status
 870:Drivers/STM32C0xx_HAL_Driver/Src/stm32c0xx_hal_dma.c ****   */
 871:Drivers/STM32C0xx_HAL_Driver/Src/stm32c0xx_hal_dma.c **** HAL_StatusTypeDef HAL_DMA_UnRegisterCallback(DMA_HandleTypeDef *hdma, HAL_DMA_CallbackIDTypeDef Cal
 872:Drivers/STM32C0xx_HAL_Driver/Src/stm32c0xx_hal_dma.c **** {
 873:Drivers/STM32C0xx_HAL_Driver/Src/stm32c0xx_hal_dma.c ****   HAL_StatusTypeDef status = HAL_OK;
 874:Drivers/STM32C0xx_HAL_Driver/Src/stm32c0xx_hal_dma.c **** 
 875:Drivers/STM32C0xx_HAL_Driver/Src/stm32c0xx_hal_dma.c ****   /* Process locked */
 876:Drivers/STM32C0xx_HAL_Driver/Src/stm32c0xx_hal_dma.c ****   __HAL_LOCK(hdma);
 877:Drivers/STM32C0xx_HAL_Driver/Src/stm32c0xx_hal_dma.c **** 
 878:Drivers/STM32C0xx_HAL_Driver/Src/stm32c0xx_hal_dma.c ****   if (HAL_DMA_STATE_READY == hdma->State)
 879:Drivers/STM32C0xx_HAL_Driver/Src/stm32c0xx_hal_dma.c ****   {
 880:Drivers/STM32C0xx_HAL_Driver/Src/stm32c0xx_hal_dma.c ****     switch (CallbackID)
 881:Drivers/STM32C0xx_HAL_Driver/Src/stm32c0xx_hal_dma.c ****     {
 882:Drivers/STM32C0xx_HAL_Driver/Src/stm32c0xx_hal_dma.c ****       case  HAL_DMA_XFER_CPLT_CB_ID:
 883:Drivers/STM32C0xx_HAL_Driver/Src/stm32c0xx_hal_dma.c ****         hdma->XferCpltCallback = NULL;
 884:Drivers/STM32C0xx_HAL_Driver/Src/stm32c0xx_hal_dma.c ****         break;
 885:Drivers/STM32C0xx_HAL_Driver/Src/stm32c0xx_hal_dma.c **** 
 886:Drivers/STM32C0xx_HAL_Driver/Src/stm32c0xx_hal_dma.c ****       case  HAL_DMA_XFER_HALFCPLT_CB_ID:
 887:Drivers/STM32C0xx_HAL_Driver/Src/stm32c0xx_hal_dma.c ****         hdma->XferHalfCpltCallback = NULL;
ARM GAS  C:\Users\Yasi\AppData\Local\Temp\cc6toQyB.s 			page 17


 888:Drivers/STM32C0xx_HAL_Driver/Src/stm32c0xx_hal_dma.c ****         break;
 889:Drivers/STM32C0xx_HAL_Driver/Src/stm32c0xx_hal_dma.c **** 
 890:Drivers/STM32C0xx_HAL_Driver/Src/stm32c0xx_hal_dma.c ****       case  HAL_DMA_XFER_ERROR_CB_ID:
 891:Drivers/STM32C0xx_HAL_Driver/Src/stm32c0xx_hal_dma.c ****         hdma->XferErrorCallback = NULL;
 892:Drivers/STM32C0xx_HAL_Driver/Src/stm32c0xx_hal_dma.c ****         break;
 893:Drivers/STM32C0xx_HAL_Driver/Src/stm32c0xx_hal_dma.c **** 
 894:Drivers/STM32C0xx_HAL_Driver/Src/stm32c0xx_hal_dma.c ****       case  HAL_DMA_XFER_ABORT_CB_ID:
 895:Drivers/STM32C0xx_HAL_Driver/Src/stm32c0xx_hal_dma.c ****         hdma->XferAbortCallback = NULL;
 896:Drivers/STM32C0xx_HAL_Driver/Src/stm32c0xx_hal_dma.c ****         break;
 897:Drivers/STM32C0xx_HAL_Driver/Src/stm32c0xx_hal_dma.c **** 
 898:Drivers/STM32C0xx_HAL_Driver/Src/stm32c0xx_hal_dma.c ****       case   HAL_DMA_XFER_ALL_CB_ID:
 899:Drivers/STM32C0xx_HAL_Driver/Src/stm32c0xx_hal_dma.c ****         hdma->XferCpltCallback = NULL;
 900:Drivers/STM32C0xx_HAL_Driver/Src/stm32c0xx_hal_dma.c ****         hdma->XferHalfCpltCallback = NULL;
 901:Drivers/STM32C0xx_HAL_Driver/Src/stm32c0xx_hal_dma.c ****         hdma->XferErrorCallback = NULL;
 902:Drivers/STM32C0xx_HAL_Driver/Src/stm32c0xx_hal_dma.c ****         hdma->XferAbortCallback = NULL;
 903:Drivers/STM32C0xx_HAL_Driver/Src/stm32c0xx_hal_dma.c ****         break;
 904:Drivers/STM32C0xx_HAL_Driver/Src/stm32c0xx_hal_dma.c **** 
 905:Drivers/STM32C0xx_HAL_Driver/Src/stm32c0xx_hal_dma.c ****       default:
 906:Drivers/STM32C0xx_HAL_Driver/Src/stm32c0xx_hal_dma.c ****         status = HAL_ERROR;
 907:Drivers/STM32C0xx_HAL_Driver/Src/stm32c0xx_hal_dma.c ****         break;
 908:Drivers/STM32C0xx_HAL_Driver/Src/stm32c0xx_hal_dma.c ****     }
 909:Drivers/STM32C0xx_HAL_Driver/Src/stm32c0xx_hal_dma.c ****   }
 910:Drivers/STM32C0xx_HAL_Driver/Src/stm32c0xx_hal_dma.c ****   else
 911:Drivers/STM32C0xx_HAL_Driver/Src/stm32c0xx_hal_dma.c ****   {
 912:Drivers/STM32C0xx_HAL_Driver/Src/stm32c0xx_hal_dma.c ****     status = HAL_ERROR;
 913:Drivers/STM32C0xx_HAL_Driver/Src/stm32c0xx_hal_dma.c ****   }
 914:Drivers/STM32C0xx_HAL_Driver/Src/stm32c0xx_hal_dma.c **** 
 915:Drivers/STM32C0xx_HAL_Driver/Src/stm32c0xx_hal_dma.c ****   /* Release Lock */
 916:Drivers/STM32C0xx_HAL_Driver/Src/stm32c0xx_hal_dma.c ****   __HAL_UNLOCK(hdma);
 917:Drivers/STM32C0xx_HAL_Driver/Src/stm32c0xx_hal_dma.c **** 
 918:Drivers/STM32C0xx_HAL_Driver/Src/stm32c0xx_hal_dma.c ****   return status;
 919:Drivers/STM32C0xx_HAL_Driver/Src/stm32c0xx_hal_dma.c **** }
 920:Drivers/STM32C0xx_HAL_Driver/Src/stm32c0xx_hal_dma.c **** 
 921:Drivers/STM32C0xx_HAL_Driver/Src/stm32c0xx_hal_dma.c **** /**
 922:Drivers/STM32C0xx_HAL_Driver/Src/stm32c0xx_hal_dma.c ****   * @}
 923:Drivers/STM32C0xx_HAL_Driver/Src/stm32c0xx_hal_dma.c ****   */
 924:Drivers/STM32C0xx_HAL_Driver/Src/stm32c0xx_hal_dma.c **** 
 925:Drivers/STM32C0xx_HAL_Driver/Src/stm32c0xx_hal_dma.c **** 
 926:Drivers/STM32C0xx_HAL_Driver/Src/stm32c0xx_hal_dma.c **** 
 927:Drivers/STM32C0xx_HAL_Driver/Src/stm32c0xx_hal_dma.c **** /** @defgroup DMA_Exported_Functions_Group3 Peripheral State and Errors functions
 928:Drivers/STM32C0xx_HAL_Driver/Src/stm32c0xx_hal_dma.c ****   *  @brief    Peripheral State and Errors functions
 929:Drivers/STM32C0xx_HAL_Driver/Src/stm32c0xx_hal_dma.c ****   *
 930:Drivers/STM32C0xx_HAL_Driver/Src/stm32c0xx_hal_dma.c **** @verbatim
 931:Drivers/STM32C0xx_HAL_Driver/Src/stm32c0xx_hal_dma.c ****  ===============================================================================
 932:Drivers/STM32C0xx_HAL_Driver/Src/stm32c0xx_hal_dma.c ****             ##### Peripheral State and Errors functions #####
 933:Drivers/STM32C0xx_HAL_Driver/Src/stm32c0xx_hal_dma.c ****  ===============================================================================
 934:Drivers/STM32C0xx_HAL_Driver/Src/stm32c0xx_hal_dma.c ****     [..]
 935:Drivers/STM32C0xx_HAL_Driver/Src/stm32c0xx_hal_dma.c ****     This subsection provides functions allowing to
 936:Drivers/STM32C0xx_HAL_Driver/Src/stm32c0xx_hal_dma.c ****       (+) Check the DMA state
 937:Drivers/STM32C0xx_HAL_Driver/Src/stm32c0xx_hal_dma.c ****       (+) Get error code
 938:Drivers/STM32C0xx_HAL_Driver/Src/stm32c0xx_hal_dma.c **** 
 939:Drivers/STM32C0xx_HAL_Driver/Src/stm32c0xx_hal_dma.c **** @endverbatim
 940:Drivers/STM32C0xx_HAL_Driver/Src/stm32c0xx_hal_dma.c ****   * @{
 941:Drivers/STM32C0xx_HAL_Driver/Src/stm32c0xx_hal_dma.c ****   */
 942:Drivers/STM32C0xx_HAL_Driver/Src/stm32c0xx_hal_dma.c **** 
 943:Drivers/STM32C0xx_HAL_Driver/Src/stm32c0xx_hal_dma.c **** /**
 944:Drivers/STM32C0xx_HAL_Driver/Src/stm32c0xx_hal_dma.c ****   * @brief  Return the DMA handle state.
ARM GAS  C:\Users\Yasi\AppData\Local\Temp\cc6toQyB.s 			page 18


 945:Drivers/STM32C0xx_HAL_Driver/Src/stm32c0xx_hal_dma.c ****   * @param hdma Pointer to a DMA_HandleTypeDef structure that contains
 946:Drivers/STM32C0xx_HAL_Driver/Src/stm32c0xx_hal_dma.c ****   *               the configuration information for the specified DMA Channel.
 947:Drivers/STM32C0xx_HAL_Driver/Src/stm32c0xx_hal_dma.c ****   * @retval HAL state
 948:Drivers/STM32C0xx_HAL_Driver/Src/stm32c0xx_hal_dma.c ****   */
 949:Drivers/STM32C0xx_HAL_Driver/Src/stm32c0xx_hal_dma.c **** HAL_DMA_StateTypeDef HAL_DMA_GetState(DMA_HandleTypeDef *hdma)
 950:Drivers/STM32C0xx_HAL_Driver/Src/stm32c0xx_hal_dma.c **** {
 951:Drivers/STM32C0xx_HAL_Driver/Src/stm32c0xx_hal_dma.c ****   /* Return DMA handle state */
 952:Drivers/STM32C0xx_HAL_Driver/Src/stm32c0xx_hal_dma.c ****   return hdma->State;
 953:Drivers/STM32C0xx_HAL_Driver/Src/stm32c0xx_hal_dma.c **** }
 954:Drivers/STM32C0xx_HAL_Driver/Src/stm32c0xx_hal_dma.c **** 
 955:Drivers/STM32C0xx_HAL_Driver/Src/stm32c0xx_hal_dma.c **** /**
 956:Drivers/STM32C0xx_HAL_Driver/Src/stm32c0xx_hal_dma.c ****   * @brief  Return the DMA error code.
 957:Drivers/STM32C0xx_HAL_Driver/Src/stm32c0xx_hal_dma.c ****   * @param  hdma Pointer to a DMA_HandleTypeDef structure that contains
 958:Drivers/STM32C0xx_HAL_Driver/Src/stm32c0xx_hal_dma.c ****   *              the configuration information for the specified DMA Channel.
 959:Drivers/STM32C0xx_HAL_Driver/Src/stm32c0xx_hal_dma.c ****   * @retval DMA Error Code
 960:Drivers/STM32C0xx_HAL_Driver/Src/stm32c0xx_hal_dma.c ****   */
 961:Drivers/STM32C0xx_HAL_Driver/Src/stm32c0xx_hal_dma.c **** uint32_t HAL_DMA_GetError(DMA_HandleTypeDef *hdma)
 962:Drivers/STM32C0xx_HAL_Driver/Src/stm32c0xx_hal_dma.c **** {
 963:Drivers/STM32C0xx_HAL_Driver/Src/stm32c0xx_hal_dma.c ****   return hdma->ErrorCode;
 964:Drivers/STM32C0xx_HAL_Driver/Src/stm32c0xx_hal_dma.c **** }
 965:Drivers/STM32C0xx_HAL_Driver/Src/stm32c0xx_hal_dma.c **** 
 966:Drivers/STM32C0xx_HAL_Driver/Src/stm32c0xx_hal_dma.c **** /**
 967:Drivers/STM32C0xx_HAL_Driver/Src/stm32c0xx_hal_dma.c ****   * @}
 968:Drivers/STM32C0xx_HAL_Driver/Src/stm32c0xx_hal_dma.c ****   */
 969:Drivers/STM32C0xx_HAL_Driver/Src/stm32c0xx_hal_dma.c **** 
 970:Drivers/STM32C0xx_HAL_Driver/Src/stm32c0xx_hal_dma.c **** /**
 971:Drivers/STM32C0xx_HAL_Driver/Src/stm32c0xx_hal_dma.c ****   * @}
 972:Drivers/STM32C0xx_HAL_Driver/Src/stm32c0xx_hal_dma.c ****   */
 973:Drivers/STM32C0xx_HAL_Driver/Src/stm32c0xx_hal_dma.c **** 
 974:Drivers/STM32C0xx_HAL_Driver/Src/stm32c0xx_hal_dma.c **** /** @addtogroup DMA_Private_Functions
 975:Drivers/STM32C0xx_HAL_Driver/Src/stm32c0xx_hal_dma.c ****   * @{
 976:Drivers/STM32C0xx_HAL_Driver/Src/stm32c0xx_hal_dma.c ****   */
 977:Drivers/STM32C0xx_HAL_Driver/Src/stm32c0xx_hal_dma.c **** 
 978:Drivers/STM32C0xx_HAL_Driver/Src/stm32c0xx_hal_dma.c **** /**
 979:Drivers/STM32C0xx_HAL_Driver/Src/stm32c0xx_hal_dma.c ****   * @brief  Sets the DMA Transfer parameter.
 980:Drivers/STM32C0xx_HAL_Driver/Src/stm32c0xx_hal_dma.c ****   * @param hdma Pointer to a DMA_HandleTypeDef structure that contains
 981:Drivers/STM32C0xx_HAL_Driver/Src/stm32c0xx_hal_dma.c ****   *                     the configuration information for the specified DMA Channel.
 982:Drivers/STM32C0xx_HAL_Driver/Src/stm32c0xx_hal_dma.c ****   * @param SrcAddress The source memory Buffer address
 983:Drivers/STM32C0xx_HAL_Driver/Src/stm32c0xx_hal_dma.c ****   * @param DstAddress The destination memory Buffer address
 984:Drivers/STM32C0xx_HAL_Driver/Src/stm32c0xx_hal_dma.c ****   * @param DataLength The length of data to be transferred from source to destination
 985:Drivers/STM32C0xx_HAL_Driver/Src/stm32c0xx_hal_dma.c ****   * @retval HAL status
 986:Drivers/STM32C0xx_HAL_Driver/Src/stm32c0xx_hal_dma.c ****   */
 987:Drivers/STM32C0xx_HAL_Driver/Src/stm32c0xx_hal_dma.c **** static void DMA_SetConfig(DMA_HandleTypeDef *hdma, uint32_t SrcAddress, uint32_t DstAddress, uint32
 988:Drivers/STM32C0xx_HAL_Driver/Src/stm32c0xx_hal_dma.c **** {
  27              		.loc 1 988 1 view -0
  28              		.cfi_startproc
  29              		@ args = 0, pretend = 0, frame = 0
  30              		@ frame_needed = 0, uses_anonymous_args = 0
  31              		.loc 1 988 1 is_stmt 0 view .LVU1
  32 0000 F0B5     		push	{r4, r5, r6, r7, lr}
  33              	.LCFI0:
  34              		.cfi_def_cfa_offset 20
  35              		.cfi_offset 4, -20
  36              		.cfi_offset 5, -16
  37              		.cfi_offset 6, -12
  38              		.cfi_offset 7, -8
  39              		.cfi_offset 14, -4
ARM GAS  C:\Users\Yasi\AppData\Local\Temp\cc6toQyB.s 			page 19


 989:Drivers/STM32C0xx_HAL_Driver/Src/stm32c0xx_hal_dma.c ****   /* Clear the DMAMUX synchro overrun flag */
 990:Drivers/STM32C0xx_HAL_Driver/Src/stm32c0xx_hal_dma.c ****   hdma->DMAmuxChannelStatus->CFR = hdma->DMAmuxChannelStatusMask;
  40              		.loc 1 990 3 is_stmt 1 view .LVU2
  41              		.loc 1 990 7 is_stmt 0 view .LVU3
  42 0002 846C     		ldr	r4, [r0, #72]
  43              		.loc 1 990 40 view .LVU4
  44 0004 C56C     		ldr	r5, [r0, #76]
  45              		.loc 1 990 34 view .LVU5
  46 0006 6560     		str	r5, [r4, #4]
 991:Drivers/STM32C0xx_HAL_Driver/Src/stm32c0xx_hal_dma.c **** 
 992:Drivers/STM32C0xx_HAL_Driver/Src/stm32c0xx_hal_dma.c ****   if (hdma->DMAmuxRequestGen != 0U)
  47              		.loc 1 992 3 is_stmt 1 view .LVU6
  48              		.loc 1 992 11 is_stmt 0 view .LVU7
  49 0008 046D     		ldr	r4, [r0, #80]
  50              		.loc 1 992 6 view .LVU8
  51 000a 002C     		cmp	r4, #0
  52 000c 02D0     		beq	.L2
 993:Drivers/STM32C0xx_HAL_Driver/Src/stm32c0xx_hal_dma.c ****   {
 994:Drivers/STM32C0xx_HAL_Driver/Src/stm32c0xx_hal_dma.c ****     /* Clear the DMAMUX request generator overrun flag */
 995:Drivers/STM32C0xx_HAL_Driver/Src/stm32c0xx_hal_dma.c ****     hdma->DMAmuxRequestGenStatus->RGCFR = hdma->DMAmuxRequestGenStatusMask;
  53              		.loc 1 995 5 is_stmt 1 view .LVU9
  54              		.loc 1 995 9 is_stmt 0 view .LVU10
  55 000e 446D     		ldr	r4, [r0, #84]
  56              		.loc 1 995 47 view .LVU11
  57 0010 856D     		ldr	r5, [r0, #88]
  58              		.loc 1 995 41 view .LVU12
  59 0012 6560     		str	r5, [r4, #4]
  60              	.L2:
 996:Drivers/STM32C0xx_HAL_Driver/Src/stm32c0xx_hal_dma.c ****   }
 997:Drivers/STM32C0xx_HAL_Driver/Src/stm32c0xx_hal_dma.c **** 
 998:Drivers/STM32C0xx_HAL_Driver/Src/stm32c0xx_hal_dma.c ****   /* Clear all flags */
 999:Drivers/STM32C0xx_HAL_Driver/Src/stm32c0xx_hal_dma.c ****   __HAL_DMA_CLEAR_FLAG(hdma, (DMA_FLAG_GI1 << (hdma->ChannelIndex & 0x1cU)));
  61              		.loc 1 999 3 is_stmt 1 view .LVU13
  62 0014 0B4F     		ldr	r7, .L6
  63 0016 7C68     		ldr	r4, [r7, #4]
  64 0018 056C     		ldr	r5, [r0, #64]
  65 001a 1C26     		movs	r6, #28
  66 001c 2E40     		ands	r6, r5
  67 001e 0125     		movs	r5, #1
  68 0020 B540     		lsls	r5, r5, r6
  69 0022 2C43     		orrs	r4, r5
  70 0024 7C60     		str	r4, [r7, #4]
1000:Drivers/STM32C0xx_HAL_Driver/Src/stm32c0xx_hal_dma.c **** 
1001:Drivers/STM32C0xx_HAL_Driver/Src/stm32c0xx_hal_dma.c ****   /* Configure DMA Channel data length */
1002:Drivers/STM32C0xx_HAL_Driver/Src/stm32c0xx_hal_dma.c ****   hdma->Instance->CNDTR = DataLength;
  71              		.loc 1 1002 3 view .LVU14
  72              		.loc 1 1002 7 is_stmt 0 view .LVU15
  73 0026 0468     		ldr	r4, [r0]
  74              		.loc 1 1002 25 view .LVU16
  75 0028 6360     		str	r3, [r4, #4]
1003:Drivers/STM32C0xx_HAL_Driver/Src/stm32c0xx_hal_dma.c **** 
1004:Drivers/STM32C0xx_HAL_Driver/Src/stm32c0xx_hal_dma.c ****   /* Peripheral to Memory */
1005:Drivers/STM32C0xx_HAL_Driver/Src/stm32c0xx_hal_dma.c ****   if ((hdma->Init.Direction) == DMA_MEMORY_TO_PERIPH)
  76              		.loc 1 1005 3 is_stmt 1 view .LVU17
  77              		.loc 1 1005 18 is_stmt 0 view .LVU18
  78 002a 8368     		ldr	r3, [r0, #8]
  79              	.LVL1:
ARM GAS  C:\Users\Yasi\AppData\Local\Temp\cc6toQyB.s 			page 20


  80              		.loc 1 1005 6 view .LVU19
  81 002c 102B     		cmp	r3, #16
  82 002e 04D0     		beq	.L5
1006:Drivers/STM32C0xx_HAL_Driver/Src/stm32c0xx_hal_dma.c ****   {
1007:Drivers/STM32C0xx_HAL_Driver/Src/stm32c0xx_hal_dma.c ****     /* Configure DMA Channel destination address */
1008:Drivers/STM32C0xx_HAL_Driver/Src/stm32c0xx_hal_dma.c ****     hdma->Instance->CPAR = DstAddress;
1009:Drivers/STM32C0xx_HAL_Driver/Src/stm32c0xx_hal_dma.c **** 
1010:Drivers/STM32C0xx_HAL_Driver/Src/stm32c0xx_hal_dma.c ****     /* Configure DMA Channel source address */
1011:Drivers/STM32C0xx_HAL_Driver/Src/stm32c0xx_hal_dma.c ****     hdma->Instance->CMAR = SrcAddress;
1012:Drivers/STM32C0xx_HAL_Driver/Src/stm32c0xx_hal_dma.c ****   }
1013:Drivers/STM32C0xx_HAL_Driver/Src/stm32c0xx_hal_dma.c ****   /* Memory to Peripheral */
1014:Drivers/STM32C0xx_HAL_Driver/Src/stm32c0xx_hal_dma.c ****   else
1015:Drivers/STM32C0xx_HAL_Driver/Src/stm32c0xx_hal_dma.c ****   {
1016:Drivers/STM32C0xx_HAL_Driver/Src/stm32c0xx_hal_dma.c ****     /* Configure DMA Channel source address */
1017:Drivers/STM32C0xx_HAL_Driver/Src/stm32c0xx_hal_dma.c ****     hdma->Instance->CPAR = SrcAddress;
  83              		.loc 1 1017 5 is_stmt 1 view .LVU20
  84              		.loc 1 1017 9 is_stmt 0 view .LVU21
  85 0030 0368     		ldr	r3, [r0]
  86              		.loc 1 1017 26 view .LVU22
  87 0032 9960     		str	r1, [r3, #8]
  88              	.LVL2:
1018:Drivers/STM32C0xx_HAL_Driver/Src/stm32c0xx_hal_dma.c **** 
1019:Drivers/STM32C0xx_HAL_Driver/Src/stm32c0xx_hal_dma.c ****     /* Configure DMA Channel destination address */
1020:Drivers/STM32C0xx_HAL_Driver/Src/stm32c0xx_hal_dma.c ****     hdma->Instance->CMAR = DstAddress;
  89              		.loc 1 1020 5 is_stmt 1 view .LVU23
  90              		.loc 1 1020 9 is_stmt 0 view .LVU24
  91 0034 0368     		ldr	r3, [r0]
  92              		.loc 1 1020 26 view .LVU25
  93 0036 DA60     		str	r2, [r3, #12]
  94              	.L1:
1021:Drivers/STM32C0xx_HAL_Driver/Src/stm32c0xx_hal_dma.c ****   }
1022:Drivers/STM32C0xx_HAL_Driver/Src/stm32c0xx_hal_dma.c **** }
  95              		.loc 1 1022 1 view .LVU26
  96              		@ sp needed
  97 0038 F0BD     		pop	{r4, r5, r6, r7, pc}
  98              	.LVL3:
  99              	.L5:
1008:Drivers/STM32C0xx_HAL_Driver/Src/stm32c0xx_hal_dma.c **** 
 100              		.loc 1 1008 5 is_stmt 1 view .LVU27
1008:Drivers/STM32C0xx_HAL_Driver/Src/stm32c0xx_hal_dma.c **** 
 101              		.loc 1 1008 9 is_stmt 0 view .LVU28
 102 003a 0368     		ldr	r3, [r0]
1008:Drivers/STM32C0xx_HAL_Driver/Src/stm32c0xx_hal_dma.c **** 
 103              		.loc 1 1008 26 view .LVU29
 104 003c 9A60     		str	r2, [r3, #8]
 105              	.LVL4:
1011:Drivers/STM32C0xx_HAL_Driver/Src/stm32c0xx_hal_dma.c ****   }
 106              		.loc 1 1011 5 is_stmt 1 view .LVU30
1011:Drivers/STM32C0xx_HAL_Driver/Src/stm32c0xx_hal_dma.c ****   }
 107              		.loc 1 1011 9 is_stmt 0 view .LVU31
 108 003e 0368     		ldr	r3, [r0]
1011:Drivers/STM32C0xx_HAL_Driver/Src/stm32c0xx_hal_dma.c ****   }
 109              		.loc 1 1011 26 view .LVU32
 110 0040 D960     		str	r1, [r3, #12]
 111 0042 F9E7     		b	.L1
 112              	.L7:
 113              		.align	2
ARM GAS  C:\Users\Yasi\AppData\Local\Temp\cc6toQyB.s 			page 21


 114              	.L6:
 115 0044 00000240 		.word	1073872896
 116              		.cfi_endproc
 117              	.LFE226:
 119              		.global	__aeabi_uidiv
 120              		.section	.text.DMA_CalcDMAMUXChannelBaseAndMask,"ax",%progbits
 121              		.align	1
 122              		.syntax unified
 123              		.code	16
 124              		.thumb_func
 126              	DMA_CalcDMAMUXChannelBaseAndMask:
 127              	.LVL5:
 128              	.LFB227:
1023:Drivers/STM32C0xx_HAL_Driver/Src/stm32c0xx_hal_dma.c **** 
1024:Drivers/STM32C0xx_HAL_Driver/Src/stm32c0xx_hal_dma.c **** /**
1025:Drivers/STM32C0xx_HAL_Driver/Src/stm32c0xx_hal_dma.c ****   * @brief  Updates the DMA handle with the DMAMUX  channel and status mask depending on stream num
1026:Drivers/STM32C0xx_HAL_Driver/Src/stm32c0xx_hal_dma.c ****   * @param  hdma Pointer to a DMA_HandleTypeDef structure that contains
1027:Drivers/STM32C0xx_HAL_Driver/Src/stm32c0xx_hal_dma.c ****   *                     the configuration information for the specified DMA Stream.
1028:Drivers/STM32C0xx_HAL_Driver/Src/stm32c0xx_hal_dma.c ****   * @retval None
1029:Drivers/STM32C0xx_HAL_Driver/Src/stm32c0xx_hal_dma.c ****   */
1030:Drivers/STM32C0xx_HAL_Driver/Src/stm32c0xx_hal_dma.c **** static void DMA_CalcDMAMUXChannelBaseAndMask(DMA_HandleTypeDef *hdma)
1031:Drivers/STM32C0xx_HAL_Driver/Src/stm32c0xx_hal_dma.c **** {
 129              		.loc 1 1031 1 is_stmt 1 view -0
 130              		.cfi_startproc
 131              		@ args = 0, pretend = 0, frame = 0
 132              		@ frame_needed = 0, uses_anonymous_args = 0
 133              		.loc 1 1031 1 is_stmt 0 view .LVU34
 134 0000 10B5     		push	{r4, lr}
 135              	.LCFI1:
 136              		.cfi_def_cfa_offset 8
 137              		.cfi_offset 4, -8
 138              		.cfi_offset 14, -4
 139 0002 0400     		movs	r4, r0
1032:Drivers/STM32C0xx_HAL_Driver/Src/stm32c0xx_hal_dma.c ****   uint32_t channel_number;
 140              		.loc 1 1032 3 is_stmt 1 view .LVU35
1033:Drivers/STM32C0xx_HAL_Driver/Src/stm32c0xx_hal_dma.c **** 
1034:Drivers/STM32C0xx_HAL_Driver/Src/stm32c0xx_hal_dma.c ****   channel_number = (((uint32_t)hdma->Instance & 0xFFU) - 8U) / 20U;
 141              		.loc 1 1034 3 view .LVU36
 142              		.loc 1 1034 36 is_stmt 0 view .LVU37
 143 0004 0368     		ldr	r3, [r0]
 144              		.loc 1 1034 47 view .LVU38
 145 0006 FF20     		movs	r0, #255
 146              	.LVL6:
 147              		.loc 1 1034 47 view .LVU39
 148 0008 1840     		ands	r0, r3
 149              		.loc 1 1034 56 view .LVU40
 150 000a 0838     		subs	r0, r0, #8
 151              		.loc 1 1034 18 view .LVU41
 152 000c 1421     		movs	r1, #20
 153 000e FFF7FEFF 		bl	__aeabi_uidiv
 154              	.LVL7:
1035:Drivers/STM32C0xx_HAL_Driver/Src/stm32c0xx_hal_dma.c ****   hdma->DMAmuxChannel = (DMAMUX_Channel_TypeDef *)(uint32_t)((uint32_t)DMAMUX1_Channel0 + \
 155              		.loc 1 1035 3 is_stmt 1 view .LVU42
1036:Drivers/STM32C0xx_HAL_Driver/Src/stm32c0xx_hal_dma.c ****                                                              ((hdma->ChannelIndex >> 2U) * \
 156              		.loc 1 1036 68 is_stmt 0 view .LVU43
 157 0012 236C     		ldr	r3, [r4, #64]
 158              		.loc 1 1036 83 view .LVU44
ARM GAS  C:\Users\Yasi\AppData\Local\Temp\cc6toQyB.s 			page 22


 159 0014 9B08     		lsrs	r3, r3, #2
1035:Drivers/STM32C0xx_HAL_Driver/Src/stm32c0xx_hal_dma.c ****   hdma->DMAmuxChannel = (DMAMUX_Channel_TypeDef *)(uint32_t)((uint32_t)DMAMUX1_Channel0 + \
 160              		.loc 1 1035 51 view .LVU45
 161 0016 064A     		ldr	r2, .L9
 162 0018 9446     		mov	ip, r2
 163 001a 6344     		add	r3, r3, ip
 164 001c 9B00     		lsls	r3, r3, #2
1035:Drivers/STM32C0xx_HAL_Driver/Src/stm32c0xx_hal_dma.c ****   hdma->DMAmuxChannel = (DMAMUX_Channel_TypeDef *)(uint32_t)((uint32_t)DMAMUX1_Channel0 + \
 165              		.loc 1 1035 23 view .LVU46
 166 001e 6364     		str	r3, [r4, #68]
1037:Drivers/STM32C0xx_HAL_Driver/Src/stm32c0xx_hal_dma.c ****                                                               ((uint32_t)DMAMUX1_Channel1 - \
1038:Drivers/STM32C0xx_HAL_Driver/Src/stm32c0xx_hal_dma.c ****                                                                (uint32_t)DMAMUX1_Channel0)));
1039:Drivers/STM32C0xx_HAL_Driver/Src/stm32c0xx_hal_dma.c ****   hdma->DMAmuxChannelStatus = DMAMUX1_ChannelStatus;
 167              		.loc 1 1039 3 is_stmt 1 view .LVU47
 168              		.loc 1 1039 29 is_stmt 0 view .LVU48
 169 0020 044B     		ldr	r3, .L9+4
 170 0022 A364     		str	r3, [r4, #72]
1040:Drivers/STM32C0xx_HAL_Driver/Src/stm32c0xx_hal_dma.c ****   hdma->DMAmuxChannelStatusMask = 1UL << (channel_number & 0x1cU);
 171              		.loc 1 1040 3 is_stmt 1 view .LVU49
 172              		.loc 1 1040 58 is_stmt 0 view .LVU50
 173 0024 1C23     		movs	r3, #28
 174 0026 1840     		ands	r0, r3
 175              	.LVL8:
 176              		.loc 1 1040 39 view .LVU51
 177 0028 1B3B     		subs	r3, r3, #27
 178 002a 8340     		lsls	r3, r3, r0
 179              		.loc 1 1040 33 view .LVU52
 180 002c E364     		str	r3, [r4, #76]
1041:Drivers/STM32C0xx_HAL_Driver/Src/stm32c0xx_hal_dma.c **** }
 181              		.loc 1 1041 1 view .LVU53
 182              		@ sp needed
 183              	.LVL9:
 184              		.loc 1 1041 1 view .LVU54
 185 002e 10BD     		pop	{r4, pc}
 186              	.L10:
 187              		.align	2
 188              	.L9:
 189 0030 00820010 		.word	268468736
 190 0034 80080240 		.word	1073875072
 191              		.cfi_endproc
 192              	.LFE227:
 194              		.section	.text.DMA_CalcDMAMUXRequestGenBaseAndMask,"ax",%progbits
 195              		.align	1
 196              		.syntax unified
 197              		.code	16
 198              		.thumb_func
 200              	DMA_CalcDMAMUXRequestGenBaseAndMask:
 201              	.LVL10:
 202              	.LFB228:
1042:Drivers/STM32C0xx_HAL_Driver/Src/stm32c0xx_hal_dma.c **** 
1043:Drivers/STM32C0xx_HAL_Driver/Src/stm32c0xx_hal_dma.c **** /**
1044:Drivers/STM32C0xx_HAL_Driver/Src/stm32c0xx_hal_dma.c ****   * @brief  Updates the DMA handle with the DMAMUX  request generator params
1045:Drivers/STM32C0xx_HAL_Driver/Src/stm32c0xx_hal_dma.c ****   * @param  hdma Pointer to a DMA_HandleTypeDef structure that contains
1046:Drivers/STM32C0xx_HAL_Driver/Src/stm32c0xx_hal_dma.c ****   *                     the configuration information for the specified DMA Stream.
1047:Drivers/STM32C0xx_HAL_Driver/Src/stm32c0xx_hal_dma.c ****   * @retval None
1048:Drivers/STM32C0xx_HAL_Driver/Src/stm32c0xx_hal_dma.c ****   */
1049:Drivers/STM32C0xx_HAL_Driver/Src/stm32c0xx_hal_dma.c **** 
ARM GAS  C:\Users\Yasi\AppData\Local\Temp\cc6toQyB.s 			page 23


1050:Drivers/STM32C0xx_HAL_Driver/Src/stm32c0xx_hal_dma.c **** static void DMA_CalcDMAMUXRequestGenBaseAndMask(DMA_HandleTypeDef *hdma)
1051:Drivers/STM32C0xx_HAL_Driver/Src/stm32c0xx_hal_dma.c **** {
 203              		.loc 1 1051 1 is_stmt 1 view -0
 204              		.cfi_startproc
 205              		@ args = 0, pretend = 0, frame = 0
 206              		@ frame_needed = 0, uses_anonymous_args = 0
 207              		@ link register save eliminated.
1052:Drivers/STM32C0xx_HAL_Driver/Src/stm32c0xx_hal_dma.c ****   uint32_t request =  hdma->Init.Request & DMAMUX_CxCR_DMAREQ_ID;
 208              		.loc 1 1052 3 view .LVU56
 209              		.loc 1 1052 33 is_stmt 0 view .LVU57
 210 0000 4268     		ldr	r2, [r0, #4]
 211              		.loc 1 1052 12 view .LVU58
 212 0002 FF23     		movs	r3, #255
 213 0004 1340     		ands	r3, r2
 214              	.LVL11:
1053:Drivers/STM32C0xx_HAL_Driver/Src/stm32c0xx_hal_dma.c **** 
1054:Drivers/STM32C0xx_HAL_Driver/Src/stm32c0xx_hal_dma.c ****   /* DMA Channels are connected to DMAMUX1 request generator blocks*/
1055:Drivers/STM32C0xx_HAL_Driver/Src/stm32c0xx_hal_dma.c ****   hdma->DMAmuxRequestGen = (DMAMUX_RequestGen_TypeDef *)((uint32_t)(((uint32_t)DMAMUX1_RequestGener
 215              		.loc 1 1055 3 is_stmt 1 view .LVU59
 216              		.loc 1 1055 58 is_stmt 0 view .LVU60
 217 0006 064A     		ldr	r2, .L12
 218 0008 9A18     		adds	r2, r3, r2
 219 000a 9200     		lsls	r2, r2, #2
 220              		.loc 1 1055 26 view .LVU61
 221 000c 0265     		str	r2, [r0, #80]
1056:Drivers/STM32C0xx_HAL_Driver/Src/stm32c0xx_hal_dma.c ****                                                                     ((request - 1U) * 4U)));
1057:Drivers/STM32C0xx_HAL_Driver/Src/stm32c0xx_hal_dma.c **** 
1058:Drivers/STM32C0xx_HAL_Driver/Src/stm32c0xx_hal_dma.c ****   hdma->DMAmuxRequestGenStatus = DMAMUX1_RequestGenStatus;
 222              		.loc 1 1058 3 is_stmt 1 view .LVU62
 223              		.loc 1 1058 32 is_stmt 0 view .LVU63
 224 000e 054A     		ldr	r2, .L12+4
 225 0010 4265     		str	r2, [r0, #84]
1059:Drivers/STM32C0xx_HAL_Driver/Src/stm32c0xx_hal_dma.c **** 
1060:Drivers/STM32C0xx_HAL_Driver/Src/stm32c0xx_hal_dma.c ****   /* here "Request" is either DMA_REQUEST_GENERATOR0 to 4, i.e. <= 4*/
1061:Drivers/STM32C0xx_HAL_Driver/Src/stm32c0xx_hal_dma.c ****   hdma->DMAmuxRequestGenStatusMask = 1UL << ((request - 1U) & 0x3U);
 226              		.loc 1 1061 3 is_stmt 1 view .LVU64
 227              		.loc 1 1061 55 is_stmt 0 view .LVU65
 228 0012 013B     		subs	r3, r3, #1
 229              	.LVL12:
 230              		.loc 1 1061 61 view .LVU66
 231 0014 0322     		movs	r2, #3
 232 0016 1A40     		ands	r2, r3
 233              		.loc 1 1061 42 view .LVU67
 234 0018 0123     		movs	r3, #1
 235              	.LVL13:
 236              		.loc 1 1061 42 view .LVU68
 237 001a 9340     		lsls	r3, r3, r2
 238              		.loc 1 1061 36 view .LVU69
 239 001c 8365     		str	r3, [r0, #88]
1062:Drivers/STM32C0xx_HAL_Driver/Src/stm32c0xx_hal_dma.c **** }
 240              		.loc 1 1062 1 view .LVU70
 241              		@ sp needed
 242 001e 7047     		bx	lr
 243              	.L13:
 244              		.align	2
 245              	.L12:
 246 0020 3F820010 		.word	268468799
ARM GAS  C:\Users\Yasi\AppData\Local\Temp\cc6toQyB.s 			page 24


 247 0024 40090240 		.word	1073875264
 248              		.cfi_endproc
 249              	.LFE228:
 251              		.section	.text.HAL_DMA_Init,"ax",%progbits
 252              		.align	1
 253              		.global	HAL_DMA_Init
 254              		.syntax unified
 255              		.code	16
 256              		.thumb_func
 258              	HAL_DMA_Init:
 259              	.LVL14:
 260              	.LFB214:
 152:Drivers/STM32C0xx_HAL_Driver/Src/stm32c0xx_hal_dma.c ****   /* Check the DMA handle allocation */
 261              		.loc 1 152 1 is_stmt 1 view -0
 262              		.cfi_startproc
 263              		@ args = 0, pretend = 0, frame = 0
 264              		@ frame_needed = 0, uses_anonymous_args = 0
 152:Drivers/STM32C0xx_HAL_Driver/Src/stm32c0xx_hal_dma.c ****   /* Check the DMA handle allocation */
 265              		.loc 1 152 1 is_stmt 0 view .LVU72
 266 0000 70B5     		push	{r4, r5, r6, lr}
 267              	.LCFI2:
 268              		.cfi_def_cfa_offset 16
 269              		.cfi_offset 4, -16
 270              		.cfi_offset 5, -12
 271              		.cfi_offset 6, -8
 272              		.cfi_offset 14, -4
 273 0002 041E     		subs	r4, r0, #0
 154:Drivers/STM32C0xx_HAL_Driver/Src/stm32c0xx_hal_dma.c ****   {
 274              		.loc 1 154 3 is_stmt 1 view .LVU73
 154:Drivers/STM32C0xx_HAL_Driver/Src/stm32c0xx_hal_dma.c ****   {
 275              		.loc 1 154 6 is_stmt 0 view .LVU74
 276 0004 4DD0     		beq	.L19
 160:Drivers/STM32C0xx_HAL_Driver/Src/stm32c0xx_hal_dma.c ****   assert_param(IS_DMA_DIRECTION(hdma->Init.Direction));
 277              		.loc 1 160 3 is_stmt 1 view .LVU75
 161:Drivers/STM32C0xx_HAL_Driver/Src/stm32c0xx_hal_dma.c ****   assert_param(IS_DMA_PERIPHERAL_INC_STATE(hdma->Init.PeriphInc));
 278              		.loc 1 161 3 view .LVU76
 162:Drivers/STM32C0xx_HAL_Driver/Src/stm32c0xx_hal_dma.c ****   assert_param(IS_DMA_MEMORY_INC_STATE(hdma->Init.MemInc));
 279              		.loc 1 162 3 view .LVU77
 163:Drivers/STM32C0xx_HAL_Driver/Src/stm32c0xx_hal_dma.c ****   assert_param(IS_DMA_PERIPHERAL_DATA_SIZE(hdma->Init.PeriphDataAlignment));
 280              		.loc 1 163 3 view .LVU78
 164:Drivers/STM32C0xx_HAL_Driver/Src/stm32c0xx_hal_dma.c ****   assert_param(IS_DMA_MEMORY_DATA_SIZE(hdma->Init.MemDataAlignment));
 281              		.loc 1 164 3 view .LVU79
 165:Drivers/STM32C0xx_HAL_Driver/Src/stm32c0xx_hal_dma.c ****   assert_param(IS_DMA_MODE(hdma->Init.Mode));
 282              		.loc 1 165 3 view .LVU80
 166:Drivers/STM32C0xx_HAL_Driver/Src/stm32c0xx_hal_dma.c ****   assert_param(IS_DMA_PRIORITY(hdma->Init.Priority));
 283              		.loc 1 166 3 view .LVU81
 167:Drivers/STM32C0xx_HAL_Driver/Src/stm32c0xx_hal_dma.c **** 
 284              		.loc 1 167 3 view .LVU82
 170:Drivers/STM32C0xx_HAL_Driver/Src/stm32c0xx_hal_dma.c ****                                                                                 (uint32_t)DMA1_Chan
 285              		.loc 1 170 3 view .LVU83
 170:Drivers/STM32C0xx_HAL_Driver/Src/stm32c0xx_hal_dma.c ****                                                                                 (uint32_t)DMA1_Chan
 286              		.loc 1 170 40 is_stmt 0 view .LVU84
 287 0006 0568     		ldr	r5, [r0]
 170:Drivers/STM32C0xx_HAL_Driver/Src/stm32c0xx_hal_dma.c ****                                                                                 (uint32_t)DMA1_Chan
 288              		.loc 1 170 51 view .LVU85
 289 0008 274B     		ldr	r3, .L22
 290 000a E818     		adds	r0, r5, r3
ARM GAS  C:\Users\Yasi\AppData\Local\Temp\cc6toQyB.s 			page 25


 291              	.LVL15:
 170:Drivers/STM32C0xx_HAL_Driver/Src/stm32c0xx_hal_dma.c ****                                                                                 (uint32_t)DMA1_Chan
 292              		.loc 1 170 78 view .LVU86
 293 000c 1421     		movs	r1, #20
 294 000e FFF7FEFF 		bl	__aeabi_uidiv
 295              	.LVL16:
 171:Drivers/STM32C0xx_HAL_Driver/Src/stm32c0xx_hal_dma.c **** 
 296              		.loc 1 171 107 view .LVU87
 297 0012 8000     		lsls	r0, r0, #2
 170:Drivers/STM32C0xx_HAL_Driver/Src/stm32c0xx_hal_dma.c ****                                                                                 (uint32_t)DMA1_Chan
 298              		.loc 1 170 22 view .LVU88
 299 0014 2064     		str	r0, [r4, #64]
 174:Drivers/STM32C0xx_HAL_Driver/Src/stm32c0xx_hal_dma.c **** 
 300              		.loc 1 174 3 is_stmt 1 view .LVU89
 174:Drivers/STM32C0xx_HAL_Driver/Src/stm32c0xx_hal_dma.c **** 
 301              		.loc 1 174 15 is_stmt 0 view .LVU90
 302 0016 2523     		movs	r3, #37
 303 0018 0222     		movs	r2, #2
 304 001a E254     		strb	r2, [r4, r3]
 177:Drivers/STM32C0xx_HAL_Driver/Src/stm32c0xx_hal_dma.c ****                                   DMA_CCR_MINC  | DMA_CCR_PINC   | DMA_CCR_CIRC   | \
 305              		.loc 1 177 3 is_stmt 1 view .LVU91
 306 001c 2B68     		ldr	r3, [r5]
 307 001e 234A     		ldr	r2, .L22+4
 308 0020 1340     		ands	r3, r2
 309 0022 2B60     		str	r3, [r5]
 182:Drivers/STM32C0xx_HAL_Driver/Src/stm32c0xx_hal_dma.c ****                                 hdma->Init.PeriphInc           | hdma->Init.MemInc           | \
 310              		.loc 1 182 3 view .LVU92
 311 0024 2168     		ldr	r1, [r4]
 312 0026 0A68     		ldr	r2, [r1]
 313 0028 A368     		ldr	r3, [r4, #8]
 314 002a E068     		ldr	r0, [r4, #12]
 315 002c 0343     		orrs	r3, r0
 316 002e 2069     		ldr	r0, [r4, #16]
 317 0030 0343     		orrs	r3, r0
 318 0032 6069     		ldr	r0, [r4, #20]
 319 0034 0343     		orrs	r3, r0
 320 0036 A069     		ldr	r0, [r4, #24]
 321 0038 0343     		orrs	r3, r0
 322 003a E069     		ldr	r0, [r4, #28]
 323 003c 0343     		orrs	r3, r0
 324 003e 206A     		ldr	r0, [r4, #32]
 325 0040 0343     		orrs	r3, r0
 326 0042 1343     		orrs	r3, r2
 327 0044 0B60     		str	r3, [r1]
 190:Drivers/STM32C0xx_HAL_Driver/Src/stm32c0xx_hal_dma.c **** 
 328              		.loc 1 190 3 view .LVU93
 329 0046 2000     		movs	r0, r4
 330 0048 FFF7FEFF 		bl	DMA_CalcDMAMUXChannelBaseAndMask
 331              	.LVL17:
 192:Drivers/STM32C0xx_HAL_Driver/Src/stm32c0xx_hal_dma.c ****   {
 332              		.loc 1 192 3 view .LVU94
 192:Drivers/STM32C0xx_HAL_Driver/Src/stm32c0xx_hal_dma.c ****   {
 333              		.loc 1 192 17 is_stmt 0 view .LVU95
 334 004c A268     		ldr	r2, [r4, #8]
 192:Drivers/STM32C0xx_HAL_Driver/Src/stm32c0xx_hal_dma.c ****   {
 335              		.loc 1 192 6 view .LVU96
 336 004e 8023     		movs	r3, #128
ARM GAS  C:\Users\Yasi\AppData\Local\Temp\cc6toQyB.s 			page 26


 337 0050 DB01     		lsls	r3, r3, #7
 338 0052 9A42     		cmp	r2, r3
 339 0054 18D0     		beq	.L20
 340              	.L16:
 199:Drivers/STM32C0xx_HAL_Driver/Src/stm32c0xx_hal_dma.c **** 
 341              		.loc 1 199 3 is_stmt 1 view .LVU97
 199:Drivers/STM32C0xx_HAL_Driver/Src/stm32c0xx_hal_dma.c **** 
 342              		.loc 1 199 41 is_stmt 0 view .LVU98
 343 0056 6168     		ldr	r1, [r4, #4]
 199:Drivers/STM32C0xx_HAL_Driver/Src/stm32c0xx_hal_dma.c **** 
 344              		.loc 1 199 7 view .LVU99
 345 0058 626C     		ldr	r2, [r4, #68]
 199:Drivers/STM32C0xx_HAL_Driver/Src/stm32c0xx_hal_dma.c **** 
 346              		.loc 1 199 50 view .LVU100
 347 005a FF23     		movs	r3, #255
 348 005c 0B40     		ands	r3, r1
 199:Drivers/STM32C0xx_HAL_Driver/Src/stm32c0xx_hal_dma.c **** 
 349              		.loc 1 199 28 view .LVU101
 350 005e 1360     		str	r3, [r2]
 202:Drivers/STM32C0xx_HAL_Driver/Src/stm32c0xx_hal_dma.c **** 
 351              		.loc 1 202 3 is_stmt 1 view .LVU102
 202:Drivers/STM32C0xx_HAL_Driver/Src/stm32c0xx_hal_dma.c **** 
 352              		.loc 1 202 7 is_stmt 0 view .LVU103
 353 0060 A36C     		ldr	r3, [r4, #72]
 202:Drivers/STM32C0xx_HAL_Driver/Src/stm32c0xx_hal_dma.c **** 
 354              		.loc 1 202 40 view .LVU104
 355 0062 E26C     		ldr	r2, [r4, #76]
 202:Drivers/STM32C0xx_HAL_Driver/Src/stm32c0xx_hal_dma.c **** 
 356              		.loc 1 202 34 view .LVU105
 357 0064 5A60     		str	r2, [r3, #4]
 204:Drivers/STM32C0xx_HAL_Driver/Src/stm32c0xx_hal_dma.c ****   {
 358              		.loc 1 204 3 is_stmt 1 view .LVU106
 204:Drivers/STM32C0xx_HAL_Driver/Src/stm32c0xx_hal_dma.c ****   {
 359              		.loc 1 204 19 is_stmt 0 view .LVU107
 360 0066 6368     		ldr	r3, [r4, #4]
 204:Drivers/STM32C0xx_HAL_Driver/Src/stm32c0xx_hal_dma.c ****   {
 361              		.loc 1 204 36 view .LVU108
 362 0068 013B     		subs	r3, r3, #1
 204:Drivers/STM32C0xx_HAL_Driver/Src/stm32c0xx_hal_dma.c ****   {
 363              		.loc 1 204 6 view .LVU109
 364 006a 032B     		cmp	r3, #3
 365 006c 0FD9     		bls	.L21
 219:Drivers/STM32C0xx_HAL_Driver/Src/stm32c0xx_hal_dma.c ****     hdma->DMAmuxRequestGenStatus = 0U;
 366              		.loc 1 219 5 is_stmt 1 view .LVU110
 219:Drivers/STM32C0xx_HAL_Driver/Src/stm32c0xx_hal_dma.c ****     hdma->DMAmuxRequestGenStatus = 0U;
 367              		.loc 1 219 28 is_stmt 0 view .LVU111
 368 006e 0023     		movs	r3, #0
 369 0070 2365     		str	r3, [r4, #80]
 220:Drivers/STM32C0xx_HAL_Driver/Src/stm32c0xx_hal_dma.c ****     hdma->DMAmuxRequestGenStatusMask = 0U;
 370              		.loc 1 220 5 is_stmt 1 view .LVU112
 220:Drivers/STM32C0xx_HAL_Driver/Src/stm32c0xx_hal_dma.c ****     hdma->DMAmuxRequestGenStatusMask = 0U;
 371              		.loc 1 220 34 is_stmt 0 view .LVU113
 372 0072 6365     		str	r3, [r4, #84]
 221:Drivers/STM32C0xx_HAL_Driver/Src/stm32c0xx_hal_dma.c ****   }
 373              		.loc 1 221 5 is_stmt 1 view .LVU114
 221:Drivers/STM32C0xx_HAL_Driver/Src/stm32c0xx_hal_dma.c ****   }
 374              		.loc 1 221 38 is_stmt 0 view .LVU115
ARM GAS  C:\Users\Yasi\AppData\Local\Temp\cc6toQyB.s 			page 27


 375 0074 A365     		str	r3, [r4, #88]
 376              	.L18:
 225:Drivers/STM32C0xx_HAL_Driver/Src/stm32c0xx_hal_dma.c **** 
 377              		.loc 1 225 3 is_stmt 1 view .LVU116
 225:Drivers/STM32C0xx_HAL_Driver/Src/stm32c0xx_hal_dma.c **** 
 378              		.loc 1 225 19 is_stmt 0 view .LVU117
 379 0076 0023     		movs	r3, #0
 380 0078 E363     		str	r3, [r4, #60]
 228:Drivers/STM32C0xx_HAL_Driver/Src/stm32c0xx_hal_dma.c **** 
 381              		.loc 1 228 3 is_stmt 1 view .LVU118
 228:Drivers/STM32C0xx_HAL_Driver/Src/stm32c0xx_hal_dma.c **** 
 382              		.loc 1 228 16 is_stmt 0 view .LVU119
 383 007a 2522     		movs	r2, #37
 384 007c 0121     		movs	r1, #1
 385 007e A154     		strb	r1, [r4, r2]
 231:Drivers/STM32C0xx_HAL_Driver/Src/stm32c0xx_hal_dma.c **** 
 386              		.loc 1 231 3 is_stmt 1 view .LVU120
 231:Drivers/STM32C0xx_HAL_Driver/Src/stm32c0xx_hal_dma.c **** 
 387              		.loc 1 231 3 view .LVU121
 388 0080 013A     		subs	r2, r2, #1
 389 0082 A354     		strb	r3, [r4, r2]
 231:Drivers/STM32C0xx_HAL_Driver/Src/stm32c0xx_hal_dma.c **** 
 390              		.loc 1 231 3 view .LVU122
 233:Drivers/STM32C0xx_HAL_Driver/Src/stm32c0xx_hal_dma.c **** }
 391              		.loc 1 233 3 view .LVU123
 233:Drivers/STM32C0xx_HAL_Driver/Src/stm32c0xx_hal_dma.c **** }
 392              		.loc 1 233 10 is_stmt 0 view .LVU124
 393 0084 0020     		movs	r0, #0
 394              	.L15:
 234:Drivers/STM32C0xx_HAL_Driver/Src/stm32c0xx_hal_dma.c **** 
 395              		.loc 1 234 1 view .LVU125
 396              		@ sp needed
 397              	.LVL18:
 234:Drivers/STM32C0xx_HAL_Driver/Src/stm32c0xx_hal_dma.c **** 
 398              		.loc 1 234 1 view .LVU126
 399 0086 70BD     		pop	{r4, r5, r6, pc}
 400              	.LVL19:
 401              	.L20:
 195:Drivers/STM32C0xx_HAL_Driver/Src/stm32c0xx_hal_dma.c ****   }
 402              		.loc 1 195 5 is_stmt 1 view .LVU127
 195:Drivers/STM32C0xx_HAL_Driver/Src/stm32c0xx_hal_dma.c ****   }
 403              		.loc 1 195 24 is_stmt 0 view .LVU128
 404 0088 0023     		movs	r3, #0
 405 008a 6360     		str	r3, [r4, #4]
 406 008c E3E7     		b	.L16
 407              	.L21:
 209:Drivers/STM32C0xx_HAL_Driver/Src/stm32c0xx_hal_dma.c **** 
 408              		.loc 1 209 5 is_stmt 1 view .LVU129
 409 008e 2000     		movs	r0, r4
 410 0090 FFF7FEFF 		bl	DMA_CalcDMAMUXRequestGenBaseAndMask
 411              	.LVL20:
 212:Drivers/STM32C0xx_HAL_Driver/Src/stm32c0xx_hal_dma.c **** 
 412              		.loc 1 212 5 view .LVU130
 212:Drivers/STM32C0xx_HAL_Driver/Src/stm32c0xx_hal_dma.c **** 
 413              		.loc 1 212 9 is_stmt 0 view .LVU131
 414 0094 236D     		ldr	r3, [r4, #80]
 212:Drivers/STM32C0xx_HAL_Driver/Src/stm32c0xx_hal_dma.c **** 
ARM GAS  C:\Users\Yasi\AppData\Local\Temp\cc6toQyB.s 			page 28


 415              		.loc 1 212 34 view .LVU132
 416 0096 0022     		movs	r2, #0
 417 0098 1A60     		str	r2, [r3]
 215:Drivers/STM32C0xx_HAL_Driver/Src/stm32c0xx_hal_dma.c ****   }
 418              		.loc 1 215 5 is_stmt 1 view .LVU133
 215:Drivers/STM32C0xx_HAL_Driver/Src/stm32c0xx_hal_dma.c ****   }
 419              		.loc 1 215 9 is_stmt 0 view .LVU134
 420 009a 636D     		ldr	r3, [r4, #84]
 215:Drivers/STM32C0xx_HAL_Driver/Src/stm32c0xx_hal_dma.c ****   }
 421              		.loc 1 215 47 view .LVU135
 422 009c A26D     		ldr	r2, [r4, #88]
 215:Drivers/STM32C0xx_HAL_Driver/Src/stm32c0xx_hal_dma.c ****   }
 423              		.loc 1 215 41 view .LVU136
 424 009e 5A60     		str	r2, [r3, #4]
 425 00a0 E9E7     		b	.L18
 426              	.LVL21:
 427              	.L19:
 156:Drivers/STM32C0xx_HAL_Driver/Src/stm32c0xx_hal_dma.c ****   }
 428              		.loc 1 156 12 view .LVU137
 429 00a2 0120     		movs	r0, #1
 430              	.LVL22:
 156:Drivers/STM32C0xx_HAL_Driver/Src/stm32c0xx_hal_dma.c ****   }
 431              		.loc 1 156 12 view .LVU138
 432 00a4 EFE7     		b	.L15
 433              	.L23:
 434 00a6 C046     		.align	2
 435              	.L22:
 436 00a8 F8FFFDBF 		.word	-1073872904
 437 00ac 0F80FFFF 		.word	-32753
 438              		.cfi_endproc
 439              	.LFE214:
 441              		.section	.text.HAL_DMA_DeInit,"ax",%progbits
 442              		.align	1
 443              		.global	HAL_DMA_DeInit
 444              		.syntax unified
 445              		.code	16
 446              		.thumb_func
 448              	HAL_DMA_DeInit:
 449              	.LVL23:
 450              	.LFB215:
 243:Drivers/STM32C0xx_HAL_Driver/Src/stm32c0xx_hal_dma.c ****   /* Check the DMA handle allocation */
 451              		.loc 1 243 1 is_stmt 1 view -0
 452              		.cfi_startproc
 453              		@ args = 0, pretend = 0, frame = 0
 454              		@ frame_needed = 0, uses_anonymous_args = 0
 243:Drivers/STM32C0xx_HAL_Driver/Src/stm32c0xx_hal_dma.c ****   /* Check the DMA handle allocation */
 455              		.loc 1 243 1 is_stmt 0 view .LVU140
 456 0000 F8B5     		push	{r3, r4, r5, r6, r7, lr}
 457              	.LCFI3:
 458              		.cfi_def_cfa_offset 24
 459              		.cfi_offset 3, -24
 460              		.cfi_offset 4, -20
 461              		.cfi_offset 5, -16
 462              		.cfi_offset 6, -12
 463              		.cfi_offset 7, -8
 464              		.cfi_offset 14, -4
 465 0002 041E     		subs	r4, r0, #0
ARM GAS  C:\Users\Yasi\AppData\Local\Temp\cc6toQyB.s 			page 29


 245:Drivers/STM32C0xx_HAL_Driver/Src/stm32c0xx_hal_dma.c ****   {
 466              		.loc 1 245 3 is_stmt 1 view .LVU141
 245:Drivers/STM32C0xx_HAL_Driver/Src/stm32c0xx_hal_dma.c ****   {
 467              		.loc 1 245 6 is_stmt 0 view .LVU142
 468 0004 3BD0     		beq	.L27
 251:Drivers/STM32C0xx_HAL_Driver/Src/stm32c0xx_hal_dma.c **** 
 469              		.loc 1 251 3 is_stmt 1 view .LVU143
 254:Drivers/STM32C0xx_HAL_Driver/Src/stm32c0xx_hal_dma.c **** 
 470              		.loc 1 254 3 view .LVU144
 471 0006 0268     		ldr	r2, [r0]
 472 0008 1368     		ldr	r3, [r2]
 473 000a 0125     		movs	r5, #1
 474 000c AB43     		bics	r3, r5
 475 000e 1360     		str	r3, [r2]
 257:Drivers/STM32C0xx_HAL_Driver/Src/stm32c0xx_hal_dma.c ****                                                                                 (uint32_t)DMA1_Chan
 476              		.loc 1 257 3 view .LVU145
 257:Drivers/STM32C0xx_HAL_Driver/Src/stm32c0xx_hal_dma.c ****                                                                                 (uint32_t)DMA1_Chan
 477              		.loc 1 257 40 is_stmt 0 view .LVU146
 478 0010 0768     		ldr	r7, [r0]
 257:Drivers/STM32C0xx_HAL_Driver/Src/stm32c0xx_hal_dma.c ****                                                                                 (uint32_t)DMA1_Chan
 479              		.loc 1 257 51 view .LVU147
 480 0012 1C4B     		ldr	r3, .L29
 481 0014 F818     		adds	r0, r7, r3
 482              	.LVL24:
 257:Drivers/STM32C0xx_HAL_Driver/Src/stm32c0xx_hal_dma.c ****                                                                                 (uint32_t)DMA1_Chan
 483              		.loc 1 257 78 view .LVU148
 484 0016 1421     		movs	r1, #20
 485 0018 FFF7FEFF 		bl	__aeabi_uidiv
 486              	.LVL25:
 258:Drivers/STM32C0xx_HAL_Driver/Src/stm32c0xx_hal_dma.c **** 
 487              		.loc 1 258 107 view .LVU149
 488 001c 8000     		lsls	r0, r0, #2
 257:Drivers/STM32C0xx_HAL_Driver/Src/stm32c0xx_hal_dma.c ****                                                                                 (uint32_t)DMA1_Chan
 489              		.loc 1 257 22 view .LVU150
 490 001e 2064     		str	r0, [r4, #64]
 261:Drivers/STM32C0xx_HAL_Driver/Src/stm32c0xx_hal_dma.c **** 
 491              		.loc 1 261 3 is_stmt 1 view .LVU151
 261:Drivers/STM32C0xx_HAL_Driver/Src/stm32c0xx_hal_dma.c **** 
 492              		.loc 1 261 24 is_stmt 0 view .LVU152
 493 0020 0026     		movs	r6, #0
 494 0022 3E60     		str	r6, [r7]
 264:Drivers/STM32C0xx_HAL_Driver/Src/stm32c0xx_hal_dma.c **** 
 495              		.loc 1 264 3 is_stmt 1 view .LVU153
 496 0024 1849     		ldr	r1, .L29+4
 497 0026 4B68     		ldr	r3, [r1, #4]
 498 0028 206C     		ldr	r0, [r4, #64]
 499 002a 1C22     		movs	r2, #28
 500 002c 0240     		ands	r2, r0
 501 002e 9540     		lsls	r5, r5, r2
 502 0030 2B43     		orrs	r3, r5
 503 0032 4B60     		str	r3, [r1, #4]
 269:Drivers/STM32C0xx_HAL_Driver/Src/stm32c0xx_hal_dma.c **** 
 504              		.loc 1 269 3 view .LVU154
 505 0034 2000     		movs	r0, r4
 506 0036 FFF7FEFF 		bl	DMA_CalcDMAMUXChannelBaseAndMask
 507              	.LVL26:
 272:Drivers/STM32C0xx_HAL_Driver/Src/stm32c0xx_hal_dma.c **** 
ARM GAS  C:\Users\Yasi\AppData\Local\Temp\cc6toQyB.s 			page 30


 508              		.loc 1 272 3 view .LVU155
 272:Drivers/STM32C0xx_HAL_Driver/Src/stm32c0xx_hal_dma.c **** 
 509              		.loc 1 272 7 is_stmt 0 view .LVU156
 510 003a 636C     		ldr	r3, [r4, #68]
 272:Drivers/STM32C0xx_HAL_Driver/Src/stm32c0xx_hal_dma.c **** 
 511              		.loc 1 272 28 view .LVU157
 512 003c 1E60     		str	r6, [r3]
 275:Drivers/STM32C0xx_HAL_Driver/Src/stm32c0xx_hal_dma.c **** 
 513              		.loc 1 275 3 is_stmt 1 view .LVU158
 275:Drivers/STM32C0xx_HAL_Driver/Src/stm32c0xx_hal_dma.c **** 
 514              		.loc 1 275 7 is_stmt 0 view .LVU159
 515 003e A36C     		ldr	r3, [r4, #72]
 275:Drivers/STM32C0xx_HAL_Driver/Src/stm32c0xx_hal_dma.c **** 
 516              		.loc 1 275 40 view .LVU160
 517 0040 E26C     		ldr	r2, [r4, #76]
 275:Drivers/STM32C0xx_HAL_Driver/Src/stm32c0xx_hal_dma.c **** 
 518              		.loc 1 275 34 view .LVU161
 519 0042 5A60     		str	r2, [r3, #4]
 278:Drivers/STM32C0xx_HAL_Driver/Src/stm32c0xx_hal_dma.c ****   {
 520              		.loc 1 278 3 is_stmt 1 view .LVU162
 278:Drivers/STM32C0xx_HAL_Driver/Src/stm32c0xx_hal_dma.c ****   {
 521              		.loc 1 278 19 is_stmt 0 view .LVU163
 522 0044 6368     		ldr	r3, [r4, #4]
 278:Drivers/STM32C0xx_HAL_Driver/Src/stm32c0xx_hal_dma.c ****   {
 523              		.loc 1 278 36 view .LVU164
 524 0046 013B     		subs	r3, r3, #1
 278:Drivers/STM32C0xx_HAL_Driver/Src/stm32c0xx_hal_dma.c ****   {
 525              		.loc 1 278 6 view .LVU165
 526 0048 032B     		cmp	r3, #3
 527 004a 0ED9     		bls	.L28
 528              	.L26:
 293:Drivers/STM32C0xx_HAL_Driver/Src/stm32c0xx_hal_dma.c ****   hdma->XferHalfCpltCallback = NULL;
 529              		.loc 1 293 3 is_stmt 1 view .LVU166
 293:Drivers/STM32C0xx_HAL_Driver/Src/stm32c0xx_hal_dma.c ****   hdma->XferHalfCpltCallback = NULL;
 530              		.loc 1 293 26 is_stmt 0 view .LVU167
 531 004c 0023     		movs	r3, #0
 532 004e E362     		str	r3, [r4, #44]
 294:Drivers/STM32C0xx_HAL_Driver/Src/stm32c0xx_hal_dma.c ****   hdma->XferErrorCallback = NULL;
 533              		.loc 1 294 3 is_stmt 1 view .LVU168
 294:Drivers/STM32C0xx_HAL_Driver/Src/stm32c0xx_hal_dma.c ****   hdma->XferErrorCallback = NULL;
 534              		.loc 1 294 30 is_stmt 0 view .LVU169
 535 0050 2363     		str	r3, [r4, #48]
 295:Drivers/STM32C0xx_HAL_Driver/Src/stm32c0xx_hal_dma.c ****   hdma->XferAbortCallback = NULL;
 536              		.loc 1 295 3 is_stmt 1 view .LVU170
 295:Drivers/STM32C0xx_HAL_Driver/Src/stm32c0xx_hal_dma.c ****   hdma->XferAbortCallback = NULL;
 537              		.loc 1 295 27 is_stmt 0 view .LVU171
 538 0052 6363     		str	r3, [r4, #52]
 296:Drivers/STM32C0xx_HAL_Driver/Src/stm32c0xx_hal_dma.c **** 
 539              		.loc 1 296 3 is_stmt 1 view .LVU172
 296:Drivers/STM32C0xx_HAL_Driver/Src/stm32c0xx_hal_dma.c **** 
 540              		.loc 1 296 27 is_stmt 0 view .LVU173
 541 0054 A363     		str	r3, [r4, #56]
 298:Drivers/STM32C0xx_HAL_Driver/Src/stm32c0xx_hal_dma.c ****   hdma->DMAmuxRequestGenStatus = 0U;
 542              		.loc 1 298 3 is_stmt 1 view .LVU174
 298:Drivers/STM32C0xx_HAL_Driver/Src/stm32c0xx_hal_dma.c ****   hdma->DMAmuxRequestGenStatus = 0U;
 543              		.loc 1 298 26 is_stmt 0 view .LVU175
 544 0056 2365     		str	r3, [r4, #80]
ARM GAS  C:\Users\Yasi\AppData\Local\Temp\cc6toQyB.s 			page 31


 299:Drivers/STM32C0xx_HAL_Driver/Src/stm32c0xx_hal_dma.c ****   hdma->DMAmuxRequestGenStatusMask = 0U;
 545              		.loc 1 299 3 is_stmt 1 view .LVU176
 299:Drivers/STM32C0xx_HAL_Driver/Src/stm32c0xx_hal_dma.c ****   hdma->DMAmuxRequestGenStatusMask = 0U;
 546              		.loc 1 299 32 is_stmt 0 view .LVU177
 547 0058 6365     		str	r3, [r4, #84]
 300:Drivers/STM32C0xx_HAL_Driver/Src/stm32c0xx_hal_dma.c **** 
 548              		.loc 1 300 3 is_stmt 1 view .LVU178
 300:Drivers/STM32C0xx_HAL_Driver/Src/stm32c0xx_hal_dma.c **** 
 549              		.loc 1 300 36 is_stmt 0 view .LVU179
 550 005a A365     		str	r3, [r4, #88]
 303:Drivers/STM32C0xx_HAL_Driver/Src/stm32c0xx_hal_dma.c **** 
 551              		.loc 1 303 3 is_stmt 1 view .LVU180
 303:Drivers/STM32C0xx_HAL_Driver/Src/stm32c0xx_hal_dma.c **** 
 552              		.loc 1 303 19 is_stmt 0 view .LVU181
 553 005c E363     		str	r3, [r4, #60]
 306:Drivers/STM32C0xx_HAL_Driver/Src/stm32c0xx_hal_dma.c **** 
 554              		.loc 1 306 3 is_stmt 1 view .LVU182
 306:Drivers/STM32C0xx_HAL_Driver/Src/stm32c0xx_hal_dma.c **** 
 555              		.loc 1 306 15 is_stmt 0 view .LVU183
 556 005e 2522     		movs	r2, #37
 557 0060 A354     		strb	r3, [r4, r2]
 309:Drivers/STM32C0xx_HAL_Driver/Src/stm32c0xx_hal_dma.c **** 
 558              		.loc 1 309 3 is_stmt 1 view .LVU184
 309:Drivers/STM32C0xx_HAL_Driver/Src/stm32c0xx_hal_dma.c **** 
 559              		.loc 1 309 3 view .LVU185
 560 0062 013A     		subs	r2, r2, #1
 561 0064 A354     		strb	r3, [r4, r2]
 309:Drivers/STM32C0xx_HAL_Driver/Src/stm32c0xx_hal_dma.c **** 
 562              		.loc 1 309 3 view .LVU186
 311:Drivers/STM32C0xx_HAL_Driver/Src/stm32c0xx_hal_dma.c **** }
 563              		.loc 1 311 3 view .LVU187
 311:Drivers/STM32C0xx_HAL_Driver/Src/stm32c0xx_hal_dma.c **** }
 564              		.loc 1 311 10 is_stmt 0 view .LVU188
 565 0066 0020     		movs	r0, #0
 566              	.L25:
 312:Drivers/STM32C0xx_HAL_Driver/Src/stm32c0xx_hal_dma.c **** 
 567              		.loc 1 312 1 view .LVU189
 568              		@ sp needed
 569              	.LVL27:
 312:Drivers/STM32C0xx_HAL_Driver/Src/stm32c0xx_hal_dma.c **** 
 570              		.loc 1 312 1 view .LVU190
 571 0068 F8BD     		pop	{r3, r4, r5, r6, r7, pc}
 572              	.LVL28:
 573              	.L28:
 283:Drivers/STM32C0xx_HAL_Driver/Src/stm32c0xx_hal_dma.c **** 
 574              		.loc 1 283 5 is_stmt 1 view .LVU191
 575 006a 2000     		movs	r0, r4
 576 006c FFF7FEFF 		bl	DMA_CalcDMAMUXRequestGenBaseAndMask
 577              	.LVL29:
 286:Drivers/STM32C0xx_HAL_Driver/Src/stm32c0xx_hal_dma.c **** 
 578              		.loc 1 286 5 view .LVU192
 286:Drivers/STM32C0xx_HAL_Driver/Src/stm32c0xx_hal_dma.c **** 
 579              		.loc 1 286 9 is_stmt 0 view .LVU193
 580 0070 236D     		ldr	r3, [r4, #80]
 286:Drivers/STM32C0xx_HAL_Driver/Src/stm32c0xx_hal_dma.c **** 
 581              		.loc 1 286 34 view .LVU194
 582 0072 0022     		movs	r2, #0
ARM GAS  C:\Users\Yasi\AppData\Local\Temp\cc6toQyB.s 			page 32


 583 0074 1A60     		str	r2, [r3]
 289:Drivers/STM32C0xx_HAL_Driver/Src/stm32c0xx_hal_dma.c ****   }
 584              		.loc 1 289 5 is_stmt 1 view .LVU195
 289:Drivers/STM32C0xx_HAL_Driver/Src/stm32c0xx_hal_dma.c ****   }
 585              		.loc 1 289 9 is_stmt 0 view .LVU196
 586 0076 636D     		ldr	r3, [r4, #84]
 289:Drivers/STM32C0xx_HAL_Driver/Src/stm32c0xx_hal_dma.c ****   }
 587              		.loc 1 289 47 view .LVU197
 588 0078 A26D     		ldr	r2, [r4, #88]
 289:Drivers/STM32C0xx_HAL_Driver/Src/stm32c0xx_hal_dma.c ****   }
 589              		.loc 1 289 41 view .LVU198
 590 007a 5A60     		str	r2, [r3, #4]
 591 007c E6E7     		b	.L26
 592              	.LVL30:
 593              	.L27:
 247:Drivers/STM32C0xx_HAL_Driver/Src/stm32c0xx_hal_dma.c ****   }
 594              		.loc 1 247 12 view .LVU199
 595 007e 0120     		movs	r0, #1
 596              	.LVL31:
 247:Drivers/STM32C0xx_HAL_Driver/Src/stm32c0xx_hal_dma.c ****   }
 597              		.loc 1 247 12 view .LVU200
 598 0080 F2E7     		b	.L25
 599              	.L30:
 600 0082 C046     		.align	2
 601              	.L29:
 602 0084 F8FFFDBF 		.word	-1073872904
 603 0088 00000240 		.word	1073872896
 604              		.cfi_endproc
 605              	.LFE215:
 607              		.section	.text.HAL_DMA_Start,"ax",%progbits
 608              		.align	1
 609              		.global	HAL_DMA_Start
 610              		.syntax unified
 611              		.code	16
 612              		.thumb_func
 614              	HAL_DMA_Start:
 615              	.LVL32:
 616              	.LFB216:
 347:Drivers/STM32C0xx_HAL_Driver/Src/stm32c0xx_hal_dma.c ****   HAL_StatusTypeDef status = HAL_OK;
 617              		.loc 1 347 1 is_stmt 1 view -0
 618              		.cfi_startproc
 619              		@ args = 0, pretend = 0, frame = 0
 620              		@ frame_needed = 0, uses_anonymous_args = 0
 347:Drivers/STM32C0xx_HAL_Driver/Src/stm32c0xx_hal_dma.c ****   HAL_StatusTypeDef status = HAL_OK;
 621              		.loc 1 347 1 is_stmt 0 view .LVU202
 622 0000 70B5     		push	{r4, r5, r6, lr}
 623              	.LCFI4:
 624              		.cfi_def_cfa_offset 16
 625              		.cfi_offset 4, -16
 626              		.cfi_offset 5, -12
 627              		.cfi_offset 6, -8
 628              		.cfi_offset 14, -4
 629 0002 0400     		movs	r4, r0
 348:Drivers/STM32C0xx_HAL_Driver/Src/stm32c0xx_hal_dma.c **** 
 630              		.loc 1 348 3 is_stmt 1 view .LVU203
 631              	.LVL33:
 351:Drivers/STM32C0xx_HAL_Driver/Src/stm32c0xx_hal_dma.c **** 
ARM GAS  C:\Users\Yasi\AppData\Local\Temp\cc6toQyB.s 			page 33


 632              		.loc 1 351 3 view .LVU204
 354:Drivers/STM32C0xx_HAL_Driver/Src/stm32c0xx_hal_dma.c **** 
 633              		.loc 1 354 3 view .LVU205
 354:Drivers/STM32C0xx_HAL_Driver/Src/stm32c0xx_hal_dma.c **** 
 634              		.loc 1 354 3 view .LVU206
 635 0004 2420     		movs	r0, #36
 636              	.LVL34:
 354:Drivers/STM32C0xx_HAL_Driver/Src/stm32c0xx_hal_dma.c **** 
 637              		.loc 1 354 3 is_stmt 0 view .LVU207
 638 0006 205C     		ldrb	r0, [r4, r0]
 639 0008 0128     		cmp	r0, #1
 640 000a 21D0     		beq	.L35
 354:Drivers/STM32C0xx_HAL_Driver/Src/stm32c0xx_hal_dma.c **** 
 641              		.loc 1 354 3 is_stmt 1 discriminator 2 view .LVU208
 642 000c 2420     		movs	r0, #36
 643 000e 0125     		movs	r5, #1
 644 0010 2554     		strb	r5, [r4, r0]
 354:Drivers/STM32C0xx_HAL_Driver/Src/stm32c0xx_hal_dma.c **** 
 645              		.loc 1 354 3 discriminator 2 view .LVU209
 356:Drivers/STM32C0xx_HAL_Driver/Src/stm32c0xx_hal_dma.c ****   {
 646              		.loc 1 356 3 view .LVU210
 356:Drivers/STM32C0xx_HAL_Driver/Src/stm32c0xx_hal_dma.c ****   {
 647              		.loc 1 356 34 is_stmt 0 view .LVU211
 648 0012 0130     		adds	r0, r0, #1
 649 0014 205C     		ldrb	r0, [r4, r0]
 356:Drivers/STM32C0xx_HAL_Driver/Src/stm32c0xx_hal_dma.c ****   {
 650              		.loc 1 356 6 view .LVU212
 651 0016 0128     		cmp	r0, #1
 652 0018 07D0     		beq	.L36
 374:Drivers/STM32C0xx_HAL_Driver/Src/stm32c0xx_hal_dma.c ****     status = HAL_BUSY;
 653              		.loc 1 374 5 is_stmt 1 view .LVU213
 374:Drivers/STM32C0xx_HAL_Driver/Src/stm32c0xx_hal_dma.c ****     status = HAL_BUSY;
 654              		.loc 1 374 5 view .LVU214
 655 001a 2423     		movs	r3, #36
 656              	.LVL35:
 374:Drivers/STM32C0xx_HAL_Driver/Src/stm32c0xx_hal_dma.c ****     status = HAL_BUSY;
 657              		.loc 1 374 5 is_stmt 0 view .LVU215
 658 001c 0022     		movs	r2, #0
 659              	.LVL36:
 374:Drivers/STM32C0xx_HAL_Driver/Src/stm32c0xx_hal_dma.c ****     status = HAL_BUSY;
 660              		.loc 1 374 5 view .LVU216
 661 001e E254     		strb	r2, [r4, r3]
 374:Drivers/STM32C0xx_HAL_Driver/Src/stm32c0xx_hal_dma.c ****     status = HAL_BUSY;
 662              		.loc 1 374 5 is_stmt 1 view .LVU217
 375:Drivers/STM32C0xx_HAL_Driver/Src/stm32c0xx_hal_dma.c ****   }
 663              		.loc 1 375 5 view .LVU218
 664              	.LVL37:
 375:Drivers/STM32C0xx_HAL_Driver/Src/stm32c0xx_hal_dma.c ****   }
 665              		.loc 1 375 12 is_stmt 0 view .LVU219
 666 0020 0220     		movs	r0, #2
 667              	.LVL38:
 668              	.L34:
 379:Drivers/STM32C0xx_HAL_Driver/Src/stm32c0xx_hal_dma.c **** 
 669              		.loc 1 379 3 is_stmt 1 view .LVU220
 379:Drivers/STM32C0xx_HAL_Driver/Src/stm32c0xx_hal_dma.c **** 
 670              		.loc 1 379 3 view .LVU221
 671 0022 2423     		movs	r3, #36
ARM GAS  C:\Users\Yasi\AppData\Local\Temp\cc6toQyB.s 			page 34


 672 0024 0022     		movs	r2, #0
 673 0026 E254     		strb	r2, [r4, r3]
 379:Drivers/STM32C0xx_HAL_Driver/Src/stm32c0xx_hal_dma.c **** 
 674              		.loc 1 379 3 view .LVU222
 381:Drivers/STM32C0xx_HAL_Driver/Src/stm32c0xx_hal_dma.c **** }
 675              		.loc 1 381 3 view .LVU223
 676              	.LVL39:
 677              	.L32:
 382:Drivers/STM32C0xx_HAL_Driver/Src/stm32c0xx_hal_dma.c **** 
 678              		.loc 1 382 1 is_stmt 0 view .LVU224
 679              		@ sp needed
 680              	.LVL40:
 382:Drivers/STM32C0xx_HAL_Driver/Src/stm32c0xx_hal_dma.c **** 
 681              		.loc 1 382 1 view .LVU225
 682 0028 70BD     		pop	{r4, r5, r6, pc}
 683              	.LVL41:
 684              	.L36:
 359:Drivers/STM32C0xx_HAL_Driver/Src/stm32c0xx_hal_dma.c ****     hdma->ErrorCode = HAL_DMA_ERROR_NONE;
 685              		.loc 1 359 5 is_stmt 1 view .LVU226
 359:Drivers/STM32C0xx_HAL_Driver/Src/stm32c0xx_hal_dma.c ****     hdma->ErrorCode = HAL_DMA_ERROR_NONE;
 686              		.loc 1 359 17 is_stmt 0 view .LVU227
 687 002a 2430     		adds	r0, r0, #36
 688 002c 0135     		adds	r5, r5, #1
 689 002e 2554     		strb	r5, [r4, r0]
 360:Drivers/STM32C0xx_HAL_Driver/Src/stm32c0xx_hal_dma.c **** 
 690              		.loc 1 360 5 is_stmt 1 view .LVU228
 360:Drivers/STM32C0xx_HAL_Driver/Src/stm32c0xx_hal_dma.c **** 
 691              		.loc 1 360 21 is_stmt 0 view .LVU229
 692 0030 0020     		movs	r0, #0
 693 0032 E063     		str	r0, [r4, #60]
 363:Drivers/STM32C0xx_HAL_Driver/Src/stm32c0xx_hal_dma.c **** 
 694              		.loc 1 363 5 is_stmt 1 view .LVU230
 695 0034 2668     		ldr	r6, [r4]
 696 0036 3068     		ldr	r0, [r6]
 697 0038 013D     		subs	r5, r5, #1
 698 003a A843     		bics	r0, r5
 699 003c 3060     		str	r0, [r6]
 366:Drivers/STM32C0xx_HAL_Driver/Src/stm32c0xx_hal_dma.c **** 
 700              		.loc 1 366 5 view .LVU231
 701 003e 2000     		movs	r0, r4
 702 0040 FFF7FEFF 		bl	DMA_SetConfig
 703              	.LVL42:
 369:Drivers/STM32C0xx_HAL_Driver/Src/stm32c0xx_hal_dma.c ****   }
 704              		.loc 1 369 5 view .LVU232
 705 0044 2268     		ldr	r2, [r4]
 706 0046 1368     		ldr	r3, [r2]
 707 0048 2B43     		orrs	r3, r5
 708 004a 1360     		str	r3, [r2]
 348:Drivers/STM32C0xx_HAL_Driver/Src/stm32c0xx_hal_dma.c **** 
 709              		.loc 1 348 21 is_stmt 0 view .LVU233
 710 004c 0020     		movs	r0, #0
 711 004e E8E7     		b	.L34
 712              	.LVL43:
 713              	.L35:
 354:Drivers/STM32C0xx_HAL_Driver/Src/stm32c0xx_hal_dma.c **** 
 714              		.loc 1 354 3 discriminator 1 view .LVU234
 715 0050 0220     		movs	r0, #2
ARM GAS  C:\Users\Yasi\AppData\Local\Temp\cc6toQyB.s 			page 35


 716 0052 E9E7     		b	.L32
 717              		.cfi_endproc
 718              	.LFE216:
 720              		.section	.text.HAL_DMA_Start_IT,"ax",%progbits
 721              		.align	1
 722              		.global	HAL_DMA_Start_IT
 723              		.syntax unified
 724              		.code	16
 725              		.thumb_func
 727              	HAL_DMA_Start_IT:
 728              	.LVL44:
 729              	.LFB217:
 395:Drivers/STM32C0xx_HAL_Driver/Src/stm32c0xx_hal_dma.c ****   HAL_StatusTypeDef status = HAL_OK;
 730              		.loc 1 395 1 is_stmt 1 view -0
 731              		.cfi_startproc
 732              		@ args = 0, pretend = 0, frame = 0
 733              		@ frame_needed = 0, uses_anonymous_args = 0
 395:Drivers/STM32C0xx_HAL_Driver/Src/stm32c0xx_hal_dma.c ****   HAL_StatusTypeDef status = HAL_OK;
 734              		.loc 1 395 1 is_stmt 0 view .LVU236
 735 0000 70B5     		push	{r4, r5, r6, lr}
 736              	.LCFI5:
 737              		.cfi_def_cfa_offset 16
 738              		.cfi_offset 4, -16
 739              		.cfi_offset 5, -12
 740              		.cfi_offset 6, -8
 741              		.cfi_offset 14, -4
 742 0002 0400     		movs	r4, r0
 396:Drivers/STM32C0xx_HAL_Driver/Src/stm32c0xx_hal_dma.c **** 
 743              		.loc 1 396 3 is_stmt 1 view .LVU237
 744              	.LVL45:
 399:Drivers/STM32C0xx_HAL_Driver/Src/stm32c0xx_hal_dma.c **** 
 745              		.loc 1 399 3 view .LVU238
 402:Drivers/STM32C0xx_HAL_Driver/Src/stm32c0xx_hal_dma.c **** 
 746              		.loc 1 402 3 view .LVU239
 402:Drivers/STM32C0xx_HAL_Driver/Src/stm32c0xx_hal_dma.c **** 
 747              		.loc 1 402 3 view .LVU240
 748 0004 2420     		movs	r0, #36
 749              	.LVL46:
 402:Drivers/STM32C0xx_HAL_Driver/Src/stm32c0xx_hal_dma.c **** 
 750              		.loc 1 402 3 is_stmt 0 view .LVU241
 751 0006 205C     		ldrb	r0, [r4, r0]
 752 0008 0128     		cmp	r0, #1
 753 000a 46D0     		beq	.L45
 402:Drivers/STM32C0xx_HAL_Driver/Src/stm32c0xx_hal_dma.c **** 
 754              		.loc 1 402 3 is_stmt 1 discriminator 2 view .LVU242
 755 000c 2420     		movs	r0, #36
 756 000e 0125     		movs	r5, #1
 757 0010 2554     		strb	r5, [r4, r0]
 402:Drivers/STM32C0xx_HAL_Driver/Src/stm32c0xx_hal_dma.c **** 
 758              		.loc 1 402 3 discriminator 2 view .LVU243
 404:Drivers/STM32C0xx_HAL_Driver/Src/stm32c0xx_hal_dma.c ****   {
 759              		.loc 1 404 3 view .LVU244
 404:Drivers/STM32C0xx_HAL_Driver/Src/stm32c0xx_hal_dma.c ****   {
 760              		.loc 1 404 34 is_stmt 0 view .LVU245
 761 0012 0130     		adds	r0, r0, #1
 762 0014 205C     		ldrb	r0, [r4, r0]
 404:Drivers/STM32C0xx_HAL_Driver/Src/stm32c0xx_hal_dma.c ****   {
ARM GAS  C:\Users\Yasi\AppData\Local\Temp\cc6toQyB.s 			page 36


 763              		.loc 1 404 6 view .LVU246
 764 0016 0128     		cmp	r0, #1
 765 0018 07D0     		beq	.L47
 449:Drivers/STM32C0xx_HAL_Driver/Src/stm32c0xx_hal_dma.c **** 
 766              		.loc 1 449 5 is_stmt 1 view .LVU247
 449:Drivers/STM32C0xx_HAL_Driver/Src/stm32c0xx_hal_dma.c **** 
 767              		.loc 1 449 5 view .LVU248
 768 001a 2423     		movs	r3, #36
 769              	.LVL47:
 449:Drivers/STM32C0xx_HAL_Driver/Src/stm32c0xx_hal_dma.c **** 
 770              		.loc 1 449 5 is_stmt 0 view .LVU249
 771 001c 0022     		movs	r2, #0
 772              	.LVL48:
 449:Drivers/STM32C0xx_HAL_Driver/Src/stm32c0xx_hal_dma.c **** 
 773              		.loc 1 449 5 view .LVU250
 774 001e E254     		strb	r2, [r4, r3]
 449:Drivers/STM32C0xx_HAL_Driver/Src/stm32c0xx_hal_dma.c **** 
 775              		.loc 1 449 5 is_stmt 1 view .LVU251
 452:Drivers/STM32C0xx_HAL_Driver/Src/stm32c0xx_hal_dma.c ****   }
 776              		.loc 1 452 5 view .LVU252
 777              	.LVL49:
 452:Drivers/STM32C0xx_HAL_Driver/Src/stm32c0xx_hal_dma.c ****   }
 778              		.loc 1 452 12 is_stmt 0 view .LVU253
 779 0020 0220     		movs	r0, #2
 780              	.LVL50:
 781              	.L44:
 456:Drivers/STM32C0xx_HAL_Driver/Src/stm32c0xx_hal_dma.c **** 
 782              		.loc 1 456 3 is_stmt 1 view .LVU254
 456:Drivers/STM32C0xx_HAL_Driver/Src/stm32c0xx_hal_dma.c **** 
 783              		.loc 1 456 3 view .LVU255
 784 0022 2423     		movs	r3, #36
 785 0024 0022     		movs	r2, #0
 786 0026 E254     		strb	r2, [r4, r3]
 456:Drivers/STM32C0xx_HAL_Driver/Src/stm32c0xx_hal_dma.c **** 
 787              		.loc 1 456 3 view .LVU256
 458:Drivers/STM32C0xx_HAL_Driver/Src/stm32c0xx_hal_dma.c **** }
 788              		.loc 1 458 3 view .LVU257
 789              	.LVL51:
 790              	.L38:
 459:Drivers/STM32C0xx_HAL_Driver/Src/stm32c0xx_hal_dma.c **** 
 791              		.loc 1 459 1 is_stmt 0 view .LVU258
 792              		@ sp needed
 793              	.LVL52:
 459:Drivers/STM32C0xx_HAL_Driver/Src/stm32c0xx_hal_dma.c **** 
 794              		.loc 1 459 1 view .LVU259
 795 0028 70BD     		pop	{r4, r5, r6, pc}
 796              	.LVL53:
 797              	.L47:
 407:Drivers/STM32C0xx_HAL_Driver/Src/stm32c0xx_hal_dma.c ****     hdma->ErrorCode = HAL_DMA_ERROR_NONE;
 798              		.loc 1 407 5 is_stmt 1 view .LVU260
 407:Drivers/STM32C0xx_HAL_Driver/Src/stm32c0xx_hal_dma.c ****     hdma->ErrorCode = HAL_DMA_ERROR_NONE;
 799              		.loc 1 407 17 is_stmt 0 view .LVU261
 800 002a 2430     		adds	r0, r0, #36
 801 002c 0135     		adds	r5, r5, #1
 802 002e 2554     		strb	r5, [r4, r0]
 408:Drivers/STM32C0xx_HAL_Driver/Src/stm32c0xx_hal_dma.c **** 
 803              		.loc 1 408 5 is_stmt 1 view .LVU262
ARM GAS  C:\Users\Yasi\AppData\Local\Temp\cc6toQyB.s 			page 37


 408:Drivers/STM32C0xx_HAL_Driver/Src/stm32c0xx_hal_dma.c **** 
 804              		.loc 1 408 21 is_stmt 0 view .LVU263
 805 0030 0020     		movs	r0, #0
 806 0032 E063     		str	r0, [r4, #60]
 411:Drivers/STM32C0xx_HAL_Driver/Src/stm32c0xx_hal_dma.c **** 
 807              		.loc 1 411 5 is_stmt 1 view .LVU264
 808 0034 2568     		ldr	r5, [r4]
 809 0036 2868     		ldr	r0, [r5]
 810 0038 0126     		movs	r6, #1
 811 003a B043     		bics	r0, r6
 812 003c 2860     		str	r0, [r5]
 414:Drivers/STM32C0xx_HAL_Driver/Src/stm32c0xx_hal_dma.c **** 
 813              		.loc 1 414 5 view .LVU265
 814 003e 2000     		movs	r0, r4
 815 0040 FFF7FEFF 		bl	DMA_SetConfig
 816              	.LVL54:
 418:Drivers/STM32C0xx_HAL_Driver/Src/stm32c0xx_hal_dma.c ****     {
 817              		.loc 1 418 5 view .LVU266
 418:Drivers/STM32C0xx_HAL_Driver/Src/stm32c0xx_hal_dma.c ****     {
 818              		.loc 1 418 21 is_stmt 0 view .LVU267
 819 0044 236B     		ldr	r3, [r4, #48]
 418:Drivers/STM32C0xx_HAL_Driver/Src/stm32c0xx_hal_dma.c ****     {
 820              		.loc 1 418 8 view .LVU268
 821 0046 002B     		cmp	r3, #0
 822 0048 1CD0     		beq	.L40
 421:Drivers/STM32C0xx_HAL_Driver/Src/stm32c0xx_hal_dma.c ****     }
 823              		.loc 1 421 7 is_stmt 1 view .LVU269
 824 004a 2268     		ldr	r2, [r4]
 825 004c 1368     		ldr	r3, [r2]
 826 004e 0E21     		movs	r1, #14
 827 0050 0B43     		orrs	r3, r1
 828 0052 1360     		str	r3, [r2]
 829              	.L41:
 430:Drivers/STM32C0xx_HAL_Driver/Src/stm32c0xx_hal_dma.c ****     {
 830              		.loc 1 430 5 view .LVU270
 430:Drivers/STM32C0xx_HAL_Driver/Src/stm32c0xx_hal_dma.c ****     {
 831              		.loc 1 430 14 is_stmt 0 view .LVU271
 832 0054 626C     		ldr	r2, [r4, #68]
 430:Drivers/STM32C0xx_HAL_Driver/Src/stm32c0xx_hal_dma.c ****     {
 833              		.loc 1 430 29 view .LVU272
 834 0056 1368     		ldr	r3, [r2]
 430:Drivers/STM32C0xx_HAL_Driver/Src/stm32c0xx_hal_dma.c ****     {
 835              		.loc 1 430 8 view .LVU273
 836 0058 DB03     		lsls	r3, r3, #15
 837 005a 04D5     		bpl	.L42
 433:Drivers/STM32C0xx_HAL_Driver/Src/stm32c0xx_hal_dma.c ****     }
 838              		.loc 1 433 7 is_stmt 1 view .LVU274
 433:Drivers/STM32C0xx_HAL_Driver/Src/stm32c0xx_hal_dma.c ****     }
 839              		.loc 1 433 26 is_stmt 0 view .LVU275
 840 005c 1168     		ldr	r1, [r2]
 433:Drivers/STM32C0xx_HAL_Driver/Src/stm32c0xx_hal_dma.c ****     }
 841              		.loc 1 433 32 view .LVU276
 842 005e 8023     		movs	r3, #128
 843 0060 5B00     		lsls	r3, r3, #1
 844 0062 0B43     		orrs	r3, r1
 845 0064 1360     		str	r3, [r2]
 846              	.L42:
ARM GAS  C:\Users\Yasi\AppData\Local\Temp\cc6toQyB.s 			page 38


 436:Drivers/STM32C0xx_HAL_Driver/Src/stm32c0xx_hal_dma.c ****     {
 847              		.loc 1 436 5 is_stmt 1 view .LVU277
 436:Drivers/STM32C0xx_HAL_Driver/Src/stm32c0xx_hal_dma.c ****     {
 848              		.loc 1 436 13 is_stmt 0 view .LVU278
 849 0066 236D     		ldr	r3, [r4, #80]
 436:Drivers/STM32C0xx_HAL_Driver/Src/stm32c0xx_hal_dma.c ****     {
 850              		.loc 1 436 8 view .LVU279
 851 0068 002B     		cmp	r3, #0
 852 006a 04D0     		beq	.L43
 440:Drivers/STM32C0xx_HAL_Driver/Src/stm32c0xx_hal_dma.c ****     }
 853              		.loc 1 440 7 is_stmt 1 view .LVU280
 440:Drivers/STM32C0xx_HAL_Driver/Src/stm32c0xx_hal_dma.c ****     }
 854              		.loc 1 440 29 is_stmt 0 view .LVU281
 855 006c 1968     		ldr	r1, [r3]
 440:Drivers/STM32C0xx_HAL_Driver/Src/stm32c0xx_hal_dma.c ****     }
 856              		.loc 1 440 36 view .LVU282
 857 006e 8022     		movs	r2, #128
 858 0070 5200     		lsls	r2, r2, #1
 859 0072 0A43     		orrs	r2, r1
 860 0074 1A60     		str	r2, [r3]
 861              	.L43:
 444:Drivers/STM32C0xx_HAL_Driver/Src/stm32c0xx_hal_dma.c ****   }
 862              		.loc 1 444 5 is_stmt 1 view .LVU283
 863 0076 2268     		ldr	r2, [r4]
 864 0078 1368     		ldr	r3, [r2]
 865 007a 0121     		movs	r1, #1
 866 007c 0B43     		orrs	r3, r1
 867 007e 1360     		str	r3, [r2]
 396:Drivers/STM32C0xx_HAL_Driver/Src/stm32c0xx_hal_dma.c **** 
 868              		.loc 1 396 21 is_stmt 0 view .LVU284
 869 0080 0020     		movs	r0, #0
 870 0082 CEE7     		b	.L44
 871              	.L40:
 425:Drivers/STM32C0xx_HAL_Driver/Src/stm32c0xx_hal_dma.c ****       __HAL_DMA_ENABLE_IT(hdma, (DMA_IT_TC | DMA_IT_TE));
 872              		.loc 1 425 7 is_stmt 1 view .LVU285
 873 0084 2268     		ldr	r2, [r4]
 874 0086 1368     		ldr	r3, [r2]
 875 0088 0421     		movs	r1, #4
 876 008a 8B43     		bics	r3, r1
 877 008c 1360     		str	r3, [r2]
 426:Drivers/STM32C0xx_HAL_Driver/Src/stm32c0xx_hal_dma.c ****     }
 878              		.loc 1 426 7 view .LVU286
 879 008e 2268     		ldr	r2, [r4]
 880 0090 1368     		ldr	r3, [r2]
 881 0092 0631     		adds	r1, r1, #6
 882 0094 0B43     		orrs	r3, r1
 883 0096 1360     		str	r3, [r2]
 884 0098 DCE7     		b	.L41
 885              	.LVL55:
 886              	.L45:
 402:Drivers/STM32C0xx_HAL_Driver/Src/stm32c0xx_hal_dma.c **** 
 887              		.loc 1 402 3 is_stmt 0 discriminator 1 view .LVU287
 888 009a 0220     		movs	r0, #2
 889 009c C4E7     		b	.L38
 890              		.cfi_endproc
 891              	.LFE217:
 893              		.section	.text.HAL_DMA_Abort,"ax",%progbits
ARM GAS  C:\Users\Yasi\AppData\Local\Temp\cc6toQyB.s 			page 39


 894              		.align	1
 895              		.global	HAL_DMA_Abort
 896              		.syntax unified
 897              		.code	16
 898              		.thumb_func
 900              	HAL_DMA_Abort:
 901              	.LVL56:
 902              	.LFB218:
 468:Drivers/STM32C0xx_HAL_Driver/Src/stm32c0xx_hal_dma.c ****   /* Check the DMA peripheral handle */
 903              		.loc 1 468 1 is_stmt 1 view -0
 904              		.cfi_startproc
 905              		@ args = 0, pretend = 0, frame = 0
 906              		@ frame_needed = 0, uses_anonymous_args = 0
 468:Drivers/STM32C0xx_HAL_Driver/Src/stm32c0xx_hal_dma.c ****   /* Check the DMA peripheral handle */
 907              		.loc 1 468 1 is_stmt 0 view .LVU289
 908 0000 30B5     		push	{r4, r5, lr}
 909              	.LCFI6:
 910              		.cfi_def_cfa_offset 12
 911              		.cfi_offset 4, -12
 912              		.cfi_offset 5, -8
 913              		.cfi_offset 14, -4
 470:Drivers/STM32C0xx_HAL_Driver/Src/stm32c0xx_hal_dma.c ****   {
 914              		.loc 1 470 3 is_stmt 1 view .LVU290
 470:Drivers/STM32C0xx_HAL_Driver/Src/stm32c0xx_hal_dma.c ****   {
 915              		.loc 1 470 6 is_stmt 0 view .LVU291
 916 0002 0028     		cmp	r0, #0
 917 0004 36D0     		beq	.L52
 476:Drivers/STM32C0xx_HAL_Driver/Src/stm32c0xx_hal_dma.c ****   {
 918              		.loc 1 476 3 is_stmt 1 view .LVU292
 476:Drivers/STM32C0xx_HAL_Driver/Src/stm32c0xx_hal_dma.c ****   {
 919              		.loc 1 476 11 is_stmt 0 view .LVU293
 920 0006 2523     		movs	r3, #37
 921 0008 C35C     		ldrb	r3, [r0, r3]
 476:Drivers/STM32C0xx_HAL_Driver/Src/stm32c0xx_hal_dma.c ****   {
 922              		.loc 1 476 6 view .LVU294
 923 000a 022B     		cmp	r3, #2
 924 000c 06D0     		beq	.L50
 478:Drivers/STM32C0xx_HAL_Driver/Src/stm32c0xx_hal_dma.c **** 
 925              		.loc 1 478 5 is_stmt 1 view .LVU295
 478:Drivers/STM32C0xx_HAL_Driver/Src/stm32c0xx_hal_dma.c **** 
 926              		.loc 1 478 21 is_stmt 0 view .LVU296
 927 000e 0423     		movs	r3, #4
 928 0010 C363     		str	r3, [r0, #60]
 481:Drivers/STM32C0xx_HAL_Driver/Src/stm32c0xx_hal_dma.c **** 
 929              		.loc 1 481 5 is_stmt 1 view .LVU297
 481:Drivers/STM32C0xx_HAL_Driver/Src/stm32c0xx_hal_dma.c **** 
 930              		.loc 1 481 5 view .LVU298
 931 0012 2033     		adds	r3, r3, #32
 932 0014 0022     		movs	r2, #0
 933 0016 C254     		strb	r2, [r0, r3]
 481:Drivers/STM32C0xx_HAL_Driver/Src/stm32c0xx_hal_dma.c **** 
 934              		.loc 1 481 5 view .LVU299
 483:Drivers/STM32C0xx_HAL_Driver/Src/stm32c0xx_hal_dma.c ****   }
 935              		.loc 1 483 5 view .LVU300
 483:Drivers/STM32C0xx_HAL_Driver/Src/stm32c0xx_hal_dma.c ****   }
 936              		.loc 1 483 12 is_stmt 0 view .LVU301
 937 0018 0120     		movs	r0, #1
ARM GAS  C:\Users\Yasi\AppData\Local\Temp\cc6toQyB.s 			page 40


 938              	.LVL57:
 939              	.L49:
 520:Drivers/STM32C0xx_HAL_Driver/Src/stm32c0xx_hal_dma.c **** 
 940              		.loc 1 520 1 view .LVU302
 941              		@ sp needed
 942 001a 30BD     		pop	{r4, r5, pc}
 943              	.LVL58:
 944              	.L50:
 488:Drivers/STM32C0xx_HAL_Driver/Src/stm32c0xx_hal_dma.c **** 
 945              		.loc 1 488 5 is_stmt 1 view .LVU303
 946 001c 0268     		ldr	r2, [r0]
 947 001e 1368     		ldr	r3, [r2]
 948 0020 0E21     		movs	r1, #14
 949 0022 8B43     		bics	r3, r1
 950 0024 1360     		str	r3, [r2]
 491:Drivers/STM32C0xx_HAL_Driver/Src/stm32c0xx_hal_dma.c **** 
 951              		.loc 1 491 5 view .LVU304
 491:Drivers/STM32C0xx_HAL_Driver/Src/stm32c0xx_hal_dma.c **** 
 952              		.loc 1 491 9 is_stmt 0 view .LVU305
 953 0026 426C     		ldr	r2, [r0, #68]
 491:Drivers/STM32C0xx_HAL_Driver/Src/stm32c0xx_hal_dma.c **** 
 954              		.loc 1 491 24 view .LVU306
 955 0028 1368     		ldr	r3, [r2]
 491:Drivers/STM32C0xx_HAL_Driver/Src/stm32c0xx_hal_dma.c **** 
 956              		.loc 1 491 30 view .LVU307
 957 002a 1349     		ldr	r1, .L53
 958 002c 0B40     		ands	r3, r1
 959 002e 1360     		str	r3, [r2]
 494:Drivers/STM32C0xx_HAL_Driver/Src/stm32c0xx_hal_dma.c **** 
 960              		.loc 1 494 5 is_stmt 1 view .LVU308
 961 0030 0168     		ldr	r1, [r0]
 962 0032 0A68     		ldr	r2, [r1]
 963 0034 0123     		movs	r3, #1
 964 0036 9A43     		bics	r2, r3
 965 0038 0A60     		str	r2, [r1]
 497:Drivers/STM32C0xx_HAL_Driver/Src/stm32c0xx_hal_dma.c **** 
 966              		.loc 1 497 5 view .LVU309
 967 003a 104C     		ldr	r4, .L53+4
 968 003c 6268     		ldr	r2, [r4, #4]
 969 003e 056C     		ldr	r5, [r0, #64]
 970 0040 1C21     		movs	r1, #28
 971 0042 2940     		ands	r1, r5
 972 0044 8B40     		lsls	r3, r3, r1
 973 0046 1343     		orrs	r3, r2
 974 0048 6360     		str	r3, [r4, #4]
 500:Drivers/STM32C0xx_HAL_Driver/Src/stm32c0xx_hal_dma.c **** 
 975              		.loc 1 500 5 view .LVU310
 500:Drivers/STM32C0xx_HAL_Driver/Src/stm32c0xx_hal_dma.c **** 
 976              		.loc 1 500 9 is_stmt 0 view .LVU311
 977 004a 836C     		ldr	r3, [r0, #72]
 500:Drivers/STM32C0xx_HAL_Driver/Src/stm32c0xx_hal_dma.c **** 
 978              		.loc 1 500 42 view .LVU312
 979 004c C26C     		ldr	r2, [r0, #76]
 500:Drivers/STM32C0xx_HAL_Driver/Src/stm32c0xx_hal_dma.c **** 
 980              		.loc 1 500 36 view .LVU313
 981 004e 5A60     		str	r2, [r3, #4]
 502:Drivers/STM32C0xx_HAL_Driver/Src/stm32c0xx_hal_dma.c ****     {
ARM GAS  C:\Users\Yasi\AppData\Local\Temp\cc6toQyB.s 			page 41


 982              		.loc 1 502 5 is_stmt 1 view .LVU314
 502:Drivers/STM32C0xx_HAL_Driver/Src/stm32c0xx_hal_dma.c ****     {
 983              		.loc 1 502 13 is_stmt 0 view .LVU315
 984 0050 036D     		ldr	r3, [r0, #80]
 502:Drivers/STM32C0xx_HAL_Driver/Src/stm32c0xx_hal_dma.c ****     {
 985              		.loc 1 502 8 view .LVU316
 986 0052 002B     		cmp	r3, #0
 987 0054 06D0     		beq	.L51
 506:Drivers/STM32C0xx_HAL_Driver/Src/stm32c0xx_hal_dma.c **** 
 988              		.loc 1 506 7 is_stmt 1 view .LVU317
 506:Drivers/STM32C0xx_HAL_Driver/Src/stm32c0xx_hal_dma.c **** 
 989              		.loc 1 506 29 is_stmt 0 view .LVU318
 990 0056 1A68     		ldr	r2, [r3]
 506:Drivers/STM32C0xx_HAL_Driver/Src/stm32c0xx_hal_dma.c **** 
 991              		.loc 1 506 36 view .LVU319
 992 0058 0749     		ldr	r1, .L53
 993 005a 0A40     		ands	r2, r1
 994 005c 1A60     		str	r2, [r3]
 509:Drivers/STM32C0xx_HAL_Driver/Src/stm32c0xx_hal_dma.c ****     }
 995              		.loc 1 509 7 is_stmt 1 view .LVU320
 509:Drivers/STM32C0xx_HAL_Driver/Src/stm32c0xx_hal_dma.c ****     }
 996              		.loc 1 509 11 is_stmt 0 view .LVU321
 997 005e 436D     		ldr	r3, [r0, #84]
 509:Drivers/STM32C0xx_HAL_Driver/Src/stm32c0xx_hal_dma.c ****     }
 998              		.loc 1 509 49 view .LVU322
 999 0060 826D     		ldr	r2, [r0, #88]
 509:Drivers/STM32C0xx_HAL_Driver/Src/stm32c0xx_hal_dma.c ****     }
 1000              		.loc 1 509 43 view .LVU323
 1001 0062 5A60     		str	r2, [r3, #4]
 1002              	.L51:
 513:Drivers/STM32C0xx_HAL_Driver/Src/stm32c0xx_hal_dma.c **** 
 1003              		.loc 1 513 5 is_stmt 1 view .LVU324
 513:Drivers/STM32C0xx_HAL_Driver/Src/stm32c0xx_hal_dma.c **** 
 1004              		.loc 1 513 17 is_stmt 0 view .LVU325
 1005 0064 2523     		movs	r3, #37
 1006 0066 0122     		movs	r2, #1
 1007 0068 C254     		strb	r2, [r0, r3]
 516:Drivers/STM32C0xx_HAL_Driver/Src/stm32c0xx_hal_dma.c ****   }
 1008              		.loc 1 516 5 is_stmt 1 view .LVU326
 516:Drivers/STM32C0xx_HAL_Driver/Src/stm32c0xx_hal_dma.c ****   }
 1009              		.loc 1 516 5 view .LVU327
 1010 006a 013B     		subs	r3, r3, #1
 1011 006c 0022     		movs	r2, #0
 1012 006e C254     		strb	r2, [r0, r3]
 516:Drivers/STM32C0xx_HAL_Driver/Src/stm32c0xx_hal_dma.c ****   }
 1013              		.loc 1 516 5 view .LVU328
 519:Drivers/STM32C0xx_HAL_Driver/Src/stm32c0xx_hal_dma.c **** }
 1014              		.loc 1 519 3 view .LVU329
 519:Drivers/STM32C0xx_HAL_Driver/Src/stm32c0xx_hal_dma.c **** }
 1015              		.loc 1 519 10 is_stmt 0 view .LVU330
 1016 0070 0020     		movs	r0, #0
 1017              	.LVL59:
 519:Drivers/STM32C0xx_HAL_Driver/Src/stm32c0xx_hal_dma.c **** }
 1018              		.loc 1 519 10 view .LVU331
 1019 0072 D2E7     		b	.L49
 1020              	.LVL60:
 1021              	.L52:
ARM GAS  C:\Users\Yasi\AppData\Local\Temp\cc6toQyB.s 			page 42


 472:Drivers/STM32C0xx_HAL_Driver/Src/stm32c0xx_hal_dma.c ****   }
 1022              		.loc 1 472 12 view .LVU332
 1023 0074 0120     		movs	r0, #1
 1024              	.LVL61:
 472:Drivers/STM32C0xx_HAL_Driver/Src/stm32c0xx_hal_dma.c ****   }
 1025              		.loc 1 472 12 view .LVU333
 1026 0076 D0E7     		b	.L49
 1027              	.L54:
 1028              		.align	2
 1029              	.L53:
 1030 0078 FFFEFFFF 		.word	-257
 1031 007c 00000240 		.word	1073872896
 1032              		.cfi_endproc
 1033              	.LFE218:
 1035              		.section	.text.HAL_DMA_Abort_IT,"ax",%progbits
 1036              		.align	1
 1037              		.global	HAL_DMA_Abort_IT
 1038              		.syntax unified
 1039              		.code	16
 1040              		.thumb_func
 1042              	HAL_DMA_Abort_IT:
 1043              	.LVL62:
 1044              	.LFB219:
 529:Drivers/STM32C0xx_HAL_Driver/Src/stm32c0xx_hal_dma.c ****   HAL_StatusTypeDef status = HAL_OK;
 1045              		.loc 1 529 1 is_stmt 1 view -0
 1046              		.cfi_startproc
 1047              		@ args = 0, pretend = 0, frame = 0
 1048              		@ frame_needed = 0, uses_anonymous_args = 0
 529:Drivers/STM32C0xx_HAL_Driver/Src/stm32c0xx_hal_dma.c ****   HAL_StatusTypeDef status = HAL_OK;
 1049              		.loc 1 529 1 is_stmt 0 view .LVU335
 1050 0000 70B5     		push	{r4, r5, r6, lr}
 1051              	.LCFI7:
 1052              		.cfi_def_cfa_offset 16
 1053              		.cfi_offset 4, -16
 1054              		.cfi_offset 5, -12
 1055              		.cfi_offset 6, -8
 1056              		.cfi_offset 14, -4
 530:Drivers/STM32C0xx_HAL_Driver/Src/stm32c0xx_hal_dma.c **** 
 1057              		.loc 1 530 3 is_stmt 1 view .LVU336
 1058              	.LVL63:
 533:Drivers/STM32C0xx_HAL_Driver/Src/stm32c0xx_hal_dma.c ****   __HAL_LOCK(hdma);
 1059              		.loc 1 533 3 view .LVU337
 533:Drivers/STM32C0xx_HAL_Driver/Src/stm32c0xx_hal_dma.c ****   __HAL_LOCK(hdma);
 1060              		.loc 1 533 3 view .LVU338
 1061 0002 2423     		movs	r3, #36
 1062 0004 0022     		movs	r2, #0
 1063 0006 C254     		strb	r2, [r0, r3]
 533:Drivers/STM32C0xx_HAL_Driver/Src/stm32c0xx_hal_dma.c ****   __HAL_LOCK(hdma);
 1064              		.loc 1 533 3 view .LVU339
 534:Drivers/STM32C0xx_HAL_Driver/Src/stm32c0xx_hal_dma.c **** 
 1065              		.loc 1 534 3 view .LVU340
 534:Drivers/STM32C0xx_HAL_Driver/Src/stm32c0xx_hal_dma.c **** 
 1066              		.loc 1 534 3 view .LVU341
 534:Drivers/STM32C0xx_HAL_Driver/Src/stm32c0xx_hal_dma.c **** 
 1067              		.loc 1 534 3 discriminator 2 view .LVU342
 1068 0008 0132     		adds	r2, r2, #1
 1069 000a C254     		strb	r2, [r0, r3]
ARM GAS  C:\Users\Yasi\AppData\Local\Temp\cc6toQyB.s 			page 43


 534:Drivers/STM32C0xx_HAL_Driver/Src/stm32c0xx_hal_dma.c **** 
 1070              		.loc 1 534 3 discriminator 2 view .LVU343
 536:Drivers/STM32C0xx_HAL_Driver/Src/stm32c0xx_hal_dma.c ****   {
 1071              		.loc 1 536 3 view .LVU344
 536:Drivers/STM32C0xx_HAL_Driver/Src/stm32c0xx_hal_dma.c ****   {
 1072              		.loc 1 536 33 is_stmt 0 view .LVU345
 1073 000c 0133     		adds	r3, r3, #1
 1074 000e C35C     		ldrb	r3, [r0, r3]
 536:Drivers/STM32C0xx_HAL_Driver/Src/stm32c0xx_hal_dma.c ****   {
 1075              		.loc 1 536 6 view .LVU346
 1076 0010 022B     		cmp	r3, #2
 1077 0012 03D0     		beq	.L56
 539:Drivers/STM32C0xx_HAL_Driver/Src/stm32c0xx_hal_dma.c **** 
 1078              		.loc 1 539 5 is_stmt 1 view .LVU347
 539:Drivers/STM32C0xx_HAL_Driver/Src/stm32c0xx_hal_dma.c **** 
 1079              		.loc 1 539 21 is_stmt 0 view .LVU348
 1080 0014 0423     		movs	r3, #4
 1081 0016 C363     		str	r3, [r0, #60]
 541:Drivers/STM32C0xx_HAL_Driver/Src/stm32c0xx_hal_dma.c ****   }
 1082              		.loc 1 541 5 is_stmt 1 view .LVU349
 1083              	.LVL64:
 541:Drivers/STM32C0xx_HAL_Driver/Src/stm32c0xx_hal_dma.c ****   }
 1084              		.loc 1 541 12 is_stmt 0 view .LVU350
 1085 0018 0120     		movs	r0, #1
 1086              	.LVL65:
 1087              	.L57:
 582:Drivers/STM32C0xx_HAL_Driver/Src/stm32c0xx_hal_dma.c **** }
 1088              		.loc 1 582 3 is_stmt 1 view .LVU351
 583:Drivers/STM32C0xx_HAL_Driver/Src/stm32c0xx_hal_dma.c **** 
 1089              		.loc 1 583 1 is_stmt 0 view .LVU352
 1090              		@ sp needed
 1091 001a 70BD     		pop	{r4, r5, r6, pc}
 1092              	.LVL66:
 1093              	.L56:
 546:Drivers/STM32C0xx_HAL_Driver/Src/stm32c0xx_hal_dma.c **** 
 1094              		.loc 1 546 5 is_stmt 1 view .LVU353
 1095 001c 0268     		ldr	r2, [r0]
 1096 001e 1368     		ldr	r3, [r2]
 1097 0020 0E21     		movs	r1, #14
 1098 0022 8B43     		bics	r3, r1
 1099 0024 1360     		str	r3, [r2]
 549:Drivers/STM32C0xx_HAL_Driver/Src/stm32c0xx_hal_dma.c **** 
 1100              		.loc 1 549 5 view .LVU354
 1101 0026 0168     		ldr	r1, [r0]
 1102 0028 0A68     		ldr	r2, [r1]
 1103 002a 0123     		movs	r3, #1
 1104 002c 9A43     		bics	r2, r3
 1105 002e 0A60     		str	r2, [r1]
 552:Drivers/STM32C0xx_HAL_Driver/Src/stm32c0xx_hal_dma.c **** 
 1106              		.loc 1 552 5 view .LVU355
 552:Drivers/STM32C0xx_HAL_Driver/Src/stm32c0xx_hal_dma.c **** 
 1107              		.loc 1 552 9 is_stmt 0 view .LVU356
 1108 0030 416C     		ldr	r1, [r0, #68]
 552:Drivers/STM32C0xx_HAL_Driver/Src/stm32c0xx_hal_dma.c **** 
 1109              		.loc 1 552 24 view .LVU357
 1110 0032 0A68     		ldr	r2, [r1]
 552:Drivers/STM32C0xx_HAL_Driver/Src/stm32c0xx_hal_dma.c **** 
ARM GAS  C:\Users\Yasi\AppData\Local\Temp\cc6toQyB.s 			page 44


 1111              		.loc 1 552 30 view .LVU358
 1112 0034 124C     		ldr	r4, .L60
 1113 0036 2240     		ands	r2, r4
 1114 0038 0A60     		str	r2, [r1]
 555:Drivers/STM32C0xx_HAL_Driver/Src/stm32c0xx_hal_dma.c **** 
 1115              		.loc 1 555 5 is_stmt 1 view .LVU359
 1116 003a 124C     		ldr	r4, .L60+4
 1117 003c 6268     		ldr	r2, [r4, #4]
 1118 003e 056C     		ldr	r5, [r0, #64]
 1119 0040 1C21     		movs	r1, #28
 1120 0042 2940     		ands	r1, r5
 1121 0044 8B40     		lsls	r3, r3, r1
 1122 0046 1343     		orrs	r3, r2
 1123 0048 6360     		str	r3, [r4, #4]
 558:Drivers/STM32C0xx_HAL_Driver/Src/stm32c0xx_hal_dma.c **** 
 1124              		.loc 1 558 5 view .LVU360
 558:Drivers/STM32C0xx_HAL_Driver/Src/stm32c0xx_hal_dma.c **** 
 1125              		.loc 1 558 9 is_stmt 0 view .LVU361
 1126 004a 836C     		ldr	r3, [r0, #72]
 558:Drivers/STM32C0xx_HAL_Driver/Src/stm32c0xx_hal_dma.c **** 
 1127              		.loc 1 558 42 view .LVU362
 1128 004c C26C     		ldr	r2, [r0, #76]
 558:Drivers/STM32C0xx_HAL_Driver/Src/stm32c0xx_hal_dma.c **** 
 1129              		.loc 1 558 36 view .LVU363
 1130 004e 5A60     		str	r2, [r3, #4]
 560:Drivers/STM32C0xx_HAL_Driver/Src/stm32c0xx_hal_dma.c ****     {
 1131              		.loc 1 560 5 is_stmt 1 view .LVU364
 560:Drivers/STM32C0xx_HAL_Driver/Src/stm32c0xx_hal_dma.c ****     {
 1132              		.loc 1 560 13 is_stmt 0 view .LVU365
 1133 0050 036D     		ldr	r3, [r0, #80]
 560:Drivers/STM32C0xx_HAL_Driver/Src/stm32c0xx_hal_dma.c ****     {
 1134              		.loc 1 560 8 view .LVU366
 1135 0052 002B     		cmp	r3, #0
 1136 0054 06D0     		beq	.L58
 564:Drivers/STM32C0xx_HAL_Driver/Src/stm32c0xx_hal_dma.c **** 
 1137              		.loc 1 564 7 is_stmt 1 view .LVU367
 564:Drivers/STM32C0xx_HAL_Driver/Src/stm32c0xx_hal_dma.c **** 
 1138              		.loc 1 564 29 is_stmt 0 view .LVU368
 1139 0056 1A68     		ldr	r2, [r3]
 564:Drivers/STM32C0xx_HAL_Driver/Src/stm32c0xx_hal_dma.c **** 
 1140              		.loc 1 564 36 view .LVU369
 1141 0058 0949     		ldr	r1, .L60
 1142 005a 0A40     		ands	r2, r1
 1143 005c 1A60     		str	r2, [r3]
 567:Drivers/STM32C0xx_HAL_Driver/Src/stm32c0xx_hal_dma.c ****     }
 1144              		.loc 1 567 7 is_stmt 1 view .LVU370
 567:Drivers/STM32C0xx_HAL_Driver/Src/stm32c0xx_hal_dma.c ****     }
 1145              		.loc 1 567 11 is_stmt 0 view .LVU371
 1146 005e 436D     		ldr	r3, [r0, #84]
 567:Drivers/STM32C0xx_HAL_Driver/Src/stm32c0xx_hal_dma.c ****     }
 1147              		.loc 1 567 49 view .LVU372
 1148 0060 826D     		ldr	r2, [r0, #88]
 567:Drivers/STM32C0xx_HAL_Driver/Src/stm32c0xx_hal_dma.c ****     }
 1149              		.loc 1 567 43 view .LVU373
 1150 0062 5A60     		str	r2, [r3, #4]
 1151              	.L58:
 571:Drivers/STM32C0xx_HAL_Driver/Src/stm32c0xx_hal_dma.c **** 
ARM GAS  C:\Users\Yasi\AppData\Local\Temp\cc6toQyB.s 			page 45


 1152              		.loc 1 571 5 is_stmt 1 view .LVU374
 571:Drivers/STM32C0xx_HAL_Driver/Src/stm32c0xx_hal_dma.c **** 
 1153              		.loc 1 571 17 is_stmt 0 view .LVU375
 1154 0064 2523     		movs	r3, #37
 1155 0066 0122     		movs	r2, #1
 1156 0068 C254     		strb	r2, [r0, r3]
 574:Drivers/STM32C0xx_HAL_Driver/Src/stm32c0xx_hal_dma.c **** 
 1157              		.loc 1 574 5 is_stmt 1 view .LVU376
 574:Drivers/STM32C0xx_HAL_Driver/Src/stm32c0xx_hal_dma.c **** 
 1158              		.loc 1 574 5 view .LVU377
 1159 006a 013B     		subs	r3, r3, #1
 1160 006c 0022     		movs	r2, #0
 1161 006e C254     		strb	r2, [r0, r3]
 574:Drivers/STM32C0xx_HAL_Driver/Src/stm32c0xx_hal_dma.c **** 
 1162              		.loc 1 574 5 view .LVU378
 577:Drivers/STM32C0xx_HAL_Driver/Src/stm32c0xx_hal_dma.c ****     {
 1163              		.loc 1 577 5 view .LVU379
 577:Drivers/STM32C0xx_HAL_Driver/Src/stm32c0xx_hal_dma.c ****     {
 1164              		.loc 1 577 13 is_stmt 0 view .LVU380
 1165 0070 836B     		ldr	r3, [r0, #56]
 577:Drivers/STM32C0xx_HAL_Driver/Src/stm32c0xx_hal_dma.c ****     {
 1166              		.loc 1 577 8 view .LVU381
 1167 0072 002B     		cmp	r3, #0
 1168 0074 02D0     		beq	.L59
 579:Drivers/STM32C0xx_HAL_Driver/Src/stm32c0xx_hal_dma.c ****     }
 1169              		.loc 1 579 7 is_stmt 1 view .LVU382
 1170 0076 9847     		blx	r3
 1171              	.LVL67:
 530:Drivers/STM32C0xx_HAL_Driver/Src/stm32c0xx_hal_dma.c **** 
 1172              		.loc 1 530 21 is_stmt 0 view .LVU383
 1173 0078 0020     		movs	r0, #0
 1174 007a CEE7     		b	.L57
 1175              	.LVL68:
 1176              	.L59:
 530:Drivers/STM32C0xx_HAL_Driver/Src/stm32c0xx_hal_dma.c **** 
 1177              		.loc 1 530 21 view .LVU384
 1178 007c 0020     		movs	r0, #0
 1179              	.LVL69:
 530:Drivers/STM32C0xx_HAL_Driver/Src/stm32c0xx_hal_dma.c **** 
 1180              		.loc 1 530 21 view .LVU385
 1181 007e CCE7     		b	.L57
 1182              	.L61:
 1183              		.align	2
 1184              	.L60:
 1185 0080 FFFEFFFF 		.word	-257
 1186 0084 00000240 		.word	1073872896
 1187              		.cfi_endproc
 1188              	.LFE219:
 1190              		.section	.text.HAL_DMA_PollForTransfer,"ax",%progbits
 1191              		.align	1
 1192              		.global	HAL_DMA_PollForTransfer
 1193              		.syntax unified
 1194              		.code	16
 1195              		.thumb_func
 1197              	HAL_DMA_PollForTransfer:
 1198              	.LVL70:
 1199              	.LFB220:
ARM GAS  C:\Users\Yasi\AppData\Local\Temp\cc6toQyB.s 			page 46


 595:Drivers/STM32C0xx_HAL_Driver/Src/stm32c0xx_hal_dma.c ****   uint32_t temp;
 1200              		.loc 1 595 1 is_stmt 1 view -0
 1201              		.cfi_startproc
 1202              		@ args = 0, pretend = 0, frame = 8
 1203              		@ frame_needed = 0, uses_anonymous_args = 0
 595:Drivers/STM32C0xx_HAL_Driver/Src/stm32c0xx_hal_dma.c ****   uint32_t temp;
 1204              		.loc 1 595 1 is_stmt 0 view .LVU387
 1205 0000 F0B5     		push	{r4, r5, r6, r7, lr}
 1206              	.LCFI8:
 1207              		.cfi_def_cfa_offset 20
 1208              		.cfi_offset 4, -20
 1209              		.cfi_offset 5, -16
 1210              		.cfi_offset 6, -12
 1211              		.cfi_offset 7, -8
 1212              		.cfi_offset 14, -4
 1213 0002 83B0     		sub	sp, sp, #12
 1214              	.LCFI9:
 1215              		.cfi_def_cfa_offset 32
 1216 0004 0600     		movs	r6, r0
 1217 0006 0C00     		movs	r4, r1
 1218 0008 1700     		movs	r7, r2
 596:Drivers/STM32C0xx_HAL_Driver/Src/stm32c0xx_hal_dma.c ****   uint32_t tickstart;
 1219              		.loc 1 596 3 is_stmt 1 view .LVU388
 597:Drivers/STM32C0xx_HAL_Driver/Src/stm32c0xx_hal_dma.c **** 
 1220              		.loc 1 597 3 view .LVU389
 600:Drivers/STM32C0xx_HAL_Driver/Src/stm32c0xx_hal_dma.c **** 
 1221              		.loc 1 600 3 view .LVU390
 600:Drivers/STM32C0xx_HAL_Driver/Src/stm32c0xx_hal_dma.c **** 
 1222              		.loc 1 600 3 view .LVU391
 1223 000a 2423     		movs	r3, #36
 1224 000c 0022     		movs	r2, #0
 1225              	.LVL71:
 600:Drivers/STM32C0xx_HAL_Driver/Src/stm32c0xx_hal_dma.c **** 
 1226              		.loc 1 600 3 is_stmt 0 view .LVU392
 1227 000e C254     		strb	r2, [r0, r3]
 600:Drivers/STM32C0xx_HAL_Driver/Src/stm32c0xx_hal_dma.c **** 
 1228              		.loc 1 600 3 is_stmt 1 view .LVU393
 602:Drivers/STM32C0xx_HAL_Driver/Src/stm32c0xx_hal_dma.c ****   {
 1229              		.loc 1 602 3 view .LVU394
 602:Drivers/STM32C0xx_HAL_Driver/Src/stm32c0xx_hal_dma.c ****   {
 1230              		.loc 1 602 33 is_stmt 0 view .LVU395
 1231 0010 0133     		adds	r3, r3, #1
 1232 0012 C35C     		ldrb	r3, [r0, r3]
 602:Drivers/STM32C0xx_HAL_Driver/Src/stm32c0xx_hal_dma.c ****   {
 1233              		.loc 1 602 6 view .LVU396
 1234 0014 022B     		cmp	r3, #2
 1235 0016 04D0     		beq	.L63
 605:Drivers/STM32C0xx_HAL_Driver/Src/stm32c0xx_hal_dma.c ****     __HAL_UNLOCK(hdma);
 1236              		.loc 1 605 5 is_stmt 1 view .LVU397
 605:Drivers/STM32C0xx_HAL_Driver/Src/stm32c0xx_hal_dma.c ****     __HAL_UNLOCK(hdma);
 1237              		.loc 1 605 21 is_stmt 0 view .LVU398
 1238 0018 0423     		movs	r3, #4
 1239 001a C363     		str	r3, [r0, #60]
 606:Drivers/STM32C0xx_HAL_Driver/Src/stm32c0xx_hal_dma.c ****     return HAL_ERROR;
 1240              		.loc 1 606 5 is_stmt 1 view .LVU399
 606:Drivers/STM32C0xx_HAL_Driver/Src/stm32c0xx_hal_dma.c ****     return HAL_ERROR;
 1241              		.loc 1 606 5 view .LVU400
ARM GAS  C:\Users\Yasi\AppData\Local\Temp\cc6toQyB.s 			page 47


 606:Drivers/STM32C0xx_HAL_Driver/Src/stm32c0xx_hal_dma.c ****     return HAL_ERROR;
 1242              		.loc 1 606 5 view .LVU401
 607:Drivers/STM32C0xx_HAL_Driver/Src/stm32c0xx_hal_dma.c ****   }
 1243              		.loc 1 607 5 view .LVU402
 607:Drivers/STM32C0xx_HAL_Driver/Src/stm32c0xx_hal_dma.c ****   }
 1244              		.loc 1 607 12 is_stmt 0 view .LVU403
 1245 001c 0120     		movs	r0, #1
 1246              	.LVL72:
 1247              	.L64:
 717:Drivers/STM32C0xx_HAL_Driver/Src/stm32c0xx_hal_dma.c **** 
 1248              		.loc 1 717 1 view .LVU404
 1249 001e 03B0     		add	sp, sp, #12
 1250              		@ sp needed
 1251              	.LVL73:
 1252              	.LVL74:
 717:Drivers/STM32C0xx_HAL_Driver/Src/stm32c0xx_hal_dma.c **** 
 1253              		.loc 1 717 1 view .LVU405
 1254 0020 F0BD     		pop	{r4, r5, r6, r7, pc}
 1255              	.LVL75:
 1256              	.L63:
 611:Drivers/STM32C0xx_HAL_Driver/Src/stm32c0xx_hal_dma.c ****   {
 1257              		.loc 1 611 3 is_stmt 1 view .LVU406
 611:Drivers/STM32C0xx_HAL_Driver/Src/stm32c0xx_hal_dma.c ****   {
 1258              		.loc 1 611 12 is_stmt 0 view .LVU407
 1259 0022 0368     		ldr	r3, [r0]
 611:Drivers/STM32C0xx_HAL_Driver/Src/stm32c0xx_hal_dma.c ****   {
 1260              		.loc 1 611 22 view .LVU408
 1261 0024 1B68     		ldr	r3, [r3]
 611:Drivers/STM32C0xx_HAL_Driver/Src/stm32c0xx_hal_dma.c ****   {
 1262              		.loc 1 611 6 view .LVU409
 1263 0026 9B06     		lsls	r3, r3, #26
 1264 0028 2AD4     		bmi	.L78
 618:Drivers/STM32C0xx_HAL_Driver/Src/stm32c0xx_hal_dma.c ****   {
 1265              		.loc 1 618 3 is_stmt 1 view .LVU410
 618:Drivers/STM32C0xx_HAL_Driver/Src/stm32c0xx_hal_dma.c ****   {
 1266              		.loc 1 618 6 is_stmt 0 view .LVU411
 1267 002a 0029     		cmp	r1, #0
 1268 002c 2DD1     		bne	.L66
 621:Drivers/STM32C0xx_HAL_Driver/Src/stm32c0xx_hal_dma.c ****   }
 1269              		.loc 1 621 5 is_stmt 1 view .LVU412
 621:Drivers/STM32C0xx_HAL_Driver/Src/stm32c0xx_hal_dma.c ****   }
 1270              		.loc 1 621 33 is_stmt 0 view .LVU413
 1271 002e 026C     		ldr	r2, [r0, #64]
 621:Drivers/STM32C0xx_HAL_Driver/Src/stm32c0xx_hal_dma.c ****   }
 1272              		.loc 1 621 48 view .LVU414
 1273 0030 1C23     		movs	r3, #28
 1274 0032 1340     		ands	r3, r2
 621:Drivers/STM32C0xx_HAL_Driver/Src/stm32c0xx_hal_dma.c ****   }
 1275              		.loc 1 621 10 view .LVU415
 1276 0034 0225     		movs	r5, #2
 1277 0036 9D40     		lsls	r5, r5, r3
 1278              	.LVL76:
 1279              	.L67:
 630:Drivers/STM32C0xx_HAL_Driver/Src/stm32c0xx_hal_dma.c **** 
 1280              		.loc 1 630 3 is_stmt 1 view .LVU416
 630:Drivers/STM32C0xx_HAL_Driver/Src/stm32c0xx_hal_dma.c **** 
 1281              		.loc 1 630 15 is_stmt 0 view .LVU417
ARM GAS  C:\Users\Yasi\AppData\Local\Temp\cc6toQyB.s 			page 48


 1282 0038 FFF7FEFF 		bl	HAL_GetTick
 1283              	.LVL77:
 630:Drivers/STM32C0xx_HAL_Driver/Src/stm32c0xx_hal_dma.c **** 
 1284              		.loc 1 630 15 view .LVU418
 1285 003c 0190     		str	r0, [sp, #4]
 1286              	.LVL78:
 632:Drivers/STM32C0xx_HAL_Driver/Src/stm32c0xx_hal_dma.c ****   {
 1287              		.loc 1 632 3 is_stmt 1 view .LVU419
 1288              	.L70:
 632:Drivers/STM32C0xx_HAL_Driver/Src/stm32c0xx_hal_dma.c ****   {
 1289              		.loc 1 632 13 view .LVU420
 632:Drivers/STM32C0xx_HAL_Driver/Src/stm32c0xx_hal_dma.c ****   {
 1290              		.loc 1 632 16 is_stmt 0 view .LVU421
 1291 003e 3C4B     		ldr	r3, .L81
 1292 0040 1B68     		ldr	r3, [r3]
 632:Drivers/STM32C0xx_HAL_Driver/Src/stm32c0xx_hal_dma.c ****   {
 1293              		.loc 1 632 13 view .LVU422
 1294 0042 1D42     		tst	r5, r3
 1295 0044 37D1     		bne	.L79
 634:Drivers/STM32C0xx_HAL_Driver/Src/stm32c0xx_hal_dma.c ****     {
 1296              		.loc 1 634 5 is_stmt 1 view .LVU423
 634:Drivers/STM32C0xx_HAL_Driver/Src/stm32c0xx_hal_dma.c ****     {
 1297              		.loc 1 634 15 is_stmt 0 view .LVU424
 1298 0046 3A4B     		ldr	r3, .L81
 1299 0048 1A68     		ldr	r2, [r3]
 1300 004a 316C     		ldr	r1, [r6, #64]
 1301 004c 1C23     		movs	r3, #28
 1302 004e 0B40     		ands	r3, r1
 1303 0050 0821     		movs	r1, #8
 1304 0052 9940     		lsls	r1, r1, r3
 634:Drivers/STM32C0xx_HAL_Driver/Src/stm32c0xx_hal_dma.c ****     {
 1305              		.loc 1 634 8 view .LVU425
 1306 0054 1142     		tst	r1, r2
 1307 0056 1ED1     		bne	.L80
 653:Drivers/STM32C0xx_HAL_Driver/Src/stm32c0xx_hal_dma.c ****     {
 1308              		.loc 1 653 5 is_stmt 1 view .LVU426
 653:Drivers/STM32C0xx_HAL_Driver/Src/stm32c0xx_hal_dma.c ****     {
 1309              		.loc 1 653 8 is_stmt 0 view .LVU427
 1310 0058 7B1C     		adds	r3, r7, #1
 1311 005a F0D0     		beq	.L70
 655:Drivers/STM32C0xx_HAL_Driver/Src/stm32c0xx_hal_dma.c ****       {
 1312              		.loc 1 655 7 is_stmt 1 view .LVU428
 655:Drivers/STM32C0xx_HAL_Driver/Src/stm32c0xx_hal_dma.c ****       {
 1313              		.loc 1 655 13 is_stmt 0 view .LVU429
 1314 005c FFF7FEFF 		bl	HAL_GetTick
 1315              	.LVL79:
 655:Drivers/STM32C0xx_HAL_Driver/Src/stm32c0xx_hal_dma.c ****       {
 1316              		.loc 1 655 27 discriminator 1 view .LVU430
 1317 0060 019B     		ldr	r3, [sp, #4]
 1318 0062 C01A     		subs	r0, r0, r3
 655:Drivers/STM32C0xx_HAL_Driver/Src/stm32c0xx_hal_dma.c ****       {
 1319              		.loc 1 655 10 discriminator 1 view .LVU431
 1320 0064 B842     		cmp	r0, r7
 1321 0066 01D8     		bhi	.L71
 655:Drivers/STM32C0xx_HAL_Driver/Src/stm32c0xx_hal_dma.c ****       {
 1322              		.loc 1 655 51 discriminator 1 view .LVU432
 1323 0068 002F     		cmp	r7, #0
ARM GAS  C:\Users\Yasi\AppData\Local\Temp\cc6toQyB.s 			page 49


 1324 006a E8D1     		bne	.L70
 1325              	.L71:
 658:Drivers/STM32C0xx_HAL_Driver/Src/stm32c0xx_hal_dma.c **** 
 1326              		.loc 1 658 9 is_stmt 1 view .LVU433
 658:Drivers/STM32C0xx_HAL_Driver/Src/stm32c0xx_hal_dma.c **** 
 1327              		.loc 1 658 25 is_stmt 0 view .LVU434
 1328 006c 2023     		movs	r3, #32
 1329 006e F363     		str	r3, [r6, #60]
 661:Drivers/STM32C0xx_HAL_Driver/Src/stm32c0xx_hal_dma.c **** 
 1330              		.loc 1 661 9 is_stmt 1 view .LVU435
 661:Drivers/STM32C0xx_HAL_Driver/Src/stm32c0xx_hal_dma.c **** 
 1331              		.loc 1 661 21 is_stmt 0 view .LVU436
 1332 0070 0533     		adds	r3, r3, #5
 1333 0072 0122     		movs	r2, #1
 1334 0074 F254     		strb	r2, [r6, r3]
 664:Drivers/STM32C0xx_HAL_Driver/Src/stm32c0xx_hal_dma.c **** 
 1335              		.loc 1 664 9 is_stmt 1 view .LVU437
 664:Drivers/STM32C0xx_HAL_Driver/Src/stm32c0xx_hal_dma.c **** 
 1336              		.loc 1 664 9 view .LVU438
 1337 0076 013B     		subs	r3, r3, #1
 1338 0078 0022     		movs	r2, #0
 1339 007a F254     		strb	r2, [r6, r3]
 664:Drivers/STM32C0xx_HAL_Driver/Src/stm32c0xx_hal_dma.c **** 
 1340              		.loc 1 664 9 view .LVU439
 666:Drivers/STM32C0xx_HAL_Driver/Src/stm32c0xx_hal_dma.c ****       }
 1341              		.loc 1 666 9 view .LVU440
 666:Drivers/STM32C0xx_HAL_Driver/Src/stm32c0xx_hal_dma.c ****       }
 1342              		.loc 1 666 16 is_stmt 0 view .LVU441
 1343 007c 0120     		movs	r0, #1
 1344 007e CEE7     		b	.L64
 1345              	.LVL80:
 1346              	.L78:
 613:Drivers/STM32C0xx_HAL_Driver/Src/stm32c0xx_hal_dma.c ****     return HAL_ERROR;
 1347              		.loc 1 613 5 is_stmt 1 view .LVU442
 613:Drivers/STM32C0xx_HAL_Driver/Src/stm32c0xx_hal_dma.c ****     return HAL_ERROR;
 1348              		.loc 1 613 21 is_stmt 0 view .LVU443
 1349 0080 8023     		movs	r3, #128
 1350 0082 5B00     		lsls	r3, r3, #1
 1351 0084 C363     		str	r3, [r0, #60]
 614:Drivers/STM32C0xx_HAL_Driver/Src/stm32c0xx_hal_dma.c ****   }
 1352              		.loc 1 614 5 is_stmt 1 view .LVU444
 614:Drivers/STM32C0xx_HAL_Driver/Src/stm32c0xx_hal_dma.c ****   }
 1353              		.loc 1 614 12 is_stmt 0 view .LVU445
 1354 0086 0120     		movs	r0, #1
 1355              	.LVL81:
 614:Drivers/STM32C0xx_HAL_Driver/Src/stm32c0xx_hal_dma.c ****   }
 1356              		.loc 1 614 12 view .LVU446
 1357 0088 C9E7     		b	.L64
 1358              	.LVL82:
 1359              	.L66:
 626:Drivers/STM32C0xx_HAL_Driver/Src/stm32c0xx_hal_dma.c ****   }
 1360              		.loc 1 626 5 is_stmt 1 view .LVU447
 626:Drivers/STM32C0xx_HAL_Driver/Src/stm32c0xx_hal_dma.c ****   }
 1361              		.loc 1 626 33 is_stmt 0 view .LVU448
 1362 008a 026C     		ldr	r2, [r0, #64]
 626:Drivers/STM32C0xx_HAL_Driver/Src/stm32c0xx_hal_dma.c ****   }
 1363              		.loc 1 626 49 view .LVU449
ARM GAS  C:\Users\Yasi\AppData\Local\Temp\cc6toQyB.s 			page 50


 1364 008c 1C23     		movs	r3, #28
 1365 008e 1340     		ands	r3, r2
 626:Drivers/STM32C0xx_HAL_Driver/Src/stm32c0xx_hal_dma.c ****   }
 1366              		.loc 1 626 10 view .LVU450
 1367 0090 0425     		movs	r5, #4
 1368 0092 9D40     		lsls	r5, r5, r3
 1369              	.LVL83:
 626:Drivers/STM32C0xx_HAL_Driver/Src/stm32c0xx_hal_dma.c ****   }
 1370              		.loc 1 626 10 view .LVU451
 1371 0094 D0E7     		b	.L67
 1372              	.LVL84:
 1373              	.L80:
 639:Drivers/STM32C0xx_HAL_Driver/Src/stm32c0xx_hal_dma.c **** 
 1374              		.loc 1 639 7 is_stmt 1 view .LVU452
 1375 0096 2648     		ldr	r0, .L81
 1376 0098 4168     		ldr	r1, [r0, #4]
 1377 009a 0122     		movs	r2, #1
 1378 009c 1400     		movs	r4, r2
 1379              	.LVL85:
 639:Drivers/STM32C0xx_HAL_Driver/Src/stm32c0xx_hal_dma.c **** 
 1380              		.loc 1 639 7 is_stmt 0 view .LVU453
 1381 009e 9C40     		lsls	r4, r4, r3
 1382 00a0 2300     		movs	r3, r4
 1383 00a2 0B43     		orrs	r3, r1
 1384 00a4 4360     		str	r3, [r0, #4]
 1385              	.LVL86:
 642:Drivers/STM32C0xx_HAL_Driver/Src/stm32c0xx_hal_dma.c **** 
 1386              		.loc 1 642 7 is_stmt 1 view .LVU454
 642:Drivers/STM32C0xx_HAL_Driver/Src/stm32c0xx_hal_dma.c **** 
 1387              		.loc 1 642 23 is_stmt 0 view .LVU455
 1388 00a6 F263     		str	r2, [r6, #60]
 645:Drivers/STM32C0xx_HAL_Driver/Src/stm32c0xx_hal_dma.c **** 
 1389              		.loc 1 645 7 is_stmt 1 view .LVU456
 645:Drivers/STM32C0xx_HAL_Driver/Src/stm32c0xx_hal_dma.c **** 
 1390              		.loc 1 645 19 is_stmt 0 view .LVU457
 1391 00a8 2523     		movs	r3, #37
 1392 00aa F254     		strb	r2, [r6, r3]
 648:Drivers/STM32C0xx_HAL_Driver/Src/stm32c0xx_hal_dma.c **** 
 1393              		.loc 1 648 7 is_stmt 1 view .LVU458
 648:Drivers/STM32C0xx_HAL_Driver/Src/stm32c0xx_hal_dma.c **** 
 1394              		.loc 1 648 7 view .LVU459
 1395 00ac 013B     		subs	r3, r3, #1
 1396 00ae 0022     		movs	r2, #0
 1397 00b0 F254     		strb	r2, [r6, r3]
 648:Drivers/STM32C0xx_HAL_Driver/Src/stm32c0xx_hal_dma.c **** 
 1398              		.loc 1 648 7 view .LVU460
 650:Drivers/STM32C0xx_HAL_Driver/Src/stm32c0xx_hal_dma.c ****     }
 1399              		.loc 1 650 7 view .LVU461
 650:Drivers/STM32C0xx_HAL_Driver/Src/stm32c0xx_hal_dma.c ****     }
 1400              		.loc 1 650 14 is_stmt 0 view .LVU462
 1401 00b2 0120     		movs	r0, #1
 1402 00b4 B3E7     		b	.L64
 1403              	.LVL87:
 1404              	.L79:
 672:Drivers/STM32C0xx_HAL_Driver/Src/stm32c0xx_hal_dma.c ****   {
 1405              		.loc 1 672 3 is_stmt 1 view .LVU463
 672:Drivers/STM32C0xx_HAL_Driver/Src/stm32c0xx_hal_dma.c ****   {
ARM GAS  C:\Users\Yasi\AppData\Local\Temp\cc6toQyB.s 			page 51


 1406              		.loc 1 672 11 is_stmt 0 view .LVU464
 1407 00b6 336D     		ldr	r3, [r6, #80]
 672:Drivers/STM32C0xx_HAL_Driver/Src/stm32c0xx_hal_dma.c ****   {
 1408              		.loc 1 672 6 view .LVU465
 1409 00b8 002B     		cmp	r3, #0
 1410 00ba 11D0     		beq	.L73
 675:Drivers/STM32C0xx_HAL_Driver/Src/stm32c0xx_hal_dma.c ****     {
 1411              		.loc 1 675 5 is_stmt 1 view .LVU466
 675:Drivers/STM32C0xx_HAL_Driver/Src/stm32c0xx_hal_dma.c ****     {
 1412              		.loc 1 675 14 is_stmt 0 view .LVU467
 1413 00bc 726D     		ldr	r2, [r6, #84]
 675:Drivers/STM32C0xx_HAL_Driver/Src/stm32c0xx_hal_dma.c ****     {
 1414              		.loc 1 675 38 view .LVU468
 1415 00be 1268     		ldr	r2, [r2]
 675:Drivers/STM32C0xx_HAL_Driver/Src/stm32c0xx_hal_dma.c ****     {
 1416              		.loc 1 675 51 view .LVU469
 1417 00c0 B16D     		ldr	r1, [r6, #88]
 675:Drivers/STM32C0xx_HAL_Driver/Src/stm32c0xx_hal_dma.c ****     {
 1418              		.loc 1 675 8 view .LVU470
 1419 00c2 1142     		tst	r1, r2
 1420 00c4 0CD0     		beq	.L73
 678:Drivers/STM32C0xx_HAL_Driver/Src/stm32c0xx_hal_dma.c **** 
 1421              		.loc 1 678 7 is_stmt 1 view .LVU471
 678:Drivers/STM32C0xx_HAL_Driver/Src/stm32c0xx_hal_dma.c **** 
 1422              		.loc 1 678 29 is_stmt 0 view .LVU472
 1423 00c6 1968     		ldr	r1, [r3]
 678:Drivers/STM32C0xx_HAL_Driver/Src/stm32c0xx_hal_dma.c **** 
 1424              		.loc 1 678 36 view .LVU473
 1425 00c8 8022     		movs	r2, #128
 1426 00ca 5200     		lsls	r2, r2, #1
 1427 00cc 0A43     		orrs	r2, r1
 1428 00ce 1A60     		str	r2, [r3]
 681:Drivers/STM32C0xx_HAL_Driver/Src/stm32c0xx_hal_dma.c **** 
 1429              		.loc 1 681 7 is_stmt 1 view .LVU474
 681:Drivers/STM32C0xx_HAL_Driver/Src/stm32c0xx_hal_dma.c **** 
 1430              		.loc 1 681 11 is_stmt 0 view .LVU475
 1431 00d0 736D     		ldr	r3, [r6, #84]
 681:Drivers/STM32C0xx_HAL_Driver/Src/stm32c0xx_hal_dma.c **** 
 1432              		.loc 1 681 49 view .LVU476
 1433 00d2 B26D     		ldr	r2, [r6, #88]
 681:Drivers/STM32C0xx_HAL_Driver/Src/stm32c0xx_hal_dma.c **** 
 1434              		.loc 1 681 43 view .LVU477
 1435 00d4 5A60     		str	r2, [r3, #4]
 684:Drivers/STM32C0xx_HAL_Driver/Src/stm32c0xx_hal_dma.c ****     }
 1436              		.loc 1 684 7 is_stmt 1 view .LVU478
 684:Drivers/STM32C0xx_HAL_Driver/Src/stm32c0xx_hal_dma.c ****     }
 1437              		.loc 1 684 11 is_stmt 0 view .LVU479
 1438 00d6 F26B     		ldr	r2, [r6, #60]
 684:Drivers/STM32C0xx_HAL_Driver/Src/stm32c0xx_hal_dma.c ****     }
 1439              		.loc 1 684 23 view .LVU480
 1440 00d8 8023     		movs	r3, #128
 1441 00da DB00     		lsls	r3, r3, #3
 1442 00dc 1343     		orrs	r3, r2
 1443 00de F363     		str	r3, [r6, #60]
 1444              	.L73:
 689:Drivers/STM32C0xx_HAL_Driver/Src/stm32c0xx_hal_dma.c ****   {
 1445              		.loc 1 689 3 is_stmt 1 view .LVU481
ARM GAS  C:\Users\Yasi\AppData\Local\Temp\cc6toQyB.s 			page 52


 689:Drivers/STM32C0xx_HAL_Driver/Src/stm32c0xx_hal_dma.c ****   {
 1446              		.loc 1 689 12 is_stmt 0 view .LVU482
 1447 00e0 B36C     		ldr	r3, [r6, #72]
 689:Drivers/STM32C0xx_HAL_Driver/Src/stm32c0xx_hal_dma.c ****   {
 1448              		.loc 1 689 33 view .LVU483
 1449 00e2 1968     		ldr	r1, [r3]
 689:Drivers/STM32C0xx_HAL_Driver/Src/stm32c0xx_hal_dma.c ****   {
 1450              		.loc 1 689 45 view .LVU484
 1451 00e4 F26C     		ldr	r2, [r6, #76]
 689:Drivers/STM32C0xx_HAL_Driver/Src/stm32c0xx_hal_dma.c ****   {
 1452              		.loc 1 689 6 view .LVU485
 1453 00e6 0A42     		tst	r2, r1
 1454 00e8 05D0     		beq	.L74
 692:Drivers/STM32C0xx_HAL_Driver/Src/stm32c0xx_hal_dma.c **** 
 1455              		.loc 1 692 5 is_stmt 1 view .LVU486
 692:Drivers/STM32C0xx_HAL_Driver/Src/stm32c0xx_hal_dma.c **** 
 1456              		.loc 1 692 36 is_stmt 0 view .LVU487
 1457 00ea 5A60     		str	r2, [r3, #4]
 695:Drivers/STM32C0xx_HAL_Driver/Src/stm32c0xx_hal_dma.c ****   }
 1458              		.loc 1 695 5 is_stmt 1 view .LVU488
 695:Drivers/STM32C0xx_HAL_Driver/Src/stm32c0xx_hal_dma.c ****   }
 1459              		.loc 1 695 9 is_stmt 0 view .LVU489
 1460 00ec F26B     		ldr	r2, [r6, #60]
 695:Drivers/STM32C0xx_HAL_Driver/Src/stm32c0xx_hal_dma.c ****   }
 1461              		.loc 1 695 21 view .LVU490
 1462 00ee 8023     		movs	r3, #128
 1463 00f0 9B00     		lsls	r3, r3, #2
 1464 00f2 1343     		orrs	r3, r2
 1465 00f4 F363     		str	r3, [r6, #60]
 1466              	.L74:
 698:Drivers/STM32C0xx_HAL_Driver/Src/stm32c0xx_hal_dma.c ****   {
 1467              		.loc 1 698 3 is_stmt 1 view .LVU491
 698:Drivers/STM32C0xx_HAL_Driver/Src/stm32c0xx_hal_dma.c ****   {
 1468              		.loc 1 698 6 is_stmt 0 view .LVU492
 1469 00f6 002C     		cmp	r4, #0
 1470 00f8 10D1     		bne	.L75
 701:Drivers/STM32C0xx_HAL_Driver/Src/stm32c0xx_hal_dma.c **** 
 1471              		.loc 1 701 5 is_stmt 1 view .LVU493
 1472 00fa 0D48     		ldr	r0, .L81
 1473 00fc 4368     		ldr	r3, [r0, #4]
 1474 00fe 326C     		ldr	r2, [r6, #64]
 1475 0100 1C21     		movs	r1, #28
 1476 0102 1140     		ands	r1, r2
 1477 0104 0222     		movs	r2, #2
 1478 0106 8A40     		lsls	r2, r2, r1
 1479 0108 1343     		orrs	r3, r2
 1480 010a 4360     		str	r3, [r0, #4]
 1481              	.LVL88:
 705:Drivers/STM32C0xx_HAL_Driver/Src/stm32c0xx_hal_dma.c ****   }
 1482              		.loc 1 705 5 view .LVU494
 705:Drivers/STM32C0xx_HAL_Driver/Src/stm32c0xx_hal_dma.c ****   }
 1483              		.loc 1 705 17 is_stmt 0 view .LVU495
 1484 010c 2523     		movs	r3, #37
 1485 010e 0122     		movs	r2, #1
 1486 0110 F254     		strb	r2, [r6, r3]
 1487              	.L76:
 714:Drivers/STM32C0xx_HAL_Driver/Src/stm32c0xx_hal_dma.c **** 
ARM GAS  C:\Users\Yasi\AppData\Local\Temp\cc6toQyB.s 			page 53


 1488              		.loc 1 714 3 is_stmt 1 view .LVU496
 714:Drivers/STM32C0xx_HAL_Driver/Src/stm32c0xx_hal_dma.c **** 
 1489              		.loc 1 714 3 view .LVU497
 1490 0112 2423     		movs	r3, #36
 1491 0114 0022     		movs	r2, #0
 1492 0116 F254     		strb	r2, [r6, r3]
 714:Drivers/STM32C0xx_HAL_Driver/Src/stm32c0xx_hal_dma.c **** 
 1493              		.loc 1 714 3 view .LVU498
 716:Drivers/STM32C0xx_HAL_Driver/Src/stm32c0xx_hal_dma.c **** }
 1494              		.loc 1 716 3 view .LVU499
 716:Drivers/STM32C0xx_HAL_Driver/Src/stm32c0xx_hal_dma.c **** }
 1495              		.loc 1 716 10 is_stmt 0 view .LVU500
 1496 0118 0020     		movs	r0, #0
 1497 011a 80E7     		b	.L64
 1498              	.LVL89:
 1499              	.L75:
 710:Drivers/STM32C0xx_HAL_Driver/Src/stm32c0xx_hal_dma.c ****   }
 1500              		.loc 1 710 5 is_stmt 1 view .LVU501
 1501 011c 0448     		ldr	r0, .L81
 1502 011e 4368     		ldr	r3, [r0, #4]
 1503 0120 326C     		ldr	r2, [r6, #64]
 1504 0122 1C21     		movs	r1, #28
 1505 0124 1140     		ands	r1, r2
 1506 0126 0422     		movs	r2, #4
 1507 0128 8A40     		lsls	r2, r2, r1
 1508 012a 1343     		orrs	r3, r2
 1509 012c 4360     		str	r3, [r0, #4]
 1510              	.LVL90:
 710:Drivers/STM32C0xx_HAL_Driver/Src/stm32c0xx_hal_dma.c ****   }
 1511              		.loc 1 710 5 is_stmt 0 view .LVU502
 1512 012e F0E7     		b	.L76
 1513              	.L82:
 1514              		.align	2
 1515              	.L81:
 1516 0130 00000240 		.word	1073872896
 1517              		.cfi_endproc
 1518              	.LFE220:
 1520              		.section	.text.HAL_DMA_IRQHandler,"ax",%progbits
 1521              		.align	1
 1522              		.global	HAL_DMA_IRQHandler
 1523              		.syntax unified
 1524              		.code	16
 1525              		.thumb_func
 1527              	HAL_DMA_IRQHandler:
 1528              	.LVL91:
 1529              	.LFB221:
 726:Drivers/STM32C0xx_HAL_Driver/Src/stm32c0xx_hal_dma.c ****   uint32_t flag_it = DMA1->ISR;
 1530              		.loc 1 726 1 is_stmt 1 view -0
 1531              		.cfi_startproc
 1532              		@ args = 0, pretend = 0, frame = 0
 1533              		@ frame_needed = 0, uses_anonymous_args = 0
 726:Drivers/STM32C0xx_HAL_Driver/Src/stm32c0xx_hal_dma.c ****   uint32_t flag_it = DMA1->ISR;
 1534              		.loc 1 726 1 is_stmt 0 view .LVU504
 1535 0000 70B5     		push	{r4, r5, r6, lr}
 1536              	.LCFI10:
 1537              		.cfi_def_cfa_offset 16
 1538              		.cfi_offset 4, -16
ARM GAS  C:\Users\Yasi\AppData\Local\Temp\cc6toQyB.s 			page 54


 1539              		.cfi_offset 5, -12
 1540              		.cfi_offset 6, -8
 1541              		.cfi_offset 14, -4
 727:Drivers/STM32C0xx_HAL_Driver/Src/stm32c0xx_hal_dma.c ****   uint32_t source_it = hdma->Instance->CCR;
 1542              		.loc 1 727 3 is_stmt 1 view .LVU505
 727:Drivers/STM32C0xx_HAL_Driver/Src/stm32c0xx_hal_dma.c ****   uint32_t source_it = hdma->Instance->CCR;
 1543              		.loc 1 727 12 is_stmt 0 view .LVU506
 1544 0002 314B     		ldr	r3, .L94
 1545 0004 1968     		ldr	r1, [r3]
 1546              	.LVL92:
 728:Drivers/STM32C0xx_HAL_Driver/Src/stm32c0xx_hal_dma.c **** 
 1547              		.loc 1 728 3 is_stmt 1 view .LVU507
 728:Drivers/STM32C0xx_HAL_Driver/Src/stm32c0xx_hal_dma.c **** 
 1548              		.loc 1 728 28 is_stmt 0 view .LVU508
 1549 0006 0468     		ldr	r4, [r0]
 728:Drivers/STM32C0xx_HAL_Driver/Src/stm32c0xx_hal_dma.c **** 
 1550              		.loc 1 728 12 view .LVU509
 1551 0008 2568     		ldr	r5, [r4]
 1552              	.LVL93:
 731:Drivers/STM32C0xx_HAL_Driver/Src/stm32c0xx_hal_dma.c ****   {
 1553              		.loc 1 731 3 is_stmt 1 view .LVU510
 731:Drivers/STM32C0xx_HAL_Driver/Src/stm32c0xx_hal_dma.c ****   {
 1554              		.loc 1 731 41 is_stmt 0 view .LVU511
 1555 000a 026C     		ldr	r2, [r0, #64]
 731:Drivers/STM32C0xx_HAL_Driver/Src/stm32c0xx_hal_dma.c ****   {
 1556              		.loc 1 731 56 view .LVU512
 1557 000c 1C23     		movs	r3, #28
 1558 000e 1340     		ands	r3, r2
 731:Drivers/STM32C0xx_HAL_Driver/Src/stm32c0xx_hal_dma.c ****   {
 1559              		.loc 1 731 33 view .LVU513
 1560 0010 0422     		movs	r2, #4
 1561 0012 9A40     		lsls	r2, r2, r3
 731:Drivers/STM32C0xx_HAL_Driver/Src/stm32c0xx_hal_dma.c ****   {
 1562              		.loc 1 731 6 view .LVU514
 1563 0014 1142     		tst	r1, r2
 1564 0016 16D0     		beq	.L84
 731:Drivers/STM32C0xx_HAL_Driver/Src/stm32c0xx_hal_dma.c ****   {
 1565              		.loc 1 731 74 discriminator 1 view .LVU515
 1566 0018 6A07     		lsls	r2, r5, #29
 1567 001a 14D5     		bpl	.L84
 734:Drivers/STM32C0xx_HAL_Driver/Src/stm32c0xx_hal_dma.c ****     {
 1568              		.loc 1 734 5 is_stmt 1 view .LVU516
 734:Drivers/STM32C0xx_HAL_Driver/Src/stm32c0xx_hal_dma.c ****     {
 1569              		.loc 1 734 24 is_stmt 0 view .LVU517
 1570 001c 2368     		ldr	r3, [r4]
 734:Drivers/STM32C0xx_HAL_Driver/Src/stm32c0xx_hal_dma.c ****     {
 1571              		.loc 1 734 8 view .LVU518
 1572 001e 9B06     		lsls	r3, r3, #26
 1573 0020 03D4     		bmi	.L85
 737:Drivers/STM32C0xx_HAL_Driver/Src/stm32c0xx_hal_dma.c ****     }
 1574              		.loc 1 737 7 is_stmt 1 view .LVU519
 1575 0022 2368     		ldr	r3, [r4]
 1576 0024 0422     		movs	r2, #4
 1577 0026 9343     		bics	r3, r2
 1578 0028 2360     		str	r3, [r4]
 1579              	.L85:
 740:Drivers/STM32C0xx_HAL_Driver/Src/stm32c0xx_hal_dma.c **** 
ARM GAS  C:\Users\Yasi\AppData\Local\Temp\cc6toQyB.s 			page 55


 1580              		.loc 1 740 5 view .LVU520
 1581 002a 274C     		ldr	r4, .L94
 1582 002c 6368     		ldr	r3, [r4, #4]
 1583 002e 026C     		ldr	r2, [r0, #64]
 1584 0030 1C21     		movs	r1, #28
 1585              	.LVL94:
 740:Drivers/STM32C0xx_HAL_Driver/Src/stm32c0xx_hal_dma.c **** 
 1586              		.loc 1 740 5 is_stmt 0 view .LVU521
 1587 0032 1140     		ands	r1, r2
 1588 0034 0422     		movs	r2, #4
 1589 0036 8A40     		lsls	r2, r2, r1
 1590 0038 1343     		orrs	r3, r2
 1591 003a 6360     		str	r3, [r4, #4]
 745:Drivers/STM32C0xx_HAL_Driver/Src/stm32c0xx_hal_dma.c ****     {
 1592              		.loc 1 745 5 is_stmt 1 view .LVU522
 745:Drivers/STM32C0xx_HAL_Driver/Src/stm32c0xx_hal_dma.c ****     {
 1593              		.loc 1 745 13 is_stmt 0 view .LVU523
 1594 003c 036B     		ldr	r3, [r0, #48]
 745:Drivers/STM32C0xx_HAL_Driver/Src/stm32c0xx_hal_dma.c ****     {
 1595              		.loc 1 745 8 view .LVU524
 1596 003e 002B     		cmp	r3, #0
 1597 0040 00D0     		beq	.L83
 748:Drivers/STM32C0xx_HAL_Driver/Src/stm32c0xx_hal_dma.c ****     }
 1598              		.loc 1 748 7 is_stmt 1 view .LVU525
 1599 0042 9847     		blx	r3
 1600              	.LVL95:
 1601              	.L83:
 807:Drivers/STM32C0xx_HAL_Driver/Src/stm32c0xx_hal_dma.c **** 
 1602              		.loc 1 807 1 is_stmt 0 view .LVU526
 1603              		@ sp needed
 1604 0044 70BD     		pop	{r4, r5, r6, pc}
 1605              	.LVL96:
 1606              	.L84:
 753:Drivers/STM32C0xx_HAL_Driver/Src/stm32c0xx_hal_dma.c ****   {
 1607              		.loc 1 753 8 is_stmt 1 view .LVU527
 753:Drivers/STM32C0xx_HAL_Driver/Src/stm32c0xx_hal_dma.c ****   {
 1608              		.loc 1 753 44 is_stmt 0 view .LVU528
 1609 0046 0222     		movs	r2, #2
 1610 0048 9A40     		lsls	r2, r2, r3
 753:Drivers/STM32C0xx_HAL_Driver/Src/stm32c0xx_hal_dma.c ****   {
 1611              		.loc 1 753 11 view .LVU529
 1612 004a 1142     		tst	r1, r2
 1613 004c 1CD0     		beq	.L87
 753:Drivers/STM32C0xx_HAL_Driver/Src/stm32c0xx_hal_dma.c ****   {
 1614              		.loc 1 753 79 discriminator 1 view .LVU530
 1615 004e AA07     		lsls	r2, r5, #30
 1616 0050 1AD5     		bpl	.L87
 755:Drivers/STM32C0xx_HAL_Driver/Src/stm32c0xx_hal_dma.c ****     {
 1617              		.loc 1 755 5 is_stmt 1 view .LVU531
 755:Drivers/STM32C0xx_HAL_Driver/Src/stm32c0xx_hal_dma.c ****     {
 1618              		.loc 1 755 24 is_stmt 0 view .LVU532
 1619 0052 2368     		ldr	r3, [r4]
 755:Drivers/STM32C0xx_HAL_Driver/Src/stm32c0xx_hal_dma.c ****     {
 1620              		.loc 1 755 8 view .LVU533
 1621 0054 9B06     		lsls	r3, r3, #26
 1622 0056 06D4     		bmi	.L88
 758:Drivers/STM32C0xx_HAL_Driver/Src/stm32c0xx_hal_dma.c **** 
ARM GAS  C:\Users\Yasi\AppData\Local\Temp\cc6toQyB.s 			page 56


 1623              		.loc 1 758 7 is_stmt 1 view .LVU534
 1624 0058 2368     		ldr	r3, [r4]
 1625 005a 0A22     		movs	r2, #10
 1626 005c 9343     		bics	r3, r2
 1627 005e 2360     		str	r3, [r4]
 761:Drivers/STM32C0xx_HAL_Driver/Src/stm32c0xx_hal_dma.c ****     }
 1628              		.loc 1 761 7 view .LVU535
 761:Drivers/STM32C0xx_HAL_Driver/Src/stm32c0xx_hal_dma.c ****     }
 1629              		.loc 1 761 19 is_stmt 0 view .LVU536
 1630 0060 2523     		movs	r3, #37
 1631 0062 093A     		subs	r2, r2, #9
 1632 0064 C254     		strb	r2, [r0, r3]
 1633              	.L88:
 764:Drivers/STM32C0xx_HAL_Driver/Src/stm32c0xx_hal_dma.c **** 
 1634              		.loc 1 764 5 is_stmt 1 view .LVU537
 1635 0066 184C     		ldr	r4, .L94
 1636 0068 6368     		ldr	r3, [r4, #4]
 1637 006a 026C     		ldr	r2, [r0, #64]
 1638 006c 1C21     		movs	r1, #28
 1639              	.LVL97:
 764:Drivers/STM32C0xx_HAL_Driver/Src/stm32c0xx_hal_dma.c **** 
 1640              		.loc 1 764 5 is_stmt 0 view .LVU538
 1641 006e 1140     		ands	r1, r2
 1642 0070 0222     		movs	r2, #2
 1643 0072 8A40     		lsls	r2, r2, r1
 1644 0074 1343     		orrs	r3, r2
 1645 0076 6360     		str	r3, [r4, #4]
 767:Drivers/STM32C0xx_HAL_Driver/Src/stm32c0xx_hal_dma.c **** 
 1646              		.loc 1 767 5 is_stmt 1 view .LVU539
 767:Drivers/STM32C0xx_HAL_Driver/Src/stm32c0xx_hal_dma.c **** 
 1647              		.loc 1 767 5 view .LVU540
 1648 0078 2423     		movs	r3, #36
 1649 007a 0022     		movs	r2, #0
 1650 007c C254     		strb	r2, [r0, r3]
 767:Drivers/STM32C0xx_HAL_Driver/Src/stm32c0xx_hal_dma.c **** 
 1651              		.loc 1 767 5 view .LVU541
 769:Drivers/STM32C0xx_HAL_Driver/Src/stm32c0xx_hal_dma.c ****     {
 1652              		.loc 1 769 5 view .LVU542
 769:Drivers/STM32C0xx_HAL_Driver/Src/stm32c0xx_hal_dma.c ****     {
 1653              		.loc 1 769 13 is_stmt 0 view .LVU543
 1654 007e C36A     		ldr	r3, [r0, #44]
 769:Drivers/STM32C0xx_HAL_Driver/Src/stm32c0xx_hal_dma.c ****     {
 1655              		.loc 1 769 8 view .LVU544
 1656 0080 002B     		cmp	r3, #0
 1657 0082 DFD0     		beq	.L83
 772:Drivers/STM32C0xx_HAL_Driver/Src/stm32c0xx_hal_dma.c ****     }
 1658              		.loc 1 772 7 is_stmt 1 view .LVU545
 1659 0084 9847     		blx	r3
 1660              	.LVL98:
 772:Drivers/STM32C0xx_HAL_Driver/Src/stm32c0xx_hal_dma.c ****     }
 1661              		.loc 1 772 7 is_stmt 0 view .LVU546
 1662 0086 DDE7     		b	.L83
 1663              	.LVL99:
 1664              	.L87:
 777:Drivers/STM32C0xx_HAL_Driver/Src/stm32c0xx_hal_dma.c ****   {
 1665              		.loc 1 777 8 is_stmt 1 view .LVU547
 777:Drivers/STM32C0xx_HAL_Driver/Src/stm32c0xx_hal_dma.c ****   {
ARM GAS  C:\Users\Yasi\AppData\Local\Temp\cc6toQyB.s 			page 57


 1666              		.loc 1 777 38 is_stmt 0 view .LVU548
 1667 0088 0822     		movs	r2, #8
 1668 008a 9A40     		lsls	r2, r2, r3
 777:Drivers/STM32C0xx_HAL_Driver/Src/stm32c0xx_hal_dma.c ****   {
 1669              		.loc 1 777 11 view .LVU549
 1670 008c 1142     		tst	r1, r2
 1671 008e D9D0     		beq	.L83
 777:Drivers/STM32C0xx_HAL_Driver/Src/stm32c0xx_hal_dma.c ****   {
 1672              		.loc 1 777 79 discriminator 1 view .LVU550
 1673 0090 2D07     		lsls	r5, r5, #28
 1674 0092 D7D5     		bpl	.L83
 1675              	.LVL100:
 782:Drivers/STM32C0xx_HAL_Driver/Src/stm32c0xx_hal_dma.c **** 
 1676              		.loc 1 782 5 is_stmt 1 view .LVU551
 1677 0094 2368     		ldr	r3, [r4]
 1678 0096 0E22     		movs	r2, #14
 1679 0098 9343     		bics	r3, r2
 1680 009a 2360     		str	r3, [r4]
 785:Drivers/STM32C0xx_HAL_Driver/Src/stm32c0xx_hal_dma.c **** 
 1681              		.loc 1 785 5 view .LVU552
 1682 009c 0A4C     		ldr	r4, .L94
 1683 009e 6268     		ldr	r2, [r4, #4]
 1684 00a0 036C     		ldr	r3, [r0, #64]
 1685 00a2 1C21     		movs	r1, #28
 1686              	.LVL101:
 785:Drivers/STM32C0xx_HAL_Driver/Src/stm32c0xx_hal_dma.c **** 
 1687              		.loc 1 785 5 is_stmt 0 view .LVU553
 1688 00a4 1940     		ands	r1, r3
 1689 00a6 0123     		movs	r3, #1
 1690 00a8 1D00     		movs	r5, r3
 1691 00aa 8D40     		lsls	r5, r5, r1
 1692 00ac 2A43     		orrs	r2, r5
 1693 00ae 6260     		str	r2, [r4, #4]
 788:Drivers/STM32C0xx_HAL_Driver/Src/stm32c0xx_hal_dma.c **** 
 1694              		.loc 1 788 5 is_stmt 1 view .LVU554
 788:Drivers/STM32C0xx_HAL_Driver/Src/stm32c0xx_hal_dma.c **** 
 1695              		.loc 1 788 21 is_stmt 0 view .LVU555
 1696 00b0 C363     		str	r3, [r0, #60]
 791:Drivers/STM32C0xx_HAL_Driver/Src/stm32c0xx_hal_dma.c **** 
 1697              		.loc 1 791 5 is_stmt 1 view .LVU556
 791:Drivers/STM32C0xx_HAL_Driver/Src/stm32c0xx_hal_dma.c **** 
 1698              		.loc 1 791 17 is_stmt 0 view .LVU557
 1699 00b2 2522     		movs	r2, #37
 1700 00b4 8354     		strb	r3, [r0, r2]
 794:Drivers/STM32C0xx_HAL_Driver/Src/stm32c0xx_hal_dma.c **** 
 1701              		.loc 1 794 5 is_stmt 1 view .LVU558
 794:Drivers/STM32C0xx_HAL_Driver/Src/stm32c0xx_hal_dma.c **** 
 1702              		.loc 1 794 5 view .LVU559
 1703 00b6 2333     		adds	r3, r3, #35
 1704 00b8 0022     		movs	r2, #0
 1705 00ba C254     		strb	r2, [r0, r3]
 794:Drivers/STM32C0xx_HAL_Driver/Src/stm32c0xx_hal_dma.c **** 
 1706              		.loc 1 794 5 view .LVU560
 796:Drivers/STM32C0xx_HAL_Driver/Src/stm32c0xx_hal_dma.c ****     {
 1707              		.loc 1 796 5 view .LVU561
 796:Drivers/STM32C0xx_HAL_Driver/Src/stm32c0xx_hal_dma.c ****     {
 1708              		.loc 1 796 13 is_stmt 0 view .LVU562
ARM GAS  C:\Users\Yasi\AppData\Local\Temp\cc6toQyB.s 			page 58


 1709 00bc 436B     		ldr	r3, [r0, #52]
 796:Drivers/STM32C0xx_HAL_Driver/Src/stm32c0xx_hal_dma.c ****     {
 1710              		.loc 1 796 8 view .LVU563
 1711 00be 002B     		cmp	r3, #0
 1712 00c0 C0D0     		beq	.L83
 799:Drivers/STM32C0xx_HAL_Driver/Src/stm32c0xx_hal_dma.c ****     }
 1713              		.loc 1 799 7 is_stmt 1 view .LVU564
 1714 00c2 9847     		blx	r3
 1715              	.LVL102:
 805:Drivers/STM32C0xx_HAL_Driver/Src/stm32c0xx_hal_dma.c ****   return;
 1716              		.loc 1 805 3 view .LVU565
 806:Drivers/STM32C0xx_HAL_Driver/Src/stm32c0xx_hal_dma.c **** }
 1717              		.loc 1 806 3 view .LVU566
 1718 00c4 BEE7     		b	.L83
 1719              	.L95:
 1720 00c6 C046     		.align	2
 1721              	.L94:
 1722 00c8 00000240 		.word	1073872896
 1723              		.cfi_endproc
 1724              	.LFE221:
 1726              		.section	.text.HAL_DMA_RegisterCallback,"ax",%progbits
 1727              		.align	1
 1728              		.global	HAL_DMA_RegisterCallback
 1729              		.syntax unified
 1730              		.code	16
 1731              		.thumb_func
 1733              	HAL_DMA_RegisterCallback:
 1734              	.LVL103:
 1735              	.LFB222:
 821:Drivers/STM32C0xx_HAL_Driver/Src/stm32c0xx_hal_dma.c ****   HAL_StatusTypeDef status = HAL_OK;
 1736              		.loc 1 821 1 view -0
 1737              		.cfi_startproc
 1738              		@ args = 0, pretend = 0, frame = 0
 1739              		@ frame_needed = 0, uses_anonymous_args = 0
 821:Drivers/STM32C0xx_HAL_Driver/Src/stm32c0xx_hal_dma.c ****   HAL_StatusTypeDef status = HAL_OK;
 1740              		.loc 1 821 1 is_stmt 0 view .LVU568
 1741 0000 10B5     		push	{r4, lr}
 1742              	.LCFI11:
 1743              		.cfi_def_cfa_offset 8
 1744              		.cfi_offset 4, -8
 1745              		.cfi_offset 14, -4
 1746 0002 0300     		movs	r3, r0
 822:Drivers/STM32C0xx_HAL_Driver/Src/stm32c0xx_hal_dma.c **** 
 1747              		.loc 1 822 3 is_stmt 1 view .LVU569
 1748              	.LVL104:
 825:Drivers/STM32C0xx_HAL_Driver/Src/stm32c0xx_hal_dma.c **** 
 1749              		.loc 1 825 3 view .LVU570
 825:Drivers/STM32C0xx_HAL_Driver/Src/stm32c0xx_hal_dma.c **** 
 1750              		.loc 1 825 3 view .LVU571
 1751 0004 2420     		movs	r0, #36
 1752              	.LVL105:
 825:Drivers/STM32C0xx_HAL_Driver/Src/stm32c0xx_hal_dma.c **** 
 1753              		.loc 1 825 3 is_stmt 0 view .LVU572
 1754 0006 185C     		ldrb	r0, [r3, r0]
 1755 0008 0128     		cmp	r0, #1
 1756 000a 21D0     		beq	.L104
 825:Drivers/STM32C0xx_HAL_Driver/Src/stm32c0xx_hal_dma.c **** 
ARM GAS  C:\Users\Yasi\AppData\Local\Temp\cc6toQyB.s 			page 59


 1757              		.loc 1 825 3 is_stmt 1 discriminator 2 view .LVU573
 1758 000c 2420     		movs	r0, #36
 1759 000e 0124     		movs	r4, #1
 1760 0010 1C54     		strb	r4, [r3, r0]
 825:Drivers/STM32C0xx_HAL_Driver/Src/stm32c0xx_hal_dma.c **** 
 1761              		.loc 1 825 3 discriminator 2 view .LVU574
 827:Drivers/STM32C0xx_HAL_Driver/Src/stm32c0xx_hal_dma.c ****   {
 1762              		.loc 1 827 3 view .LVU575
 827:Drivers/STM32C0xx_HAL_Driver/Src/stm32c0xx_hal_dma.c ****   {
 1763              		.loc 1 827 34 is_stmt 0 view .LVU576
 1764 0012 0130     		adds	r0, r0, #1
 1765 0014 1C5C     		ldrb	r4, [r3, r0]
 1766 0016 E0B2     		uxtb	r0, r4
 827:Drivers/STM32C0xx_HAL_Driver/Src/stm32c0xx_hal_dma.c ****   {
 1767              		.loc 1 827 6 view .LVU577
 1768 0018 012C     		cmp	r4, #1
 1769 001a 04D0     		beq	.L106
 854:Drivers/STM32C0xx_HAL_Driver/Src/stm32c0xx_hal_dma.c ****   }
 1770              		.loc 1 854 12 view .LVU578
 1771 001c 0120     		movs	r0, #1
 1772              	.L98:
 1773              	.LVL106:
 858:Drivers/STM32C0xx_HAL_Driver/Src/stm32c0xx_hal_dma.c **** 
 1774              		.loc 1 858 3 is_stmt 1 view .LVU579
 858:Drivers/STM32C0xx_HAL_Driver/Src/stm32c0xx_hal_dma.c **** 
 1775              		.loc 1 858 3 view .LVU580
 1776 001e 2422     		movs	r2, #36
 1777              	.LVL107:
 858:Drivers/STM32C0xx_HAL_Driver/Src/stm32c0xx_hal_dma.c **** 
 1778              		.loc 1 858 3 is_stmt 0 view .LVU581
 1779 0020 0021     		movs	r1, #0
 1780              	.LVL108:
 858:Drivers/STM32C0xx_HAL_Driver/Src/stm32c0xx_hal_dma.c **** 
 1781              		.loc 1 858 3 view .LVU582
 1782 0022 9954     		strb	r1, [r3, r2]
 858:Drivers/STM32C0xx_HAL_Driver/Src/stm32c0xx_hal_dma.c **** 
 1783              		.loc 1 858 3 is_stmt 1 view .LVU583
 860:Drivers/STM32C0xx_HAL_Driver/Src/stm32c0xx_hal_dma.c **** }
 1784              		.loc 1 860 3 view .LVU584
 1785              	.LVL109:
 1786              	.L97:
 861:Drivers/STM32C0xx_HAL_Driver/Src/stm32c0xx_hal_dma.c **** 
 1787              		.loc 1 861 1 is_stmt 0 view .LVU585
 1788              		@ sp needed
 1789 0024 10BD     		pop	{r4, pc}
 1790              	.LVL110:
 1791              	.L106:
 829:Drivers/STM32C0xx_HAL_Driver/Src/stm32c0xx_hal_dma.c ****     {
 1792              		.loc 1 829 5 is_stmt 1 view .LVU586
 1793 0026 0229     		cmp	r1, #2
 1794 0028 0FD0     		beq	.L99
 1795 002a 06D8     		bhi	.L100
 1796 002c 0029     		cmp	r1, #0
 1797 002e 09D0     		beq	.L101
 1798 0030 0129     		cmp	r1, #1
 1799 0032 F4D1     		bne	.L98
 836:Drivers/STM32C0xx_HAL_Driver/Src/stm32c0xx_hal_dma.c ****         break;
ARM GAS  C:\Users\Yasi\AppData\Local\Temp\cc6toQyB.s 			page 60


 1800              		.loc 1 836 9 view .LVU587
 836:Drivers/STM32C0xx_HAL_Driver/Src/stm32c0xx_hal_dma.c ****         break;
 1801              		.loc 1 836 36 is_stmt 0 view .LVU588
 1802 0034 1A63     		str	r2, [r3, #48]
 837:Drivers/STM32C0xx_HAL_Driver/Src/stm32c0xx_hal_dma.c **** 
 1803              		.loc 1 837 9 is_stmt 1 view .LVU589
 822:Drivers/STM32C0xx_HAL_Driver/Src/stm32c0xx_hal_dma.c **** 
 1804              		.loc 1 822 21 is_stmt 0 view .LVU590
 1805 0036 0020     		movs	r0, #0
 837:Drivers/STM32C0xx_HAL_Driver/Src/stm32c0xx_hal_dma.c **** 
 1806              		.loc 1 837 9 view .LVU591
 1807 0038 F1E7     		b	.L98
 1808              	.L100:
 829:Drivers/STM32C0xx_HAL_Driver/Src/stm32c0xx_hal_dma.c ****     {
 1809              		.loc 1 829 5 view .LVU592
 1810 003a 0329     		cmp	r1, #3
 1811 003c EFD1     		bne	.L98
 844:Drivers/STM32C0xx_HAL_Driver/Src/stm32c0xx_hal_dma.c ****         break;
 1812              		.loc 1 844 9 is_stmt 1 view .LVU593
 844:Drivers/STM32C0xx_HAL_Driver/Src/stm32c0xx_hal_dma.c ****         break;
 1813              		.loc 1 844 33 is_stmt 0 view .LVU594
 1814 003e 9A63     		str	r2, [r3, #56]
 845:Drivers/STM32C0xx_HAL_Driver/Src/stm32c0xx_hal_dma.c **** 
 1815              		.loc 1 845 9 is_stmt 1 view .LVU595
 822:Drivers/STM32C0xx_HAL_Driver/Src/stm32c0xx_hal_dma.c **** 
 1816              		.loc 1 822 21 is_stmt 0 view .LVU596
 1817 0040 0020     		movs	r0, #0
 845:Drivers/STM32C0xx_HAL_Driver/Src/stm32c0xx_hal_dma.c **** 
 1818              		.loc 1 845 9 view .LVU597
 1819 0042 ECE7     		b	.L98
 1820              	.L101:
 832:Drivers/STM32C0xx_HAL_Driver/Src/stm32c0xx_hal_dma.c ****         break;
 1821              		.loc 1 832 9 is_stmt 1 view .LVU598
 832:Drivers/STM32C0xx_HAL_Driver/Src/stm32c0xx_hal_dma.c ****         break;
 1822              		.loc 1 832 32 is_stmt 0 view .LVU599
 1823 0044 DA62     		str	r2, [r3, #44]
 833:Drivers/STM32C0xx_HAL_Driver/Src/stm32c0xx_hal_dma.c **** 
 1824              		.loc 1 833 9 is_stmt 1 view .LVU600
 822:Drivers/STM32C0xx_HAL_Driver/Src/stm32c0xx_hal_dma.c **** 
 1825              		.loc 1 822 21 is_stmt 0 view .LVU601
 1826 0046 0800     		movs	r0, r1
 833:Drivers/STM32C0xx_HAL_Driver/Src/stm32c0xx_hal_dma.c **** 
 1827              		.loc 1 833 9 view .LVU602
 1828 0048 E9E7     		b	.L98
 1829              	.L99:
 840:Drivers/STM32C0xx_HAL_Driver/Src/stm32c0xx_hal_dma.c ****         break;
 1830              		.loc 1 840 9 is_stmt 1 view .LVU603
 840:Drivers/STM32C0xx_HAL_Driver/Src/stm32c0xx_hal_dma.c ****         break;
 1831              		.loc 1 840 33 is_stmt 0 view .LVU604
 1832 004a 5A63     		str	r2, [r3, #52]
 841:Drivers/STM32C0xx_HAL_Driver/Src/stm32c0xx_hal_dma.c **** 
 1833              		.loc 1 841 9 is_stmt 1 view .LVU605
 822:Drivers/STM32C0xx_HAL_Driver/Src/stm32c0xx_hal_dma.c **** 
 1834              		.loc 1 822 21 is_stmt 0 view .LVU606
 1835 004c 0020     		movs	r0, #0
 841:Drivers/STM32C0xx_HAL_Driver/Src/stm32c0xx_hal_dma.c **** 
 1836              		.loc 1 841 9 view .LVU607
ARM GAS  C:\Users\Yasi\AppData\Local\Temp\cc6toQyB.s 			page 61


 1837 004e E6E7     		b	.L98
 1838              	.L104:
 825:Drivers/STM32C0xx_HAL_Driver/Src/stm32c0xx_hal_dma.c **** 
 1839              		.loc 1 825 3 discriminator 1 view .LVU608
 1840 0050 0220     		movs	r0, #2
 1841 0052 E7E7     		b	.L97
 1842              		.cfi_endproc
 1843              	.LFE222:
 1845              		.section	.text.HAL_DMA_UnRegisterCallback,"ax",%progbits
 1846              		.align	1
 1847              		.global	HAL_DMA_UnRegisterCallback
 1848              		.syntax unified
 1849              		.code	16
 1850              		.thumb_func
 1852              	HAL_DMA_UnRegisterCallback:
 1853              	.LVL111:
 1854              	.LFB223:
 872:Drivers/STM32C0xx_HAL_Driver/Src/stm32c0xx_hal_dma.c ****   HAL_StatusTypeDef status = HAL_OK;
 1855              		.loc 1 872 1 is_stmt 1 view -0
 1856              		.cfi_startproc
 1857              		@ args = 0, pretend = 0, frame = 0
 1858              		@ frame_needed = 0, uses_anonymous_args = 0
 1859              		@ link register save eliminated.
 872:Drivers/STM32C0xx_HAL_Driver/Src/stm32c0xx_hal_dma.c ****   HAL_StatusTypeDef status = HAL_OK;
 1860              		.loc 1 872 1 is_stmt 0 view .LVU610
 1861 0000 0300     		movs	r3, r0
 873:Drivers/STM32C0xx_HAL_Driver/Src/stm32c0xx_hal_dma.c **** 
 1862              		.loc 1 873 3 is_stmt 1 view .LVU611
 1863              	.LVL112:
 876:Drivers/STM32C0xx_HAL_Driver/Src/stm32c0xx_hal_dma.c **** 
 1864              		.loc 1 876 3 view .LVU612
 876:Drivers/STM32C0xx_HAL_Driver/Src/stm32c0xx_hal_dma.c **** 
 1865              		.loc 1 876 3 view .LVU613
 1866 0002 2422     		movs	r2, #36
 1867 0004 825C     		ldrb	r2, [r0, r2]
 1868 0006 012A     		cmp	r2, #1
 1869 0008 29D0     		beq	.L116
 876:Drivers/STM32C0xx_HAL_Driver/Src/stm32c0xx_hal_dma.c **** 
 1870              		.loc 1 876 3 discriminator 2 view .LVU614
 1871 000a 2422     		movs	r2, #36
 1872 000c 0120     		movs	r0, #1
 1873              	.LVL113:
 876:Drivers/STM32C0xx_HAL_Driver/Src/stm32c0xx_hal_dma.c **** 
 1874              		.loc 1 876 3 is_stmt 0 discriminator 2 view .LVU615
 1875 000e 9854     		strb	r0, [r3, r2]
 876:Drivers/STM32C0xx_HAL_Driver/Src/stm32c0xx_hal_dma.c **** 
 1876              		.loc 1 876 3 is_stmt 1 discriminator 2 view .LVU616
 878:Drivers/STM32C0xx_HAL_Driver/Src/stm32c0xx_hal_dma.c ****   {
 1877              		.loc 1 878 3 view .LVU617
 878:Drivers/STM32C0xx_HAL_Driver/Src/stm32c0xx_hal_dma.c ****   {
 1878              		.loc 1 878 34 is_stmt 0 view .LVU618
 1879 0010 0132     		adds	r2, r2, #1
 1880 0012 9A5C     		ldrb	r2, [r3, r2]
 1881 0014 D0B2     		uxtb	r0, r2
 878:Drivers/STM32C0xx_HAL_Driver/Src/stm32c0xx_hal_dma.c ****   {
 1882              		.loc 1 878 6 view .LVU619
 1883 0016 012A     		cmp	r2, #1
ARM GAS  C:\Users\Yasi\AppData\Local\Temp\cc6toQyB.s 			page 62


 1884 0018 04D0     		beq	.L118
 912:Drivers/STM32C0xx_HAL_Driver/Src/stm32c0xx_hal_dma.c ****   }
 1885              		.loc 1 912 12 view .LVU620
 1886 001a 0120     		movs	r0, #1
 1887              	.L109:
 1888              	.LVL114:
 916:Drivers/STM32C0xx_HAL_Driver/Src/stm32c0xx_hal_dma.c **** 
 1889              		.loc 1 916 3 is_stmt 1 view .LVU621
 916:Drivers/STM32C0xx_HAL_Driver/Src/stm32c0xx_hal_dma.c **** 
 1890              		.loc 1 916 3 view .LVU622
 1891 001c 2422     		movs	r2, #36
 1892 001e 0021     		movs	r1, #0
 1893              	.LVL115:
 916:Drivers/STM32C0xx_HAL_Driver/Src/stm32c0xx_hal_dma.c **** 
 1894              		.loc 1 916 3 is_stmt 0 view .LVU623
 1895 0020 9954     		strb	r1, [r3, r2]
 916:Drivers/STM32C0xx_HAL_Driver/Src/stm32c0xx_hal_dma.c **** 
 1896              		.loc 1 916 3 is_stmt 1 view .LVU624
 918:Drivers/STM32C0xx_HAL_Driver/Src/stm32c0xx_hal_dma.c **** }
 1897              		.loc 1 918 3 view .LVU625
 1898              	.LVL116:
 1899              	.L108:
 919:Drivers/STM32C0xx_HAL_Driver/Src/stm32c0xx_hal_dma.c **** 
 1900              		.loc 1 919 1 is_stmt 0 view .LVU626
 1901              		@ sp needed
 1902 0022 7047     		bx	lr
 1903              	.LVL117:
 1904              	.L118:
 880:Drivers/STM32C0xx_HAL_Driver/Src/stm32c0xx_hal_dma.c ****     {
 1905              		.loc 1 880 5 is_stmt 1 view .LVU627
 1906 0024 0429     		cmp	r1, #4
 1907 0026 F9D8     		bhi	.L109
 1908 0028 8A00     		lsls	r2, r1, #2
 1909 002a 0E48     		ldr	r0, .L119
 1910 002c 8258     		ldr	r2, [r0, r2]
 1911 002e 9746     		mov	pc, r2
 1912              		.section	.rodata.HAL_DMA_UnRegisterCallback,"a",%progbits
 1913              		.align	2
 1914              	.L111:
 1915 0000 30000000 		.word	.L115
 1916 0004 38000000 		.word	.L114
 1917 0008 40000000 		.word	.L113
 1918 000c 48000000 		.word	.L112
 1919 0010 50000000 		.word	.L110
 1920              		.section	.text.HAL_DMA_UnRegisterCallback
 1921              	.L115:
 883:Drivers/STM32C0xx_HAL_Driver/Src/stm32c0xx_hal_dma.c ****         break;
 1922              		.loc 1 883 9 view .LVU628
 883:Drivers/STM32C0xx_HAL_Driver/Src/stm32c0xx_hal_dma.c ****         break;
 1923              		.loc 1 883 32 is_stmt 0 view .LVU629
 1924 0030 0022     		movs	r2, #0
 1925 0032 DA62     		str	r2, [r3, #44]
 884:Drivers/STM32C0xx_HAL_Driver/Src/stm32c0xx_hal_dma.c **** 
 1926              		.loc 1 884 9 is_stmt 1 view .LVU630
 873:Drivers/STM32C0xx_HAL_Driver/Src/stm32c0xx_hal_dma.c **** 
 1927              		.loc 1 873 21 is_stmt 0 view .LVU631
 1928 0034 0800     		movs	r0, r1
ARM GAS  C:\Users\Yasi\AppData\Local\Temp\cc6toQyB.s 			page 63


 884:Drivers/STM32C0xx_HAL_Driver/Src/stm32c0xx_hal_dma.c **** 
 1929              		.loc 1 884 9 view .LVU632
 1930 0036 F1E7     		b	.L109
 1931              	.L114:
 887:Drivers/STM32C0xx_HAL_Driver/Src/stm32c0xx_hal_dma.c ****         break;
 1932              		.loc 1 887 9 is_stmt 1 view .LVU633
 887:Drivers/STM32C0xx_HAL_Driver/Src/stm32c0xx_hal_dma.c ****         break;
 1933              		.loc 1 887 36 is_stmt 0 view .LVU634
 1934 0038 0022     		movs	r2, #0
 1935 003a 1A63     		str	r2, [r3, #48]
 888:Drivers/STM32C0xx_HAL_Driver/Src/stm32c0xx_hal_dma.c **** 
 1936              		.loc 1 888 9 is_stmt 1 view .LVU635
 873:Drivers/STM32C0xx_HAL_Driver/Src/stm32c0xx_hal_dma.c **** 
 1937              		.loc 1 873 21 is_stmt 0 view .LVU636
 1938 003c 0020     		movs	r0, #0
 888:Drivers/STM32C0xx_HAL_Driver/Src/stm32c0xx_hal_dma.c **** 
 1939              		.loc 1 888 9 view .LVU637
 1940 003e EDE7     		b	.L109
 1941              	.L113:
 891:Drivers/STM32C0xx_HAL_Driver/Src/stm32c0xx_hal_dma.c ****         break;
 1942              		.loc 1 891 9 is_stmt 1 view .LVU638
 891:Drivers/STM32C0xx_HAL_Driver/Src/stm32c0xx_hal_dma.c ****         break;
 1943              		.loc 1 891 33 is_stmt 0 view .LVU639
 1944 0040 0022     		movs	r2, #0
 1945 0042 5A63     		str	r2, [r3, #52]
 892:Drivers/STM32C0xx_HAL_Driver/Src/stm32c0xx_hal_dma.c **** 
 1946              		.loc 1 892 9 is_stmt 1 view .LVU640
 873:Drivers/STM32C0xx_HAL_Driver/Src/stm32c0xx_hal_dma.c **** 
 1947              		.loc 1 873 21 is_stmt 0 view .LVU641
 1948 0044 0020     		movs	r0, #0
 892:Drivers/STM32C0xx_HAL_Driver/Src/stm32c0xx_hal_dma.c **** 
 1949              		.loc 1 892 9 view .LVU642
 1950 0046 E9E7     		b	.L109
 1951              	.L112:
 895:Drivers/STM32C0xx_HAL_Driver/Src/stm32c0xx_hal_dma.c ****         break;
 1952              		.loc 1 895 9 is_stmt 1 view .LVU643
 895:Drivers/STM32C0xx_HAL_Driver/Src/stm32c0xx_hal_dma.c ****         break;
 1953              		.loc 1 895 33 is_stmt 0 view .LVU644
 1954 0048 0022     		movs	r2, #0
 1955 004a 9A63     		str	r2, [r3, #56]
 896:Drivers/STM32C0xx_HAL_Driver/Src/stm32c0xx_hal_dma.c **** 
 1956              		.loc 1 896 9 is_stmt 1 view .LVU645
 873:Drivers/STM32C0xx_HAL_Driver/Src/stm32c0xx_hal_dma.c **** 
 1957              		.loc 1 873 21 is_stmt 0 view .LVU646
 1958 004c 0020     		movs	r0, #0
 896:Drivers/STM32C0xx_HAL_Driver/Src/stm32c0xx_hal_dma.c **** 
 1959              		.loc 1 896 9 view .LVU647
 1960 004e E5E7     		b	.L109
 1961              	.L110:
 899:Drivers/STM32C0xx_HAL_Driver/Src/stm32c0xx_hal_dma.c ****         hdma->XferHalfCpltCallback = NULL;
 1962              		.loc 1 899 9 is_stmt 1 view .LVU648
 899:Drivers/STM32C0xx_HAL_Driver/Src/stm32c0xx_hal_dma.c ****         hdma->XferHalfCpltCallback = NULL;
 1963              		.loc 1 899 32 is_stmt 0 view .LVU649
 1964 0050 0022     		movs	r2, #0
 1965 0052 DA62     		str	r2, [r3, #44]
 900:Drivers/STM32C0xx_HAL_Driver/Src/stm32c0xx_hal_dma.c ****         hdma->XferErrorCallback = NULL;
 1966              		.loc 1 900 9 is_stmt 1 view .LVU650
ARM GAS  C:\Users\Yasi\AppData\Local\Temp\cc6toQyB.s 			page 64


 900:Drivers/STM32C0xx_HAL_Driver/Src/stm32c0xx_hal_dma.c ****         hdma->XferErrorCallback = NULL;
 1967              		.loc 1 900 36 is_stmt 0 view .LVU651
 1968 0054 1A63     		str	r2, [r3, #48]
 901:Drivers/STM32C0xx_HAL_Driver/Src/stm32c0xx_hal_dma.c ****         hdma->XferAbortCallback = NULL;
 1969              		.loc 1 901 9 is_stmt 1 view .LVU652
 901:Drivers/STM32C0xx_HAL_Driver/Src/stm32c0xx_hal_dma.c ****         hdma->XferAbortCallback = NULL;
 1970              		.loc 1 901 33 is_stmt 0 view .LVU653
 1971 0056 5A63     		str	r2, [r3, #52]
 902:Drivers/STM32C0xx_HAL_Driver/Src/stm32c0xx_hal_dma.c ****         break;
 1972              		.loc 1 902 9 is_stmt 1 view .LVU654
 902:Drivers/STM32C0xx_HAL_Driver/Src/stm32c0xx_hal_dma.c ****         break;
 1973              		.loc 1 902 33 is_stmt 0 view .LVU655
 1974 0058 9A63     		str	r2, [r3, #56]
 903:Drivers/STM32C0xx_HAL_Driver/Src/stm32c0xx_hal_dma.c **** 
 1975              		.loc 1 903 9 is_stmt 1 view .LVU656
 873:Drivers/STM32C0xx_HAL_Driver/Src/stm32c0xx_hal_dma.c **** 
 1976              		.loc 1 873 21 is_stmt 0 view .LVU657
 1977 005a 0020     		movs	r0, #0
 903:Drivers/STM32C0xx_HAL_Driver/Src/stm32c0xx_hal_dma.c **** 
 1978              		.loc 1 903 9 view .LVU658
 1979 005c DEE7     		b	.L109
 1980              	.LVL118:
 1981              	.L116:
 876:Drivers/STM32C0xx_HAL_Driver/Src/stm32c0xx_hal_dma.c **** 
 1982              		.loc 1 876 3 discriminator 1 view .LVU659
 1983 005e 0220     		movs	r0, #2
 1984              	.LVL119:
 876:Drivers/STM32C0xx_HAL_Driver/Src/stm32c0xx_hal_dma.c **** 
 1985              		.loc 1 876 3 discriminator 1 view .LVU660
 1986 0060 DFE7     		b	.L108
 1987              	.L120:
 1988 0062 C046     		.align	2
 1989              	.L119:
 1990 0064 00000000 		.word	.L111
 1991              		.cfi_endproc
 1992              	.LFE223:
 1994              		.section	.text.HAL_DMA_GetState,"ax",%progbits
 1995              		.align	1
 1996              		.global	HAL_DMA_GetState
 1997              		.syntax unified
 1998              		.code	16
 1999              		.thumb_func
 2001              	HAL_DMA_GetState:
 2002              	.LVL120:
 2003              	.LFB224:
 950:Drivers/STM32C0xx_HAL_Driver/Src/stm32c0xx_hal_dma.c ****   /* Return DMA handle state */
 2004              		.loc 1 950 1 is_stmt 1 view -0
 2005              		.cfi_startproc
 2006              		@ args = 0, pretend = 0, frame = 0
 2007              		@ frame_needed = 0, uses_anonymous_args = 0
 2008              		@ link register save eliminated.
 952:Drivers/STM32C0xx_HAL_Driver/Src/stm32c0xx_hal_dma.c **** }
 2009              		.loc 1 952 3 view .LVU662
 952:Drivers/STM32C0xx_HAL_Driver/Src/stm32c0xx_hal_dma.c **** }
 2010              		.loc 1 952 14 is_stmt 0 view .LVU663
 2011 0000 2523     		movs	r3, #37
 2012 0002 C05C     		ldrb	r0, [r0, r3]
ARM GAS  C:\Users\Yasi\AppData\Local\Temp\cc6toQyB.s 			page 65


 2013              	.LVL121:
 952:Drivers/STM32C0xx_HAL_Driver/Src/stm32c0xx_hal_dma.c **** }
 2014              		.loc 1 952 14 view .LVU664
 2015 0004 C0B2     		uxtb	r0, r0
 953:Drivers/STM32C0xx_HAL_Driver/Src/stm32c0xx_hal_dma.c **** 
 2016              		.loc 1 953 1 view .LVU665
 2017              		@ sp needed
 2018 0006 7047     		bx	lr
 2019              		.cfi_endproc
 2020              	.LFE224:
 2022              		.section	.text.HAL_DMA_GetError,"ax",%progbits
 2023              		.align	1
 2024              		.global	HAL_DMA_GetError
 2025              		.syntax unified
 2026              		.code	16
 2027              		.thumb_func
 2029              	HAL_DMA_GetError:
 2030              	.LVL122:
 2031              	.LFB225:
 962:Drivers/STM32C0xx_HAL_Driver/Src/stm32c0xx_hal_dma.c ****   return hdma->ErrorCode;
 2032              		.loc 1 962 1 is_stmt 1 view -0
 2033              		.cfi_startproc
 2034              		@ args = 0, pretend = 0, frame = 0
 2035              		@ frame_needed = 0, uses_anonymous_args = 0
 2036              		@ link register save eliminated.
 963:Drivers/STM32C0xx_HAL_Driver/Src/stm32c0xx_hal_dma.c **** }
 2037              		.loc 1 963 3 view .LVU667
 963:Drivers/STM32C0xx_HAL_Driver/Src/stm32c0xx_hal_dma.c **** }
 2038              		.loc 1 963 14 is_stmt 0 view .LVU668
 2039 0000 C06B     		ldr	r0, [r0, #60]
 2040              	.LVL123:
 964:Drivers/STM32C0xx_HAL_Driver/Src/stm32c0xx_hal_dma.c **** 
 2041              		.loc 1 964 1 view .LVU669
 2042              		@ sp needed
 2043 0002 7047     		bx	lr
 2044              		.cfi_endproc
 2045              	.LFE225:
 2047              		.text
 2048              	.Letext0:
 2049              		.file 2 "C:/Program Files (x86)/Arm GNU Toolchain arm-none-eabi/13.2 Rel1/arm-none-eabi/include/ma
 2050              		.file 3 "C:/Program Files (x86)/Arm GNU Toolchain arm-none-eabi/13.2 Rel1/arm-none-eabi/include/sy
 2051              		.file 4 "Drivers/CMSIS/Device/ST/STM32C0xx/Include/stm32c031xx.h"
 2052              		.file 5 "Drivers/STM32C0xx_HAL_Driver/Inc/stm32c0xx_hal_def.h"
 2053              		.file 6 "Drivers/STM32C0xx_HAL_Driver/Inc/stm32c0xx_hal_dma.h"
 2054              		.file 7 "Drivers/STM32C0xx_HAL_Driver/Inc/stm32c0xx_hal.h"
ARM GAS  C:\Users\Yasi\AppData\Local\Temp\cc6toQyB.s 			page 66

